
rv64_sum1toN-Ofast.o:     file format elf64-littleriscv


Disassembly of section .text:

00000000000100e8 <exit>:
   100e8:	1141                	add	sp,sp,-16
   100ea:	4581                	li	a1,0
   100ec:	e022                	sd	s0,0(sp)
   100ee:	e406                	sd	ra,8(sp)
   100f0:	842a                	mv	s0,a0
   100f2:	76c000ef          	jal	1085e <__call_exitprocs>
   100f6:	2381b783          	ld	a5,568(gp) # 1b470 <__stdio_exit_handler>
   100fa:	c391                	beqz	a5,100fe <exit+0x16>
   100fc:	9782                	jalr	a5
   100fe:	8522                	mv	a0,s0
   10100:	395070ef          	jal	17c94 <_exit>

0000000000010104 <main>:
   10104:	6565                	lui	a0,0x19
   10106:	1141                	add	sp,sp,-16
   10108:	02d00613          	li	a2,45
   1010c:	45a5                	li	a1,9
   1010e:	06050513          	add	a0,a0,96 # 19060 <__clzdi2+0x3c>
   10112:	e406                	sd	ra,8(sp)
   10114:	3de000ef          	jal	104f2 <printf>
   10118:	60a2                	ld	ra,8(sp)
   1011a:	4501                	li	a0,0
   1011c:	0141                	add	sp,sp,16
   1011e:	8082                	ret

0000000000010120 <register_fini>:
   10120:	00000793          	li	a5,0
   10124:	c799                	beqz	a5,10132 <register_fini+0x12>
   10126:	00004517          	auipc	a0,0x4
   1012a:	6ec50513          	add	a0,a0,1772 # 14812 <__libc_fini_array>
   1012e:	0070006f          	j	10934 <atexit>
   10132:	8082                	ret

0000000000010134 <_start>:
   10134:	0000b197          	auipc	gp,0xb
   10138:	10418193          	add	gp,gp,260 # 1b238 <__global_locale>
   1013c:	23818513          	add	a0,gp,568 # 1b470 <__stdio_exit_handler>
   10140:	0000c617          	auipc	a2,0xc
   10144:	8f860613          	add	a2,a2,-1800 # 1ba38 <__BSS_END__>
   10148:	8e09                	sub	a2,a2,a0
   1014a:	4581                	li	a1,0
   1014c:	668000ef          	jal	107b4 <memset>
   10150:	00000517          	auipc	a0,0x0
   10154:	7e450513          	add	a0,a0,2020 # 10934 <atexit>
   10158:	c519                	beqz	a0,10166 <_start+0x32>
   1015a:	00004517          	auipc	a0,0x4
   1015e:	6b850513          	add	a0,a0,1720 # 14812 <__libc_fini_array>
   10162:	7d2000ef          	jal	10934 <atexit>
   10166:	5e4000ef          	jal	1074a <__libc_init_array>
   1016a:	4502                	lw	a0,0(sp)
   1016c:	002c                	add	a1,sp,8
   1016e:	4601                	li	a2,0
   10170:	f95ff0ef          	jal	10104 <main>
   10174:	bf95                	j	100e8 <exit>

0000000000010176 <__do_global_dtors_aux>:
   10176:	1141                	add	sp,sp,-16
   10178:	e022                	sd	s0,0(sp)
   1017a:	27818413          	add	s0,gp,632 # 1b4b0 <completed.1>
   1017e:	00044783          	lbu	a5,0(s0)
   10182:	e406                	sd	ra,8(sp)
   10184:	ef99                	bnez	a5,101a2 <__do_global_dtors_aux+0x2c>
   10186:	00000793          	li	a5,0
   1018a:	cb89                	beqz	a5,1019c <__do_global_dtors_aux+0x26>
   1018c:	0000a517          	auipc	a0,0xa
   10190:	70c50513          	add	a0,a0,1804 # 1a898 <__EH_FRAME_BEGIN__>
   10194:	00000097          	auipc	ra,0x0
   10198:	000000e7          	jalr	zero # 0 <exit-0x100e8>
   1019c:	4785                	li	a5,1
   1019e:	00f40023          	sb	a5,0(s0)
   101a2:	60a2                	ld	ra,8(sp)
   101a4:	6402                	ld	s0,0(sp)
   101a6:	0141                	add	sp,sp,16
   101a8:	8082                	ret

00000000000101aa <frame_dummy>:
   101aa:	00000793          	li	a5,0
   101ae:	cb99                	beqz	a5,101c4 <frame_dummy+0x1a>
   101b0:	28018593          	add	a1,gp,640 # 1b4b8 <object.0>
   101b4:	0000a517          	auipc	a0,0xa
   101b8:	6e450513          	add	a0,a0,1764 # 1a898 <__EH_FRAME_BEGIN__>
   101bc:	00000317          	auipc	t1,0x0
   101c0:	00000067          	jr	zero # 0 <exit-0x100e8>
   101c4:	8082                	ret

00000000000101c6 <__fp_lock>:
   101c6:	4501                	li	a0,0
   101c8:	8082                	ret

00000000000101ca <stdio_exit_handler>:
   101ca:	0000a617          	auipc	a2,0xa
   101ce:	6ee60613          	add	a2,a2,1774 # 1a8b8 <__sglue>
   101d2:	00004597          	auipc	a1,0x4
   101d6:	be058593          	add	a1,a1,-1056 # 13db2 <_fclose_r>
   101da:	0000a517          	auipc	a0,0xa
   101de:	6f650513          	add	a0,a0,1782 # 1a8d0 <_impure_data>
   101e2:	a4b5                	j	1044e <_fwalk_sglue>

00000000000101e4 <cleanup_stdio>:
   101e4:	650c                	ld	a1,8(a0)
   101e6:	1141                	add	sp,sp,-16
   101e8:	e022                	sd	s0,0(sp)
   101ea:	e406                	sd	ra,8(sp)
   101ec:	2b018793          	add	a5,gp,688 # 1b4e8 <__sf>
   101f0:	842a                	mv	s0,a0
   101f2:	00f58463          	beq	a1,a5,101fa <cleanup_stdio+0x16>
   101f6:	3bd030ef          	jal	13db2 <_fclose_r>
   101fa:	680c                	ld	a1,16(s0)
   101fc:	36018793          	add	a5,gp,864 # 1b598 <__sf+0xb0>
   10200:	00f58563          	beq	a1,a5,1020a <cleanup_stdio+0x26>
   10204:	8522                	mv	a0,s0
   10206:	3ad030ef          	jal	13db2 <_fclose_r>
   1020a:	6c0c                	ld	a1,24(s0)
   1020c:	41018793          	add	a5,gp,1040 # 1b648 <__sf+0x160>
   10210:	00f58863          	beq	a1,a5,10220 <cleanup_stdio+0x3c>
   10214:	8522                	mv	a0,s0
   10216:	6402                	ld	s0,0(sp)
   10218:	60a2                	ld	ra,8(sp)
   1021a:	0141                	add	sp,sp,16
   1021c:	3970306f          	j	13db2 <_fclose_r>
   10220:	60a2                	ld	ra,8(sp)
   10222:	6402                	ld	s0,0(sp)
   10224:	0141                	add	sp,sp,16
   10226:	8082                	ret

0000000000010228 <__fp_unlock>:
   10228:	4501                	li	a0,0
   1022a:	8082                	ret

000000000001022c <global_stdio_init.part.0>:
   1022c:	7179                	add	sp,sp,-48
   1022e:	00000797          	auipc	a5,0x0
   10232:	f9c78793          	add	a5,a5,-100 # 101ca <stdio_exit_handler>
   10236:	f406                	sd	ra,40(sp)
   10238:	f022                	sd	s0,32(sp)
   1023a:	ec26                	sd	s1,24(sp)
   1023c:	2b018413          	add	s0,gp,688 # 1b4e8 <__sf>
   10240:	e84a                	sd	s2,16(sp)
   10242:	e44e                	sd	s3,8(sp)
   10244:	e052                	sd	s4,0(sp)
   10246:	22f1bc23          	sd	a5,568(gp) # 1b470 <__stdio_exit_handler>
   1024a:	4621                	li	a2,8
   1024c:	4791                	li	a5,4
   1024e:	4581                	li	a1,0
   10250:	35418513          	add	a0,gp,852 # 1b58c <__sf+0xa4>
   10254:	c81c                	sw	a5,16(s0)
   10256:	00043023          	sd	zero,0(s0)
   1025a:	00043423          	sd	zero,8(s0)
   1025e:	0a042623          	sw	zero,172(s0)
   10262:	00043c23          	sd	zero,24(s0)
   10266:	02042023          	sw	zero,32(s0)
   1026a:	02042423          	sw	zero,40(s0)
   1026e:	546000ef          	jal	107b4 <memset>
   10272:	67c1                	lui	a5,0x10
   10274:	00000a17          	auipc	s4,0x0
   10278:	2aaa0a13          	add	s4,s4,682 # 1051e <__sread>
   1027c:	00000997          	auipc	s3,0x0
   10280:	2de98993          	add	s3,s3,734 # 1055a <__swrite>
   10284:	00000917          	auipc	s2,0x0
   10288:	32890913          	add	s2,s2,808 # 105ac <__sseek>
   1028c:	00000497          	auipc	s1,0x0
   10290:	37248493          	add	s1,s1,882 # 105fe <__sclose>
   10294:	07a5                	add	a5,a5,9 # 10009 <exit-0xdf>
   10296:	4621                	li	a2,8
   10298:	4581                	li	a1,0
   1029a:	40418513          	add	a0,gp,1028 # 1b63c <__sf+0x154>
   1029e:	03443c23          	sd	s4,56(s0)
   102a2:	05343023          	sd	s3,64(s0)
   102a6:	05243423          	sd	s2,72(s0)
   102aa:	e824                	sd	s1,80(s0)
   102ac:	0cf42023          	sw	a5,192(s0)
   102b0:	f800                	sd	s0,48(s0)
   102b2:	0a043823          	sd	zero,176(s0)
   102b6:	0a043c23          	sd	zero,184(s0)
   102ba:	14042e23          	sw	zero,348(s0)
   102be:	0c043423          	sd	zero,200(s0)
   102c2:	0c042823          	sw	zero,208(s0)
   102c6:	0c042c23          	sw	zero,216(s0)
   102ca:	4ea000ef          	jal	107b4 <memset>
   102ce:	000207b7          	lui	a5,0x20
   102d2:	07c9                	add	a5,a5,18 # 20012 <__BSS_END__+0x45da>
   102d4:	36018713          	add	a4,gp,864 # 1b598 <__sf+0xb0>
   102d8:	4621                	li	a2,8
   102da:	4581                	li	a1,0
   102dc:	4b418513          	add	a0,gp,1204 # 1b6ec <__sf+0x204>
   102e0:	0f443423          	sd	s4,232(s0)
   102e4:	0f343823          	sd	s3,240(s0)
   102e8:	0f243c23          	sd	s2,248(s0)
   102ec:	10943023          	sd	s1,256(s0)
   102f0:	16f42823          	sw	a5,368(s0)
   102f4:	f078                	sd	a4,224(s0)
   102f6:	16043023          	sd	zero,352(s0)
   102fa:	16043423          	sd	zero,360(s0)
   102fe:	20042623          	sw	zero,524(s0)
   10302:	16043c23          	sd	zero,376(s0)
   10306:	18042023          	sw	zero,384(s0)
   1030a:	18042423          	sw	zero,392(s0)
   1030e:	4a6000ef          	jal	107b4 <memset>
   10312:	41018793          	add	a5,gp,1040 # 1b648 <__sf+0x160>
   10316:	19443c23          	sd	s4,408(s0)
   1031a:	1b343023          	sd	s3,416(s0)
   1031e:	1b243423          	sd	s2,424(s0)
   10322:	1a943823          	sd	s1,432(s0)
   10326:	70a2                	ld	ra,40(sp)
   10328:	18f43823          	sd	a5,400(s0)
   1032c:	7402                	ld	s0,32(sp)
   1032e:	64e2                	ld	s1,24(sp)
   10330:	6942                	ld	s2,16(sp)
   10332:	69a2                	ld	s3,8(sp)
   10334:	6a02                	ld	s4,0(sp)
   10336:	6145                	add	sp,sp,48
   10338:	8082                	ret

000000000001033a <__sfp>:
   1033a:	7179                	add	sp,sp,-48
   1033c:	e84a                	sd	s2,16(sp)
   1033e:	f406                	sd	ra,40(sp)
   10340:	f022                	sd	s0,32(sp)
   10342:	ec26                	sd	s1,24(sp)
   10344:	e44e                	sd	s3,8(sp)
   10346:	2381b783          	ld	a5,568(gp) # 1b470 <__stdio_exit_handler>
   1034a:	892a                	mv	s2,a0
   1034c:	c7d5                	beqz	a5,103f8 <__sfp+0xbe>
   1034e:	0000a497          	auipc	s1,0xa
   10352:	56a48493          	add	s1,s1,1386 # 1a8b8 <__sglue>
   10356:	0b000993          	li	s3,176
   1035a:	4498                	lw	a4,8(s1)
   1035c:	6880                	ld	s0,16(s1)
   1035e:	06e05463          	blez	a4,103c6 <__sfp+0x8c>
   10362:	1702                	sll	a4,a4,0x20
   10364:	9301                	srl	a4,a4,0x20
   10366:	03370733          	mul	a4,a4,s3
   1036a:	9722                	add	a4,a4,s0
   1036c:	a029                	j	10376 <__sfp+0x3c>
   1036e:	0b040413          	add	s0,s0,176
   10372:	04870a63          	beq	a4,s0,103c6 <__sfp+0x8c>
   10376:	01041783          	lh	a5,16(s0)
   1037a:	fbf5                	bnez	a5,1036e <__sfp+0x34>
   1037c:	77c1                	lui	a5,0xffff0
   1037e:	0785                	add	a5,a5,1 # ffffffffffff0001 <__BSS_END__+0xfffffffffffd45c9>
   10380:	c81c                	sw	a5,16(s0)
   10382:	0a042623          	sw	zero,172(s0)
   10386:	00043023          	sd	zero,0(s0)
   1038a:	00043423          	sd	zero,8(s0)
   1038e:	00043c23          	sd	zero,24(s0)
   10392:	02042023          	sw	zero,32(s0)
   10396:	02042423          	sw	zero,40(s0)
   1039a:	4621                	li	a2,8
   1039c:	4581                	li	a1,0
   1039e:	0a440513          	add	a0,s0,164
   103a2:	412000ef          	jal	107b4 <memset>
   103a6:	04043c23          	sd	zero,88(s0)
   103aa:	06042023          	sw	zero,96(s0)
   103ae:	06043c23          	sd	zero,120(s0)
   103b2:	08042023          	sw	zero,128(s0)
   103b6:	70a2                	ld	ra,40(sp)
   103b8:	8522                	mv	a0,s0
   103ba:	7402                	ld	s0,32(sp)
   103bc:	64e2                	ld	s1,24(sp)
   103be:	6942                	ld	s2,16(sp)
   103c0:	69a2                	ld	s3,8(sp)
   103c2:	6145                	add	sp,sp,48
   103c4:	8082                	ret
   103c6:	6080                	ld	s0,0(s1)
   103c8:	c019                	beqz	s0,103ce <__sfp+0x94>
   103ca:	84a2                	mv	s1,s0
   103cc:	b779                	j	1035a <__sfp+0x20>
   103ce:	2d800593          	li	a1,728
   103d2:	854a                	mv	a0,s2
   103d4:	089000ef          	jal	10c5c <_malloc_r>
   103d8:	842a                	mv	s0,a0
   103da:	c115                	beqz	a0,103fe <__sfp+0xc4>
   103dc:	0561                	add	a0,a0,24
   103de:	4791                	li	a5,4
   103e0:	00043023          	sd	zero,0(s0)
   103e4:	c41c                	sw	a5,8(s0)
   103e6:	e808                	sd	a0,16(s0)
   103e8:	2c000613          	li	a2,704
   103ec:	4581                	li	a1,0
   103ee:	3c6000ef          	jal	107b4 <memset>
   103f2:	e080                	sd	s0,0(s1)
   103f4:	84a2                	mv	s1,s0
   103f6:	b795                	j	1035a <__sfp+0x20>
   103f8:	e35ff0ef          	jal	1022c <global_stdio_init.part.0>
   103fc:	bf89                	j	1034e <__sfp+0x14>
   103fe:	0004b023          	sd	zero,0(s1)
   10402:	47b1                	li	a5,12
   10404:	00f92023          	sw	a5,0(s2)
   10408:	b77d                	j	103b6 <__sfp+0x7c>

000000000001040a <__sinit>:
   1040a:	653c                	ld	a5,72(a0)
   1040c:	c391                	beqz	a5,10410 <__sinit+0x6>
   1040e:	8082                	ret
   10410:	00000797          	auipc	a5,0x0
   10414:	dd478793          	add	a5,a5,-556 # 101e4 <cleanup_stdio>
   10418:	e53c                	sd	a5,72(a0)
   1041a:	2381b783          	ld	a5,568(gp) # 1b470 <__stdio_exit_handler>
   1041e:	fbe5                	bnez	a5,1040e <__sinit+0x4>
   10420:	b531                	j	1022c <global_stdio_init.part.0>

0000000000010422 <__sfp_lock_acquire>:
   10422:	8082                	ret

0000000000010424 <__sfp_lock_release>:
   10424:	8082                	ret

0000000000010426 <__fp_lock_all>:
   10426:	0000a617          	auipc	a2,0xa
   1042a:	49260613          	add	a2,a2,1170 # 1a8b8 <__sglue>
   1042e:	00000597          	auipc	a1,0x0
   10432:	d9858593          	add	a1,a1,-616 # 101c6 <__fp_lock>
   10436:	4501                	li	a0,0
   10438:	a819                	j	1044e <_fwalk_sglue>

000000000001043a <__fp_unlock_all>:
   1043a:	0000a617          	auipc	a2,0xa
   1043e:	47e60613          	add	a2,a2,1150 # 1a8b8 <__sglue>
   10442:	00000597          	auipc	a1,0x0
   10446:	de658593          	add	a1,a1,-538 # 10228 <__fp_unlock>
   1044a:	4501                	li	a0,0
   1044c:	a009                	j	1044e <_fwalk_sglue>

000000000001044e <_fwalk_sglue>:
   1044e:	715d                	add	sp,sp,-80
   10450:	f84a                	sd	s2,48(sp)
   10452:	f44e                	sd	s3,40(sp)
   10454:	f052                	sd	s4,32(sp)
   10456:	ec56                	sd	s5,24(sp)
   10458:	e85a                	sd	s6,16(sp)
   1045a:	e45e                	sd	s7,8(sp)
   1045c:	e062                	sd	s8,0(sp)
   1045e:	e486                	sd	ra,72(sp)
   10460:	e0a2                	sd	s0,64(sp)
   10462:	fc26                	sd	s1,56(sp)
   10464:	8a2a                	mv	s4,a0
   10466:	8b2e                	mv	s6,a1
   10468:	89b2                	mv	s3,a2
   1046a:	4901                	li	s2,0
   1046c:	0b000b93          	li	s7,176
   10470:	4c05                	li	s8,1
   10472:	5afd                	li	s5,-1
   10474:	0089a483          	lw	s1,8(s3)
   10478:	0109b403          	ld	s0,16(s3)
   1047c:	02905963          	blez	s1,104ae <_fwalk_sglue+0x60>
   10480:	1482                	sll	s1,s1,0x20
   10482:	9081                	srl	s1,s1,0x20
   10484:	037484b3          	mul	s1,s1,s7
   10488:	94a2                	add	s1,s1,s0
   1048a:	01045783          	lhu	a5,16(s0)
   1048e:	00fc7c63          	bgeu	s8,a5,104a6 <_fwalk_sglue+0x58>
   10492:	01241783          	lh	a5,18(s0)
   10496:	85a2                	mv	a1,s0
   10498:	8552                	mv	a0,s4
   1049a:	01578663          	beq	a5,s5,104a6 <_fwalk_sglue+0x58>
   1049e:	9b02                	jalr	s6
   104a0:	01256933          	or	s2,a0,s2
   104a4:	2901                	sext.w	s2,s2
   104a6:	0b040413          	add	s0,s0,176
   104aa:	fe9410e3          	bne	s0,s1,1048a <_fwalk_sglue+0x3c>
   104ae:	0009b983          	ld	s3,0(s3)
   104b2:	fc0991e3          	bnez	s3,10474 <_fwalk_sglue+0x26>
   104b6:	60a6                	ld	ra,72(sp)
   104b8:	6406                	ld	s0,64(sp)
   104ba:	74e2                	ld	s1,56(sp)
   104bc:	79a2                	ld	s3,40(sp)
   104be:	7a02                	ld	s4,32(sp)
   104c0:	6ae2                	ld	s5,24(sp)
   104c2:	6b42                	ld	s6,16(sp)
   104c4:	6ba2                	ld	s7,8(sp)
   104c6:	6c02                	ld	s8,0(sp)
   104c8:	854a                	mv	a0,s2
   104ca:	7942                	ld	s2,48(sp)
   104cc:	6161                	add	sp,sp,80
   104ce:	8082                	ret

00000000000104d0 <_printf_r>:
   104d0:	715d                	add	sp,sp,-80
   104d2:	f032                	sd	a2,32(sp)
   104d4:	f436                	sd	a3,40(sp)
   104d6:	f83a                	sd	a4,48(sp)
   104d8:	fc3e                	sd	a5,56(sp)
   104da:	e0c2                	sd	a6,64(sp)
   104dc:	e4c6                	sd	a7,72(sp)
   104de:	862e                	mv	a2,a1
   104e0:	690c                	ld	a1,16(a0)
   104e2:	1014                	add	a3,sp,32
   104e4:	ec06                	sd	ra,24(sp)
   104e6:	e436                	sd	a3,8(sp)
   104e8:	585000ef          	jal	1126c <_vfprintf_r>
   104ec:	60e2                	ld	ra,24(sp)
   104ee:	6161                	add	sp,sp,80
   104f0:	8082                	ret

00000000000104f2 <printf>:
   104f2:	711d                	add	sp,sp,-96
   104f4:	f832                	sd	a2,48(sp)
   104f6:	fc36                	sd	a3,56(sp)
   104f8:	2201b303          	ld	t1,544(gp) # 1b458 <_impure_ptr>
   104fc:	f42e                	sd	a1,40(sp)
   104fe:	e0ba                	sd	a4,64(sp)
   10500:	e4be                	sd	a5,72(sp)
   10502:	e8c2                	sd	a6,80(sp)
   10504:	ecc6                	sd	a7,88(sp)
   10506:	01033583          	ld	a1,16(t1) # 101cc <stdio_exit_handler+0x2>
   1050a:	1034                	add	a3,sp,40
   1050c:	862a                	mv	a2,a0
   1050e:	851a                	mv	a0,t1
   10510:	ec06                	sd	ra,24(sp)
   10512:	e436                	sd	a3,8(sp)
   10514:	559000ef          	jal	1126c <_vfprintf_r>
   10518:	60e2                	ld	ra,24(sp)
   1051a:	6125                	add	sp,sp,96
   1051c:	8082                	ret

000000000001051e <__sread>:
   1051e:	1141                	add	sp,sp,-16
   10520:	e022                	sd	s0,0(sp)
   10522:	842e                	mv	s0,a1
   10524:	01259583          	lh	a1,18(a1)
   10528:	e406                	sd	ra,8(sp)
   1052a:	1b4000ef          	jal	106de <_read_r>
   1052e:	00054963          	bltz	a0,10540 <__sread+0x22>
   10532:	685c                	ld	a5,144(s0)
   10534:	60a2                	ld	ra,8(sp)
   10536:	97aa                	add	a5,a5,a0
   10538:	e85c                	sd	a5,144(s0)
   1053a:	6402                	ld	s0,0(sp)
   1053c:	0141                	add	sp,sp,16
   1053e:	8082                	ret
   10540:	01045783          	lhu	a5,16(s0)
   10544:	777d                	lui	a4,0xfffff
   10546:	177d                	add	a4,a4,-1 # ffffffffffffefff <__BSS_END__+0xfffffffffffe35c7>
   10548:	8ff9                	and	a5,a5,a4
   1054a:	60a2                	ld	ra,8(sp)
   1054c:	00f41823          	sh	a5,16(s0)
   10550:	6402                	ld	s0,0(sp)
   10552:	0141                	add	sp,sp,16
   10554:	8082                	ret

0000000000010556 <__seofread>:
   10556:	4501                	li	a0,0
   10558:	8082                	ret

000000000001055a <__swrite>:
   1055a:	01059783          	lh	a5,16(a1)
   1055e:	7179                	add	sp,sp,-48
   10560:	f022                	sd	s0,32(sp)
   10562:	ec26                	sd	s1,24(sp)
   10564:	e84a                	sd	s2,16(sp)
   10566:	e44e                	sd	s3,8(sp)
   10568:	f406                	sd	ra,40(sp)
   1056a:	1007f713          	and	a4,a5,256
   1056e:	842e                	mv	s0,a1
   10570:	84aa                	mv	s1,a0
   10572:	8932                	mv	s2,a2
   10574:	89b6                	mv	s3,a3
   10576:	e315                	bnez	a4,1059a <__swrite+0x40>
   10578:	777d                	lui	a4,0xfffff
   1057a:	177d                	add	a4,a4,-1 # ffffffffffffefff <__BSS_END__+0xfffffffffffe35c7>
   1057c:	8ff9                	and	a5,a5,a4
   1057e:	01241583          	lh	a1,18(s0)
   10582:	00f41823          	sh	a5,16(s0)
   10586:	7402                	ld	s0,32(sp)
   10588:	70a2                	ld	ra,40(sp)
   1058a:	86ce                	mv	a3,s3
   1058c:	864a                	mv	a2,s2
   1058e:	69a2                	ld	s3,8(sp)
   10590:	6942                	ld	s2,16(sp)
   10592:	8526                	mv	a0,s1
   10594:	64e2                	ld	s1,24(sp)
   10596:	6145                	add	sp,sp,48
   10598:	aab5                	j	10714 <_write_r>
   1059a:	01259583          	lh	a1,18(a1)
   1059e:	4689                	li	a3,2
   105a0:	4601                	li	a2,0
   105a2:	106000ef          	jal	106a8 <_lseek_r>
   105a6:	01041783          	lh	a5,16(s0)
   105aa:	b7f9                	j	10578 <__swrite+0x1e>

00000000000105ac <__sseek>:
   105ac:	1141                	add	sp,sp,-16
   105ae:	e022                	sd	s0,0(sp)
   105b0:	842e                	mv	s0,a1
   105b2:	01259583          	lh	a1,18(a1)
   105b6:	e406                	sd	ra,8(sp)
   105b8:	0f0000ef          	jal	106a8 <_lseek_r>
   105bc:	57fd                	li	a5,-1
   105be:	02f50163          	beq	a0,a5,105e0 <__sseek+0x34>
   105c2:	01045783          	lhu	a5,16(s0)
   105c6:	6705                	lui	a4,0x1
   105c8:	60a2                	ld	ra,8(sp)
   105ca:	8fd9                	or	a5,a5,a4
   105cc:	0107979b          	sllw	a5,a5,0x10
   105d0:	4107d79b          	sraw	a5,a5,0x10
   105d4:	e848                	sd	a0,144(s0)
   105d6:	00f41823          	sh	a5,16(s0)
   105da:	6402                	ld	s0,0(sp)
   105dc:	0141                	add	sp,sp,16
   105de:	8082                	ret
   105e0:	01045783          	lhu	a5,16(s0)
   105e4:	777d                	lui	a4,0xfffff
   105e6:	177d                	add	a4,a4,-1 # ffffffffffffefff <__BSS_END__+0xfffffffffffe35c7>
   105e8:	8ff9                	and	a5,a5,a4
   105ea:	0107979b          	sllw	a5,a5,0x10
   105ee:	4107d79b          	sraw	a5,a5,0x10
   105f2:	60a2                	ld	ra,8(sp)
   105f4:	00f41823          	sh	a5,16(s0)
   105f8:	6402                	ld	s0,0(sp)
   105fa:	0141                	add	sp,sp,16
   105fc:	8082                	ret

00000000000105fe <__sclose>:
   105fe:	01259583          	lh	a1,18(a1)
   10602:	a009                	j	10604 <_close_r>

0000000000010604 <_close_r>:
   10604:	1141                	add	sp,sp,-16
   10606:	e022                	sd	s0,0(sp)
   10608:	842a                	mv	s0,a0
   1060a:	852e                	mv	a0,a1
   1060c:	2401a023          	sw	zero,576(gp) # 1b478 <errno>
   10610:	e406                	sd	ra,8(sp)
   10612:	656070ef          	jal	17c68 <_close>
   10616:	57fd                	li	a5,-1
   10618:	00f50663          	beq	a0,a5,10624 <_close_r+0x20>
   1061c:	60a2                	ld	ra,8(sp)
   1061e:	6402                	ld	s0,0(sp)
   10620:	0141                	add	sp,sp,16
   10622:	8082                	ret
   10624:	2401a783          	lw	a5,576(gp) # 1b478 <errno>
   10628:	dbf5                	beqz	a5,1061c <_close_r+0x18>
   1062a:	60a2                	ld	ra,8(sp)
   1062c:	c01c                	sw	a5,0(s0)
   1062e:	6402                	ld	s0,0(sp)
   10630:	0141                	add	sp,sp,16
   10632:	8082                	ret

0000000000010634 <_reclaim_reent>:
   10634:	2201b783          	ld	a5,544(gp) # 1b458 <_impure_ptr>
   10638:	06a78763          	beq	a5,a0,106a6 <_reclaim_reent+0x72>
   1063c:	752c                	ld	a1,104(a0)
   1063e:	7179                	add	sp,sp,-48
   10640:	ec26                	sd	s1,24(sp)
   10642:	f406                	sd	ra,40(sp)
   10644:	84aa                	mv	s1,a0
   10646:	c99d                	beqz	a1,1067c <_reclaim_reent+0x48>
   10648:	e84a                	sd	s2,16(sp)
   1064a:	e44e                	sd	s3,8(sp)
   1064c:	f022                	sd	s0,32(sp)
   1064e:	4901                	li	s2,0
   10650:	20000993          	li	s3,512
   10654:	012587b3          	add	a5,a1,s2
   10658:	6380                	ld	s0,0(a5)
   1065a:	c801                	beqz	s0,1066a <_reclaim_reent+0x36>
   1065c:	85a2                	mv	a1,s0
   1065e:	6000                	ld	s0,0(s0)
   10660:	8526                	mv	a0,s1
   10662:	3ae000ef          	jal	10a10 <_free_r>
   10666:	f87d                	bnez	s0,1065c <_reclaim_reent+0x28>
   10668:	74ac                	ld	a1,104(s1)
   1066a:	0921                	add	s2,s2,8
   1066c:	ff3914e3          	bne	s2,s3,10654 <_reclaim_reent+0x20>
   10670:	8526                	mv	a0,s1
   10672:	39e000ef          	jal	10a10 <_free_r>
   10676:	7402                	ld	s0,32(sp)
   10678:	6942                	ld	s2,16(sp)
   1067a:	69a2                	ld	s3,8(sp)
   1067c:	68ac                	ld	a1,80(s1)
   1067e:	c581                	beqz	a1,10686 <_reclaim_reent+0x52>
   10680:	8526                	mv	a0,s1
   10682:	38e000ef          	jal	10a10 <_free_r>
   10686:	7cac                	ld	a1,120(s1)
   10688:	c581                	beqz	a1,10690 <_reclaim_reent+0x5c>
   1068a:	8526                	mv	a0,s1
   1068c:	384000ef          	jal	10a10 <_free_r>
   10690:	64bc                	ld	a5,72(s1)
   10692:	c791                	beqz	a5,1069e <_reclaim_reent+0x6a>
   10694:	70a2                	ld	ra,40(sp)
   10696:	8526                	mv	a0,s1
   10698:	64e2                	ld	s1,24(sp)
   1069a:	6145                	add	sp,sp,48
   1069c:	8782                	jr	a5
   1069e:	70a2                	ld	ra,40(sp)
   106a0:	64e2                	ld	s1,24(sp)
   106a2:	6145                	add	sp,sp,48
   106a4:	8082                	ret
   106a6:	8082                	ret

00000000000106a8 <_lseek_r>:
   106a8:	1141                	add	sp,sp,-16
   106aa:	872e                	mv	a4,a1
   106ac:	e022                	sd	s0,0(sp)
   106ae:	85b2                	mv	a1,a2
   106b0:	842a                	mv	s0,a0
   106b2:	8636                	mv	a2,a3
   106b4:	853a                	mv	a0,a4
   106b6:	2401a023          	sw	zero,576(gp) # 1b478 <errno>
   106ba:	e406                	sd	ra,8(sp)
   106bc:	678070ef          	jal	17d34 <_lseek>
   106c0:	57fd                	li	a5,-1
   106c2:	00f50663          	beq	a0,a5,106ce <_lseek_r+0x26>
   106c6:	60a2                	ld	ra,8(sp)
   106c8:	6402                	ld	s0,0(sp)
   106ca:	0141                	add	sp,sp,16
   106cc:	8082                	ret
   106ce:	2401a783          	lw	a5,576(gp) # 1b478 <errno>
   106d2:	dbf5                	beqz	a5,106c6 <_lseek_r+0x1e>
   106d4:	60a2                	ld	ra,8(sp)
   106d6:	c01c                	sw	a5,0(s0)
   106d8:	6402                	ld	s0,0(sp)
   106da:	0141                	add	sp,sp,16
   106dc:	8082                	ret

00000000000106de <_read_r>:
   106de:	1141                	add	sp,sp,-16
   106e0:	872e                	mv	a4,a1
   106e2:	e022                	sd	s0,0(sp)
   106e4:	85b2                	mv	a1,a2
   106e6:	842a                	mv	s0,a0
   106e8:	8636                	mv	a2,a3
   106ea:	853a                	mv	a0,a4
   106ec:	2401a023          	sw	zero,576(gp) # 1b478 <errno>
   106f0:	e406                	sd	ra,8(sp)
   106f2:	66e070ef          	jal	17d60 <_read>
   106f6:	57fd                	li	a5,-1
   106f8:	00f50663          	beq	a0,a5,10704 <_read_r+0x26>
   106fc:	60a2                	ld	ra,8(sp)
   106fe:	6402                	ld	s0,0(sp)
   10700:	0141                	add	sp,sp,16
   10702:	8082                	ret
   10704:	2401a783          	lw	a5,576(gp) # 1b478 <errno>
   10708:	dbf5                	beqz	a5,106fc <_read_r+0x1e>
   1070a:	60a2                	ld	ra,8(sp)
   1070c:	c01c                	sw	a5,0(s0)
   1070e:	6402                	ld	s0,0(sp)
   10710:	0141                	add	sp,sp,16
   10712:	8082                	ret

0000000000010714 <_write_r>:
   10714:	1141                	add	sp,sp,-16
   10716:	872e                	mv	a4,a1
   10718:	e022                	sd	s0,0(sp)
   1071a:	85b2                	mv	a1,a2
   1071c:	842a                	mv	s0,a0
   1071e:	8636                	mv	a2,a3
   10720:	853a                	mv	a0,a4
   10722:	2401a023          	sw	zero,576(gp) # 1b478 <errno>
   10726:	e406                	sd	ra,8(sp)
   10728:	6b4070ef          	jal	17ddc <_write>
   1072c:	57fd                	li	a5,-1
   1072e:	00f50663          	beq	a0,a5,1073a <_write_r+0x26>
   10732:	60a2                	ld	ra,8(sp)
   10734:	6402                	ld	s0,0(sp)
   10736:	0141                	add	sp,sp,16
   10738:	8082                	ret
   1073a:	2401a783          	lw	a5,576(gp) # 1b478 <errno>
   1073e:	dbf5                	beqz	a5,10732 <_write_r+0x1e>
   10740:	60a2                	ld	ra,8(sp)
   10742:	c01c                	sw	a5,0(s0)
   10744:	6402                	ld	s0,0(sp)
   10746:	0141                	add	sp,sp,16
   10748:	8082                	ret

000000000001074a <__libc_init_array>:
   1074a:	1101                	add	sp,sp,-32
   1074c:	e822                	sd	s0,16(sp)
   1074e:	e04a                	sd	s2,0(sp)
   10750:	0000a797          	auipc	a5,0xa
   10754:	14c78793          	add	a5,a5,332 # 1a89c <__preinit_array_end>
   10758:	0000a417          	auipc	s0,0xa
   1075c:	14440413          	add	s0,s0,324 # 1a89c <__preinit_array_end>
   10760:	ec06                	sd	ra,24(sp)
   10762:	e426                	sd	s1,8(sp)
   10764:	40878933          	sub	s2,a5,s0
   10768:	00878b63          	beq	a5,s0,1077e <__libc_init_array+0x34>
   1076c:	40395913          	sra	s2,s2,0x3
   10770:	4481                	li	s1,0
   10772:	601c                	ld	a5,0(s0)
   10774:	0485                	add	s1,s1,1
   10776:	0421                	add	s0,s0,8
   10778:	9782                	jalr	a5
   1077a:	ff24ece3          	bltu	s1,s2,10772 <__libc_init_array+0x28>
   1077e:	0000a797          	auipc	a5,0xa
   10782:	13278793          	add	a5,a5,306 # 1a8b0 <__do_global_dtors_aux_fini_array_entry>
   10786:	0000a417          	auipc	s0,0xa
   1078a:	11a40413          	add	s0,s0,282 # 1a8a0 <__init_array_start>
   1078e:	40878933          	sub	s2,a5,s0
   10792:	40395913          	sra	s2,s2,0x3
   10796:	00878963          	beq	a5,s0,107a8 <__libc_init_array+0x5e>
   1079a:	4481                	li	s1,0
   1079c:	601c                	ld	a5,0(s0)
   1079e:	0485                	add	s1,s1,1
   107a0:	0421                	add	s0,s0,8
   107a2:	9782                	jalr	a5
   107a4:	ff24ece3          	bltu	s1,s2,1079c <__libc_init_array+0x52>
   107a8:	60e2                	ld	ra,24(sp)
   107aa:	6442                	ld	s0,16(sp)
   107ac:	64a2                	ld	s1,8(sp)
   107ae:	6902                	ld	s2,0(sp)
   107b0:	6105                	add	sp,sp,32
   107b2:	8082                	ret

00000000000107b4 <memset>:
   107b4:	433d                	li	t1,15
   107b6:	872a                	mv	a4,a0
   107b8:	02c37163          	bgeu	t1,a2,107da <memset+0x26>
   107bc:	00f77793          	and	a5,a4,15
   107c0:	e3c1                	bnez	a5,10840 <memset+0x8c>
   107c2:	e1bd                	bnez	a1,10828 <memset+0x74>
   107c4:	ff067693          	and	a3,a2,-16
   107c8:	8a3d                	and	a2,a2,15
   107ca:	96ba                	add	a3,a3,a4
   107cc:	e30c                	sd	a1,0(a4)
   107ce:	e70c                	sd	a1,8(a4)
   107d0:	0741                	add	a4,a4,16
   107d2:	fed76de3          	bltu	a4,a3,107cc <memset+0x18>
   107d6:	e211                	bnez	a2,107da <memset+0x26>
   107d8:	8082                	ret
   107da:	40c306b3          	sub	a3,t1,a2
   107de:	068a                	sll	a3,a3,0x2
   107e0:	00000297          	auipc	t0,0x0
   107e4:	9696                	add	a3,a3,t0
   107e6:	00a68067          	jr	10(a3)
   107ea:	00b70723          	sb	a1,14(a4)
   107ee:	00b706a3          	sb	a1,13(a4)
   107f2:	00b70623          	sb	a1,12(a4)
   107f6:	00b705a3          	sb	a1,11(a4)
   107fa:	00b70523          	sb	a1,10(a4)
   107fe:	00b704a3          	sb	a1,9(a4)
   10802:	00b70423          	sb	a1,8(a4)
   10806:	00b703a3          	sb	a1,7(a4)
   1080a:	00b70323          	sb	a1,6(a4)
   1080e:	00b702a3          	sb	a1,5(a4)
   10812:	00b70223          	sb	a1,4(a4)
   10816:	00b701a3          	sb	a1,3(a4)
   1081a:	00b70123          	sb	a1,2(a4)
   1081e:	00b700a3          	sb	a1,1(a4)
   10822:	00b70023          	sb	a1,0(a4)
   10826:	8082                	ret
   10828:	0ff5f593          	zext.b	a1,a1
   1082c:	00859693          	sll	a3,a1,0x8
   10830:	8dd5                	or	a1,a1,a3
   10832:	01059693          	sll	a3,a1,0x10
   10836:	8dd5                	or	a1,a1,a3
   10838:	02059693          	sll	a3,a1,0x20
   1083c:	8dd5                	or	a1,a1,a3
   1083e:	b759                	j	107c4 <memset+0x10>
   10840:	00279693          	sll	a3,a5,0x2
   10844:	00000297          	auipc	t0,0x0
   10848:	9696                	add	a3,a3,t0
   1084a:	8286                	mv	t0,ra
   1084c:	fa2680e7          	jalr	-94(a3)
   10850:	8096                	mv	ra,t0
   10852:	17c1                	add	a5,a5,-16
   10854:	8f1d                	sub	a4,a4,a5
   10856:	963e                	add	a2,a2,a5
   10858:	f8c371e3          	bgeu	t1,a2,107da <memset+0x26>
   1085c:	b79d                	j	107c2 <memset+0xe>

000000000001085e <__call_exitprocs>:
   1085e:	715d                	add	sp,sp,-80
   10860:	f052                	sd	s4,32(sp)
   10862:	24818a13          	add	s4,gp,584 # 1b480 <__atexit>
   10866:	f84a                	sd	s2,48(sp)
   10868:	000a3903          	ld	s2,0(s4)
   1086c:	e486                	sd	ra,72(sp)
   1086e:	06090d63          	beqz	s2,108e8 <__call_exitprocs+0x8a>
   10872:	f44e                	sd	s3,40(sp)
   10874:	ec56                	sd	s5,24(sp)
   10876:	e85a                	sd	s6,16(sp)
   10878:	e45e                	sd	s7,8(sp)
   1087a:	e0a2                	sd	s0,64(sp)
   1087c:	fc26                	sd	s1,56(sp)
   1087e:	e062                	sd	s8,0(sp)
   10880:	8b2a                	mv	s6,a0
   10882:	8bae                	mv	s7,a1
   10884:	59fd                	li	s3,-1
   10886:	4a85                	li	s5,1
   10888:	00892483          	lw	s1,8(s2)
   1088c:	fff4841b          	addw	s0,s1,-1
   10890:	04044563          	bltz	s0,108da <__call_exitprocs+0x7c>
   10894:	048e                	sll	s1,s1,0x3
   10896:	94ca                	add	s1,s1,s2
   10898:	040b9d63          	bnez	s7,108f2 <__call_exitprocs+0x94>
   1089c:	00892783          	lw	a5,8(s2)
   108a0:	6498                	ld	a4,8(s1)
   108a2:	37fd                	addw	a5,a5,-1
   108a4:	08878263          	beq	a5,s0,10928 <__call_exitprocs+0xca>
   108a8:	0004b423          	sd	zero,8(s1)
   108ac:	c31d                	beqz	a4,108d2 <__call_exitprocs+0x74>
   108ae:	31092783          	lw	a5,784(s2)
   108b2:	008a96bb          	sllw	a3,s5,s0
   108b6:	00892c03          	lw	s8,8(s2)
   108ba:	8ff5                	and	a5,a5,a3
   108bc:	2781                	sext.w	a5,a5
   108be:	e3b9                	bnez	a5,10904 <__call_exitprocs+0xa6>
   108c0:	9702                	jalr	a4
   108c2:	00892703          	lw	a4,8(s2)
   108c6:	000a3783          	ld	a5,0(s4)
   108ca:	05871c63          	bne	a4,s8,10922 <__call_exitprocs+0xc4>
   108ce:	05279a63          	bne	a5,s2,10922 <__call_exitprocs+0xc4>
   108d2:	347d                	addw	s0,s0,-1
   108d4:	14e1                	add	s1,s1,-8
   108d6:	fd3411e3          	bne	s0,s3,10898 <__call_exitprocs+0x3a>
   108da:	6406                	ld	s0,64(sp)
   108dc:	74e2                	ld	s1,56(sp)
   108de:	79a2                	ld	s3,40(sp)
   108e0:	6ae2                	ld	s5,24(sp)
   108e2:	6b42                	ld	s6,16(sp)
   108e4:	6ba2                	ld	s7,8(sp)
   108e6:	6c02                	ld	s8,0(sp)
   108e8:	60a6                	ld	ra,72(sp)
   108ea:	7942                	ld	s2,48(sp)
   108ec:	7a02                	ld	s4,32(sp)
   108ee:	6161                	add	sp,sp,80
   108f0:	8082                	ret
   108f2:	2084b783          	ld	a5,520(s1)
   108f6:	fb7783e3          	beq	a5,s7,1089c <__call_exitprocs+0x3e>
   108fa:	347d                	addw	s0,s0,-1
   108fc:	14e1                	add	s1,s1,-8
   108fe:	ff341ae3          	bne	s0,s3,108f2 <__call_exitprocs+0x94>
   10902:	bfe1                	j	108da <__call_exitprocs+0x7c>
   10904:	31492783          	lw	a5,788(s2)
   10908:	1084b583          	ld	a1,264(s1)
   1090c:	8ff5                	and	a5,a5,a3
   1090e:	2781                	sext.w	a5,a5
   10910:	ef99                	bnez	a5,1092e <__call_exitprocs+0xd0>
   10912:	855a                	mv	a0,s6
   10914:	9702                	jalr	a4
   10916:	00892703          	lw	a4,8(s2)
   1091a:	000a3783          	ld	a5,0(s4)
   1091e:	fb8708e3          	beq	a4,s8,108ce <__call_exitprocs+0x70>
   10922:	dfc5                	beqz	a5,108da <__call_exitprocs+0x7c>
   10924:	893e                	mv	s2,a5
   10926:	b78d                	j	10888 <__call_exitprocs+0x2a>
   10928:	00892423          	sw	s0,8(s2)
   1092c:	b741                	j	108ac <__call_exitprocs+0x4e>
   1092e:	852e                	mv	a0,a1
   10930:	9702                	jalr	a4
   10932:	bf41                	j	108c2 <__call_exitprocs+0x64>

0000000000010934 <atexit>:
   10934:	85aa                	mv	a1,a0
   10936:	4681                	li	a3,0
   10938:	4601                	li	a2,0
   1093a:	4501                	li	a0,0
   1093c:	3660406f          	j	14ca2 <__register_exitproc>

0000000000010940 <_malloc_trim_r>:
   10940:	7179                	add	sp,sp,-48
   10942:	f022                	sd	s0,32(sp)
   10944:	ec26                	sd	s1,24(sp)
   10946:	e84a                	sd	s2,16(sp)
   10948:	e44e                	sd	s3,8(sp)
   1094a:	e052                	sd	s4,0(sp)
   1094c:	89ae                	mv	s3,a1
   1094e:	f406                	sd	ra,40(sp)
   10950:	892a                	mv	s2,a0
   10952:	0000aa17          	auipc	s4,0xa
   10956:	0d6a0a13          	add	s4,s4,214 # 1aa28 <__malloc_av_>
   1095a:	10f000ef          	jal	11268 <__malloc_lock>
   1095e:	010a3703          	ld	a4,16(s4)
   10962:	6785                	lui	a5,0x1
   10964:	fdf78793          	add	a5,a5,-33 # fdf <exit-0xf109>
   10968:	6704                	ld	s1,8(a4)
   1096a:	6705                	lui	a4,0x1
   1096c:	98f1                	and	s1,s1,-4
   1096e:	00f48433          	add	s0,s1,a5
   10972:	41340433          	sub	s0,s0,s3
   10976:	8031                	srl	s0,s0,0xc
   10978:	147d                	add	s0,s0,-1
   1097a:	0432                	sll	s0,s0,0xc
   1097c:	00e44b63          	blt	s0,a4,10992 <_malloc_trim_r+0x52>
   10980:	4581                	li	a1,0
   10982:	854a                	mv	a0,s2
   10984:	65f030ef          	jal	147e2 <_sbrk_r>
   10988:	010a3783          	ld	a5,16(s4)
   1098c:	97a6                	add	a5,a5,s1
   1098e:	00f50e63          	beq	a0,a5,109aa <_malloc_trim_r+0x6a>
   10992:	854a                	mv	a0,s2
   10994:	0d7000ef          	jal	1126a <__malloc_unlock>
   10998:	70a2                	ld	ra,40(sp)
   1099a:	7402                	ld	s0,32(sp)
   1099c:	64e2                	ld	s1,24(sp)
   1099e:	6942                	ld	s2,16(sp)
   109a0:	69a2                	ld	s3,8(sp)
   109a2:	6a02                	ld	s4,0(sp)
   109a4:	4501                	li	a0,0
   109a6:	6145                	add	sp,sp,48
   109a8:	8082                	ret
   109aa:	408005b3          	neg	a1,s0
   109ae:	854a                	mv	a0,s2
   109b0:	633030ef          	jal	147e2 <_sbrk_r>
   109b4:	57fd                	li	a5,-1
   109b6:	02f50963          	beq	a0,a5,109e8 <_malloc_trim_r+0xa8>
   109ba:	4c018713          	add	a4,gp,1216 # 1b6f8 <__malloc_current_mallinfo>
   109be:	431c                	lw	a5,0(a4)
   109c0:	010a3683          	ld	a3,16(s4)
   109c4:	8c81                	sub	s1,s1,s0
   109c6:	0014e493          	or	s1,s1,1
   109ca:	9f81                	subw	a5,a5,s0
   109cc:	854a                	mv	a0,s2
   109ce:	e684                	sd	s1,8(a3)
   109d0:	c31c                	sw	a5,0(a4)
   109d2:	099000ef          	jal	1126a <__malloc_unlock>
   109d6:	70a2                	ld	ra,40(sp)
   109d8:	7402                	ld	s0,32(sp)
   109da:	64e2                	ld	s1,24(sp)
   109dc:	6942                	ld	s2,16(sp)
   109de:	69a2                	ld	s3,8(sp)
   109e0:	6a02                	ld	s4,0(sp)
   109e2:	4505                	li	a0,1
   109e4:	6145                	add	sp,sp,48
   109e6:	8082                	ret
   109e8:	4581                	li	a1,0
   109ea:	854a                	mv	a0,s2
   109ec:	5f7030ef          	jal	147e2 <_sbrk_r>
   109f0:	010a3703          	ld	a4,16(s4)
   109f4:	46fd                	li	a3,31
   109f6:	40e507b3          	sub	a5,a0,a4
   109fa:	f8f6dce3          	bge	a3,a5,10992 <_malloc_trim_r+0x52>
   109fe:	2281b683          	ld	a3,552(gp) # 1b460 <__malloc_sbrk_base>
   10a02:	8d15                	sub	a0,a0,a3
   10a04:	0017e793          	or	a5,a5,1
   10a08:	4ca1a023          	sw	a0,1216(gp) # 1b6f8 <__malloc_current_mallinfo>
   10a0c:	e71c                	sd	a5,8(a4)
   10a0e:	b751                	j	10992 <_malloc_trim_r+0x52>

0000000000010a10 <_free_r>:
   10a10:	12058363          	beqz	a1,10b36 <_free_r+0x126>
   10a14:	1101                	add	sp,sp,-32
   10a16:	e822                	sd	s0,16(sp)
   10a18:	e426                	sd	s1,8(sp)
   10a1a:	842e                	mv	s0,a1
   10a1c:	84aa                	mv	s1,a0
   10a1e:	ec06                	sd	ra,24(sp)
   10a20:	049000ef          	jal	11268 <__malloc_lock>
   10a24:	ff843583          	ld	a1,-8(s0)
   10a28:	ff040713          	add	a4,s0,-16
   10a2c:	0000a517          	auipc	a0,0xa
   10a30:	ffc50513          	add	a0,a0,-4 # 1aa28 <__malloc_av_>
   10a34:	ffe5f793          	and	a5,a1,-2
   10a38:	00f70633          	add	a2,a4,a5
   10a3c:	6614                	ld	a3,8(a2)
   10a3e:	01053803          	ld	a6,16(a0)
   10a42:	9af1                	and	a3,a3,-4
   10a44:	12c80b63          	beq	a6,a2,10b7a <_free_r+0x16a>
   10a48:	e614                	sd	a3,8(a2)
   10a4a:	8985                	and	a1,a1,1
   10a4c:	00d60833          	add	a6,a2,a3
   10a50:	e1c1                	bnez	a1,10ad0 <_free_r+0xc0>
   10a52:	ff043303          	ld	t1,-16(s0)
   10a56:	00883583          	ld	a1,8(a6)
   10a5a:	0000a897          	auipc	a7,0xa
   10a5e:	fde88893          	add	a7,a7,-34 # 1aa38 <__malloc_av_+0x10>
   10a62:	40670733          	sub	a4,a4,t1
   10a66:	01073803          	ld	a6,16(a4) # 1010 <exit-0xf0d8>
   10a6a:	979a                	add	a5,a5,t1
   10a6c:	8985                	and	a1,a1,1
   10a6e:	0f180a63          	beq	a6,a7,10b62 <_free_r+0x152>
   10a72:	01873303          	ld	t1,24(a4)
   10a76:	00683c23          	sd	t1,24(a6)
   10a7a:	01033823          	sd	a6,16(t1)
   10a7e:	12058763          	beqz	a1,10bac <_free_r+0x19c>
   10a82:	0017e693          	or	a3,a5,1
   10a86:	e714                	sd	a3,8(a4)
   10a88:	e21c                	sd	a5,0(a2)
   10a8a:	1ff00693          	li	a3,511
   10a8e:	04f6ee63          	bltu	a3,a5,10aea <_free_r+0xda>
   10a92:	838d                	srl	a5,a5,0x3
   10a94:	0017869b          	addw	a3,a5,1
   10a98:	0016969b          	sllw	a3,a3,0x1
   10a9c:	068e                	sll	a3,a3,0x3
   10a9e:	00853803          	ld	a6,8(a0)
   10aa2:	96aa                	add	a3,a3,a0
   10aa4:	628c                	ld	a1,0(a3)
   10aa6:	4027d61b          	sraw	a2,a5,0x2
   10aaa:	4785                	li	a5,1
   10aac:	00c797b3          	sll	a5,a5,a2
   10ab0:	0107e7b3          	or	a5,a5,a6
   10ab4:	ff068613          	add	a2,a3,-16
   10ab8:	ef10                	sd	a2,24(a4)
   10aba:	eb0c                	sd	a1,16(a4)
   10abc:	e51c                	sd	a5,8(a0)
   10abe:	e298                	sd	a4,0(a3)
   10ac0:	ed98                	sd	a4,24(a1)
   10ac2:	6442                	ld	s0,16(sp)
   10ac4:	60e2                	ld	ra,24(sp)
   10ac6:	8526                	mv	a0,s1
   10ac8:	64a2                	ld	s1,8(sp)
   10aca:	6105                	add	sp,sp,32
   10acc:	79e0006f          	j	1126a <__malloc_unlock>
   10ad0:	00883583          	ld	a1,8(a6)
   10ad4:	8985                	and	a1,a1,1
   10ad6:	c1ad                	beqz	a1,10b38 <_free_r+0x128>
   10ad8:	0017e693          	or	a3,a5,1
   10adc:	fed43c23          	sd	a3,-8(s0)
   10ae0:	e21c                	sd	a5,0(a2)
   10ae2:	1ff00693          	li	a3,511
   10ae6:	faf6f6e3          	bgeu	a3,a5,10a92 <_free_r+0x82>
   10aea:	0097d693          	srl	a3,a5,0x9
   10aee:	4611                	li	a2,4
   10af0:	0cd66063          	bltu	a2,a3,10bb0 <_free_r+0x1a0>
   10af4:	0067d693          	srl	a3,a5,0x6
   10af8:	0396859b          	addw	a1,a3,57
   10afc:	0015959b          	sllw	a1,a1,0x1
   10b00:	0386861b          	addw	a2,a3,56
   10b04:	058e                	sll	a1,a1,0x3
   10b06:	95aa                	add	a1,a1,a0
   10b08:	6194                	ld	a3,0(a1)
   10b0a:	15c1                	add	a1,a1,-16
   10b0c:	00d59663          	bne	a1,a3,10b18 <_free_r+0x108>
   10b10:	a0ed                	j	10bfa <_free_r+0x1ea>
   10b12:	6a94                	ld	a3,16(a3)
   10b14:	00d58663          	beq	a1,a3,10b20 <_free_r+0x110>
   10b18:	6690                	ld	a2,8(a3)
   10b1a:	9a71                	and	a2,a2,-4
   10b1c:	fec7ebe3          	bltu	a5,a2,10b12 <_free_r+0x102>
   10b20:	6e8c                	ld	a1,24(a3)
   10b22:	ef0c                	sd	a1,24(a4)
   10b24:	eb14                	sd	a3,16(a4)
   10b26:	6442                	ld	s0,16(sp)
   10b28:	60e2                	ld	ra,24(sp)
   10b2a:	e998                	sd	a4,16(a1)
   10b2c:	8526                	mv	a0,s1
   10b2e:	64a2                	ld	s1,8(sp)
   10b30:	ee98                	sd	a4,24(a3)
   10b32:	6105                	add	sp,sp,32
   10b34:	af1d                	j	1126a <__malloc_unlock>
   10b36:	8082                	ret
   10b38:	97b6                	add	a5,a5,a3
   10b3a:	0000a897          	auipc	a7,0xa
   10b3e:	efe88893          	add	a7,a7,-258 # 1aa38 <__malloc_av_+0x10>
   10b42:	6a14                	ld	a3,16(a2)
   10b44:	09168f63          	beq	a3,a7,10be2 <_free_r+0x1d2>
   10b48:	01863803          	ld	a6,24(a2)
   10b4c:	0017e593          	or	a1,a5,1
   10b50:	00f70633          	add	a2,a4,a5
   10b54:	0106bc23          	sd	a6,24(a3)
   10b58:	00d83823          	sd	a3,16(a6)
   10b5c:	e70c                	sd	a1,8(a4)
   10b5e:	e21c                	sd	a5,0(a2)
   10b60:	b72d                	j	10a8a <_free_r+0x7a>
   10b62:	e9e5                	bnez	a1,10c52 <_free_r+0x242>
   10b64:	6a0c                	ld	a1,16(a2)
   10b66:	6e10                	ld	a2,24(a2)
   10b68:	96be                	add	a3,a3,a5
   10b6a:	0016e793          	or	a5,a3,1
   10b6e:	ed90                	sd	a2,24(a1)
   10b70:	ea0c                	sd	a1,16(a2)
   10b72:	e71c                	sd	a5,8(a4)
   10b74:	9736                	add	a4,a4,a3
   10b76:	e314                	sd	a3,0(a4)
   10b78:	b7a9                	j	10ac2 <_free_r+0xb2>
   10b7a:	8985                	and	a1,a1,1
   10b7c:	96be                	add	a3,a3,a5
   10b7e:	e989                	bnez	a1,10b90 <_free_r+0x180>
   10b80:	ff043583          	ld	a1,-16(s0)
   10b84:	8f0d                	sub	a4,a4,a1
   10b86:	6f1c                	ld	a5,24(a4)
   10b88:	6b10                	ld	a2,16(a4)
   10b8a:	96ae                	add	a3,a3,a1
   10b8c:	ee1c                	sd	a5,24(a2)
   10b8e:	eb90                	sd	a2,16(a5)
   10b90:	0016e793          	or	a5,a3,1
   10b94:	e71c                	sd	a5,8(a4)
   10b96:	e918                	sd	a4,16(a0)
   10b98:	2301b783          	ld	a5,560(gp) # 1b468 <__malloc_trim_threshold>
   10b9c:	f2f6e3e3          	bltu	a3,a5,10ac2 <_free_r+0xb2>
   10ba0:	2601b583          	ld	a1,608(gp) # 1b498 <__malloc_top_pad>
   10ba4:	8526                	mv	a0,s1
   10ba6:	d9bff0ef          	jal	10940 <_malloc_trim_r>
   10baa:	bf21                	j	10ac2 <_free_r+0xb2>
   10bac:	97b6                	add	a5,a5,a3
   10bae:	bf51                	j	10b42 <_free_r+0x132>
   10bb0:	4651                	li	a2,20
   10bb2:	02d67063          	bgeu	a2,a3,10bd2 <_free_r+0x1c2>
   10bb6:	05400613          	li	a2,84
   10bba:	04d66b63          	bltu	a2,a3,10c10 <_free_r+0x200>
   10bbe:	00c7d693          	srl	a3,a5,0xc
   10bc2:	06f6859b          	addw	a1,a3,111
   10bc6:	0015959b          	sllw	a1,a1,0x1
   10bca:	06e6861b          	addw	a2,a3,110
   10bce:	058e                	sll	a1,a1,0x3
   10bd0:	bf1d                	j	10b06 <_free_r+0xf6>
   10bd2:	05c6859b          	addw	a1,a3,92
   10bd6:	0015959b          	sllw	a1,a1,0x1
   10bda:	05b6861b          	addw	a2,a3,91
   10bde:	058e                	sll	a1,a1,0x3
   10be0:	b71d                	j	10b06 <_free_r+0xf6>
   10be2:	f518                	sd	a4,40(a0)
   10be4:	f118                	sd	a4,32(a0)
   10be6:	0017e693          	or	a3,a5,1
   10bea:	01173c23          	sd	a7,24(a4)
   10bee:	01173823          	sd	a7,16(a4)
   10bf2:	e714                	sd	a3,8(a4)
   10bf4:	973e                	add	a4,a4,a5
   10bf6:	e31c                	sd	a5,0(a4)
   10bf8:	b5e9                	j	10ac2 <_free_r+0xb2>
   10bfa:	00853803          	ld	a6,8(a0)
   10bfe:	4026561b          	sraw	a2,a2,0x2
   10c02:	4785                	li	a5,1
   10c04:	00c797b3          	sll	a5,a5,a2
   10c08:	0107e7b3          	or	a5,a5,a6
   10c0c:	e51c                	sd	a5,8(a0)
   10c0e:	bf11                	j	10b22 <_free_r+0x112>
   10c10:	15400613          	li	a2,340
   10c14:	00d66c63          	bltu	a2,a3,10c2c <_free_r+0x21c>
   10c18:	00f7d693          	srl	a3,a5,0xf
   10c1c:	0786859b          	addw	a1,a3,120
   10c20:	0015959b          	sllw	a1,a1,0x1
   10c24:	0776861b          	addw	a2,a3,119
   10c28:	058e                	sll	a1,a1,0x3
   10c2a:	bdf1                	j	10b06 <_free_r+0xf6>
   10c2c:	55400613          	li	a2,1364
   10c30:	00d66c63          	bltu	a2,a3,10c48 <_free_r+0x238>
   10c34:	0127d693          	srl	a3,a5,0x12
   10c38:	07d6859b          	addw	a1,a3,125
   10c3c:	0015959b          	sllw	a1,a1,0x1
   10c40:	07c6861b          	addw	a2,a3,124
   10c44:	058e                	sll	a1,a1,0x3
   10c46:	b5c1                	j	10b06 <_free_r+0xf6>
   10c48:	7f000593          	li	a1,2032
   10c4c:	07e00613          	li	a2,126
   10c50:	bd5d                	j	10b06 <_free_r+0xf6>
   10c52:	0017e693          	or	a3,a5,1
   10c56:	e714                	sd	a3,8(a4)
   10c58:	e21c                	sd	a5,0(a2)
   10c5a:	b5a5                	j	10ac2 <_free_r+0xb2>

0000000000010c5c <_malloc_r>:
   10c5c:	711d                	add	sp,sp,-96
   10c5e:	e4a6                	sd	s1,72(sp)
   10c60:	e0ca                	sd	s2,64(sp)
   10c62:	ec86                	sd	ra,88(sp)
   10c64:	e8a2                	sd	s0,80(sp)
   10c66:	fc4e                	sd	s3,56(sp)
   10c68:	01758493          	add	s1,a1,23
   10c6c:	02e00793          	li	a5,46
   10c70:	892a                	mv	s2,a0
   10c72:	0497ee63          	bltu	a5,s1,10cce <_malloc_r+0x72>
   10c76:	02000793          	li	a5,32
   10c7a:	18b7ec63          	bltu	a5,a1,10e12 <_malloc_r+0x1b6>
   10c7e:	5ea000ef          	jal	11268 <__malloc_lock>
   10c82:	05000793          	li	a5,80
   10c86:	4591                	li	a1,4
   10c88:	02000493          	li	s1,32
   10c8c:	0000a997          	auipc	s3,0xa
   10c90:	d9c98993          	add	s3,s3,-612 # 1aa28 <__malloc_av_>
   10c94:	97ce                	add	a5,a5,s3
   10c96:	6780                	ld	s0,8(a5)
   10c98:	ff078713          	add	a4,a5,-16
   10c9c:	28e40163          	beq	s0,a4,10f1e <_malloc_r+0x2c2>
   10ca0:	641c                	ld	a5,8(s0)
   10ca2:	6c14                	ld	a3,24(s0)
   10ca4:	6810                	ld	a2,16(s0)
   10ca6:	9bf1                	and	a5,a5,-4
   10ca8:	97a2                	add	a5,a5,s0
   10caa:	6798                	ld	a4,8(a5)
   10cac:	ee14                	sd	a3,24(a2)
   10cae:	ea90                	sd	a2,16(a3)
   10cb0:	00176713          	or	a4,a4,1
   10cb4:	854a                	mv	a0,s2
   10cb6:	e798                	sd	a4,8(a5)
   10cb8:	5b2000ef          	jal	1126a <__malloc_unlock>
   10cbc:	01040513          	add	a0,s0,16
   10cc0:	60e6                	ld	ra,88(sp)
   10cc2:	6446                	ld	s0,80(sp)
   10cc4:	64a6                	ld	s1,72(sp)
   10cc6:	6906                	ld	s2,64(sp)
   10cc8:	79e2                	ld	s3,56(sp)
   10cca:	6125                	add	sp,sp,96
   10ccc:	8082                	ret
   10cce:	800007b7          	lui	a5,0x80000
   10cd2:	98c1                	and	s1,s1,-16
   10cd4:	fff7c793          	not	a5,a5
   10cd8:	1297ed63          	bltu	a5,s1,10e12 <_malloc_r+0x1b6>
   10cdc:	12b4eb63          	bltu	s1,a1,10e12 <_malloc_r+0x1b6>
   10ce0:	588000ef          	jal	11268 <__malloc_lock>
   10ce4:	1f700793          	li	a5,503
   10ce8:	3297f663          	bgeu	a5,s1,11014 <_malloc_r+0x3b8>
   10cec:	0094d793          	srl	a5,s1,0x9
   10cf0:	12078663          	beqz	a5,10e1c <_malloc_r+0x1c0>
   10cf4:	4711                	li	a4,4
   10cf6:	26f76b63          	bltu	a4,a5,10f6c <_malloc_r+0x310>
   10cfa:	0064d793          	srl	a5,s1,0x6
   10cfe:	0397859b          	addw	a1,a5,57 # ffffffff80000039 <__BSS_END__+0xffffffff7ffe4601>
   10d02:	0015961b          	sllw	a2,a1,0x1
   10d06:	0387881b          	addw	a6,a5,56
   10d0a:	060e                	sll	a2,a2,0x3
   10d0c:	0000a997          	auipc	s3,0xa
   10d10:	d1c98993          	add	s3,s3,-740 # 1aa28 <__malloc_av_>
   10d14:	964e                	add	a2,a2,s3
   10d16:	6600                	ld	s0,8(a2)
   10d18:	1641                	add	a2,a2,-16
   10d1a:	02860163          	beq	a2,s0,10d3c <_malloc_r+0xe0>
   10d1e:	457d                	li	a0,31
   10d20:	a039                	j	10d2e <_malloc_r+0xd2>
   10d22:	6c14                	ld	a3,24(s0)
   10d24:	1e075b63          	bgez	a4,10f1a <_malloc_r+0x2be>
   10d28:	00d60a63          	beq	a2,a3,10d3c <_malloc_r+0xe0>
   10d2c:	8436                	mv	s0,a3
   10d2e:	641c                	ld	a5,8(s0)
   10d30:	9bf1                	and	a5,a5,-4
   10d32:	40978733          	sub	a4,a5,s1
   10d36:	fee556e3          	bge	a0,a4,10d22 <_malloc_r+0xc6>
   10d3a:	85c2                	mv	a1,a6
   10d3c:	0209b403          	ld	s0,32(s3)
   10d40:	0000a897          	auipc	a7,0xa
   10d44:	cf888893          	add	a7,a7,-776 # 1aa38 <__malloc_av_+0x10>
   10d48:	1d140663          	beq	s0,a7,10f14 <_malloc_r+0x2b8>
   10d4c:	641c                	ld	a5,8(s0)
   10d4e:	46fd                	li	a3,31
   10d50:	9bf1                	and	a5,a5,-4
   10d52:	40978733          	sub	a4,a5,s1
   10d56:	28e6c863          	blt	a3,a4,10fe6 <_malloc_r+0x38a>
   10d5a:	0319b423          	sd	a7,40(s3)
   10d5e:	0319b023          	sd	a7,32(s3)
   10d62:	26075763          	bgez	a4,10fd0 <_malloc_r+0x374>
   10d66:	1ff00713          	li	a4,511
   10d6a:	0089b503          	ld	a0,8(s3)
   10d6e:	1af76d63          	bltu	a4,a5,10f28 <_malloc_r+0x2cc>
   10d72:	838d                	srl	a5,a5,0x3
   10d74:	0017871b          	addw	a4,a5,1
   10d78:	0017171b          	sllw	a4,a4,0x1
   10d7c:	070e                	sll	a4,a4,0x3
   10d7e:	974e                	add	a4,a4,s3
   10d80:	6310                	ld	a2,0(a4)
   10d82:	4027d79b          	sraw	a5,a5,0x2
   10d86:	4685                	li	a3,1
   10d88:	00f697b3          	sll	a5,a3,a5
   10d8c:	8d5d                	or	a0,a0,a5
   10d8e:	ff070793          	add	a5,a4,-16
   10d92:	ec1c                	sd	a5,24(s0)
   10d94:	e810                	sd	a2,16(s0)
   10d96:	00a9b423          	sd	a0,8(s3)
   10d9a:	e300                	sd	s0,0(a4)
   10d9c:	ee00                	sd	s0,24(a2)
   10d9e:	4025d79b          	sraw	a5,a1,0x2
   10da2:	4605                	li	a2,1
   10da4:	00f61633          	sll	a2,a2,a5
   10da8:	08c56163          	bltu	a0,a2,10e2a <_malloc_r+0x1ce>
   10dac:	00a677b3          	and	a5,a2,a0
   10db0:	ef81                	bnez	a5,10dc8 <_malloc_r+0x16c>
   10db2:	0606                	sll	a2,a2,0x1
   10db4:	99f1                	and	a1,a1,-4
   10db6:	00a677b3          	and	a5,a2,a0
   10dba:	2591                	addw	a1,a1,4
   10dbc:	e791                	bnez	a5,10dc8 <_malloc_r+0x16c>
   10dbe:	0606                	sll	a2,a2,0x1
   10dc0:	00a677b3          	and	a5,a2,a0
   10dc4:	2591                	addw	a1,a1,4
   10dc6:	dfe5                	beqz	a5,10dbe <_malloc_r+0x162>
   10dc8:	487d                	li	a6,31
   10dca:	0015831b          	addw	t1,a1,1
   10dce:	0013131b          	sllw	t1,t1,0x1
   10dd2:	030e                	sll	t1,t1,0x3
   10dd4:	1341                	add	t1,t1,-16
   10dd6:	934e                	add	t1,t1,s3
   10dd8:	851a                	mv	a0,t1
   10dda:	6d1c                	ld	a5,24(a0)
   10ddc:	8e2e                	mv	t3,a1
   10dde:	1af50863          	beq	a0,a5,10f8e <_malloc_r+0x332>
   10de2:	6798                	ld	a4,8(a5)
   10de4:	843e                	mv	s0,a5
   10de6:	6f9c                	ld	a5,24(a5)
   10de8:	9b71                	and	a4,a4,-4
   10dea:	409706b3          	sub	a3,a4,s1
   10dee:	1ad84763          	blt	a6,a3,10f9c <_malloc_r+0x340>
   10df2:	fe06c6e3          	bltz	a3,10dde <_malloc_r+0x182>
   10df6:	9722                	add	a4,a4,s0
   10df8:	6714                	ld	a3,8(a4)
   10dfa:	6810                	ld	a2,16(s0)
   10dfc:	854a                	mv	a0,s2
   10dfe:	0016e693          	or	a3,a3,1
   10e02:	e714                	sd	a3,8(a4)
   10e04:	ee1c                	sd	a5,24(a2)
   10e06:	eb90                	sd	a2,16(a5)
   10e08:	462000ef          	jal	1126a <__malloc_unlock>
   10e0c:	01040513          	add	a0,s0,16
   10e10:	bd45                	j	10cc0 <_malloc_r+0x64>
   10e12:	47b1                	li	a5,12
   10e14:	00f92023          	sw	a5,0(s2)
   10e18:	4501                	li	a0,0
   10e1a:	b55d                	j	10cc0 <_malloc_r+0x64>
   10e1c:	40000613          	li	a2,1024
   10e20:	04000593          	li	a1,64
   10e24:	03f00813          	li	a6,63
   10e28:	b5d5                	j	10d0c <_malloc_r+0xb0>
   10e2a:	0109b403          	ld	s0,16(s3)
   10e2e:	f456                	sd	s5,40(sp)
   10e30:	641c                	ld	a5,8(s0)
   10e32:	ffc7fa93          	and	s5,a5,-4
   10e36:	009ae763          	bltu	s5,s1,10e44 <_malloc_r+0x1e8>
   10e3a:	409a8733          	sub	a4,s5,s1
   10e3e:	47fd                	li	a5,31
   10e40:	0ae7c463          	blt	a5,a4,10ee8 <_malloc_r+0x28c>
   10e44:	e466                	sd	s9,8(sp)
   10e46:	22818c93          	add	s9,gp,552 # 1b460 <__malloc_sbrk_base>
   10e4a:	000cb703          	ld	a4,0(s9)
   10e4e:	f852                	sd	s4,48(sp)
   10e50:	ec5e                	sd	s7,24(sp)
   10e52:	2601ba03          	ld	s4,608(gp) # 1b498 <__malloc_top_pad>
   10e56:	f05a                	sd	s6,32(sp)
   10e58:	57fd                	li	a5,-1
   10e5a:	01540bb3          	add	s7,s0,s5
   10e5e:	9a26                	add	s4,s4,s1
   10e60:	2ef70863          	beq	a4,a5,11150 <_malloc_r+0x4f4>
   10e64:	6785                	lui	a5,0x1
   10e66:	07fd                	add	a5,a5,31 # 101f <exit-0xf0c9>
   10e68:	9a3e                	add	s4,s4,a5
   10e6a:	77fd                	lui	a5,0xfffff
   10e6c:	00fa7a33          	and	s4,s4,a5
   10e70:	85d2                	mv	a1,s4
   10e72:	854a                	mv	a0,s2
   10e74:	16f030ef          	jal	147e2 <_sbrk_r>
   10e78:	57fd                	li	a5,-1
   10e7a:	8b2a                	mv	s6,a0
   10e7c:	36f50063          	beq	a0,a5,111dc <_malloc_r+0x580>
   10e80:	e862                	sd	s8,16(sp)
   10e82:	1b756c63          	bltu	a0,s7,1103a <_malloc_r+0x3de>
   10e86:	4c018c13          	add	s8,gp,1216 # 1b6f8 <__malloc_current_mallinfo>
   10e8a:	000c2783          	lw	a5,0(s8)
   10e8e:	0147873b          	addw	a4,a5,s4
   10e92:	00ec2023          	sw	a4,0(s8)
   10e96:	86ba                	mv	a3,a4
   10e98:	20ab9763          	bne	s7,a0,110a6 <_malloc_r+0x44a>
   10e9c:	03451793          	sll	a5,a0,0x34
   10ea0:	20079363          	bnez	a5,110a6 <_malloc_r+0x44a>
   10ea4:	0109bb03          	ld	s6,16(s3)
   10ea8:	014a87b3          	add	a5,s5,s4
   10eac:	0017e793          	or	a5,a5,1
   10eb0:	00fb3423          	sd	a5,8(s6)
   10eb4:	25818693          	add	a3,gp,600 # 1b490 <__malloc_max_sbrked_mem>
   10eb8:	6290                	ld	a2,0(a3)
   10eba:	00e67363          	bgeu	a2,a4,10ec0 <_malloc_r+0x264>
   10ebe:	e298                	sd	a4,0(a3)
   10ec0:	25018693          	add	a3,gp,592 # 1b488 <__malloc_max_total_mem>
   10ec4:	6290                	ld	a2,0(a3)
   10ec6:	00e67363          	bgeu	a2,a4,10ecc <_malloc_r+0x270>
   10eca:	e298                	sd	a4,0(a3)
   10ecc:	6c42                	ld	s8,16(sp)
   10ece:	845a                	mv	s0,s6
   10ed0:	9bf1                	and	a5,a5,-4
   10ed2:	40978733          	sub	a4,a5,s1
   10ed6:	2a97ed63          	bltu	a5,s1,11190 <_malloc_r+0x534>
   10eda:	47fd                	li	a5,31
   10edc:	2ae7da63          	bge	a5,a4,11190 <_malloc_r+0x534>
   10ee0:	7a42                	ld	s4,48(sp)
   10ee2:	7b02                	ld	s6,32(sp)
   10ee4:	6be2                	ld	s7,24(sp)
   10ee6:	6ca2                	ld	s9,8(sp)
   10ee8:	0014e793          	or	a5,s1,1
   10eec:	e41c                	sd	a5,8(s0)
   10eee:	94a2                	add	s1,s1,s0
   10ef0:	0099b823          	sd	s1,16(s3)
   10ef4:	00176713          	or	a4,a4,1
   10ef8:	854a                	mv	a0,s2
   10efa:	e498                	sd	a4,8(s1)
   10efc:	36e000ef          	jal	1126a <__malloc_unlock>
   10f00:	60e6                	ld	ra,88(sp)
   10f02:	01040513          	add	a0,s0,16
   10f06:	6446                	ld	s0,80(sp)
   10f08:	7aa2                	ld	s5,40(sp)
   10f0a:	64a6                	ld	s1,72(sp)
   10f0c:	6906                	ld	s2,64(sp)
   10f0e:	79e2                	ld	s3,56(sp)
   10f10:	6125                	add	sp,sp,96
   10f12:	8082                	ret
   10f14:	0089b503          	ld	a0,8(s3)
   10f18:	b559                	j	10d9e <_malloc_r+0x142>
   10f1a:	6810                	ld	a2,16(s0)
   10f1c:	b371                	j	10ca8 <_malloc_r+0x4c>
   10f1e:	6f80                	ld	s0,24(a5)
   10f20:	2589                	addw	a1,a1,2
   10f22:	e0878de3          	beq	a5,s0,10d3c <_malloc_r+0xe0>
   10f26:	bbad                	j	10ca0 <_malloc_r+0x44>
   10f28:	0097d713          	srl	a4,a5,0x9
   10f2c:	4691                	li	a3,4
   10f2e:	0ee6fc63          	bgeu	a3,a4,11026 <_malloc_r+0x3ca>
   10f32:	46d1                	li	a3,20
   10f34:	26e6e863          	bltu	a3,a4,111a4 <_malloc_r+0x548>
   10f38:	05c7061b          	addw	a2,a4,92
   10f3c:	0016161b          	sllw	a2,a2,0x1
   10f40:	05b7069b          	addw	a3,a4,91
   10f44:	060e                	sll	a2,a2,0x3
   10f46:	964e                	add	a2,a2,s3
   10f48:	6218                	ld	a4,0(a2)
   10f4a:	1641                	add	a2,a2,-16
   10f4c:	00e61663          	bne	a2,a4,10f58 <_malloc_r+0x2fc>
   10f50:	a419                	j	11156 <_malloc_r+0x4fa>
   10f52:	6b18                	ld	a4,16(a4)
   10f54:	00e60663          	beq	a2,a4,10f60 <_malloc_r+0x304>
   10f58:	6714                	ld	a3,8(a4)
   10f5a:	9af1                	and	a3,a3,-4
   10f5c:	fed7ebe3          	bltu	a5,a3,10f52 <_malloc_r+0x2f6>
   10f60:	6f10                	ld	a2,24(a4)
   10f62:	ec10                	sd	a2,24(s0)
   10f64:	e818                	sd	a4,16(s0)
   10f66:	ea00                	sd	s0,16(a2)
   10f68:	ef00                	sd	s0,24(a4)
   10f6a:	bd15                	j	10d9e <_malloc_r+0x142>
   10f6c:	4751                	li	a4,20
   10f6e:	0cf77d63          	bgeu	a4,a5,11048 <_malloc_r+0x3ec>
   10f72:	05400713          	li	a4,84
   10f76:	24f76563          	bltu	a4,a5,111c0 <_malloc_r+0x564>
   10f7a:	00c4d793          	srl	a5,s1,0xc
   10f7e:	06f7859b          	addw	a1,a5,111 # fffffffffffff06f <__BSS_END__+0xfffffffffffe3637>
   10f82:	0015961b          	sllw	a2,a1,0x1
   10f86:	06e7881b          	addw	a6,a5,110
   10f8a:	060e                	sll	a2,a2,0x3
   10f8c:	b341                	j	10d0c <_malloc_r+0xb0>
   10f8e:	2e05                	addw	t3,t3,1
   10f90:	003e7793          	and	a5,t3,3
   10f94:	0541                	add	a0,a0,16
   10f96:	c7f1                	beqz	a5,11062 <_malloc_r+0x406>
   10f98:	6d1c                	ld	a5,24(a0)
   10f9a:	b591                	j	10dde <_malloc_r+0x182>
   10f9c:	6810                	ld	a2,16(s0)
   10f9e:	0014e593          	or	a1,s1,1
   10fa2:	e40c                	sd	a1,8(s0)
   10fa4:	ee1c                	sd	a5,24(a2)
   10fa6:	eb90                	sd	a2,16(a5)
   10fa8:	94a2                	add	s1,s1,s0
   10faa:	0299b423          	sd	s1,40(s3)
   10fae:	0299b023          	sd	s1,32(s3)
   10fb2:	0016e793          	or	a5,a3,1
   10fb6:	0114bc23          	sd	a7,24(s1)
   10fba:	0114b823          	sd	a7,16(s1)
   10fbe:	e49c                	sd	a5,8(s1)
   10fc0:	9722                	add	a4,a4,s0
   10fc2:	854a                	mv	a0,s2
   10fc4:	e314                	sd	a3,0(a4)
   10fc6:	2a4000ef          	jal	1126a <__malloc_unlock>
   10fca:	01040513          	add	a0,s0,16
   10fce:	b9cd                	j	10cc0 <_malloc_r+0x64>
   10fd0:	97a2                	add	a5,a5,s0
   10fd2:	6798                	ld	a4,8(a5)
   10fd4:	854a                	mv	a0,s2
   10fd6:	00176713          	or	a4,a4,1
   10fda:	e798                	sd	a4,8(a5)
   10fdc:	28e000ef          	jal	1126a <__malloc_unlock>
   10fe0:	01040513          	add	a0,s0,16
   10fe4:	b9f1                	j	10cc0 <_malloc_r+0x64>
   10fe6:	0014e693          	or	a3,s1,1
   10fea:	e414                	sd	a3,8(s0)
   10fec:	94a2                	add	s1,s1,s0
   10fee:	0299b423          	sd	s1,40(s3)
   10ff2:	0299b023          	sd	s1,32(s3)
   10ff6:	00176693          	or	a3,a4,1
   10ffa:	0114bc23          	sd	a7,24(s1)
   10ffe:	0114b823          	sd	a7,16(s1)
   11002:	e494                	sd	a3,8(s1)
   11004:	97a2                	add	a5,a5,s0
   11006:	854a                	mv	a0,s2
   11008:	e398                	sd	a4,0(a5)
   1100a:	260000ef          	jal	1126a <__malloc_unlock>
   1100e:	01040513          	add	a0,s0,16
   11012:	b17d                	j	10cc0 <_malloc_r+0x64>
   11014:	0034d593          	srl	a1,s1,0x3
   11018:	0015879b          	addw	a5,a1,1
   1101c:	0017979b          	sllw	a5,a5,0x1
   11020:	2581                	sext.w	a1,a1
   11022:	078e                	sll	a5,a5,0x3
   11024:	b1a5                	j	10c8c <_malloc_r+0x30>
   11026:	0067d713          	srl	a4,a5,0x6
   1102a:	0397061b          	addw	a2,a4,57
   1102e:	0016161b          	sllw	a2,a2,0x1
   11032:	0387069b          	addw	a3,a4,56
   11036:	060e                	sll	a2,a2,0x3
   11038:	b739                	j	10f46 <_malloc_r+0x2ea>
   1103a:	05340e63          	beq	s0,s3,11096 <_malloc_r+0x43a>
   1103e:	0109b403          	ld	s0,16(s3)
   11042:	6c42                	ld	s8,16(sp)
   11044:	641c                	ld	a5,8(s0)
   11046:	b569                	j	10ed0 <_malloc_r+0x274>
   11048:	05c7859b          	addw	a1,a5,92
   1104c:	0015961b          	sllw	a2,a1,0x1
   11050:	05b7881b          	addw	a6,a5,91
   11054:	060e                	sll	a2,a2,0x3
   11056:	b95d                	j	10d0c <_malloc_r+0xb0>
   11058:	01033783          	ld	a5,16(t1)
   1105c:	35fd                	addw	a1,a1,-1
   1105e:	20679263          	bne	a5,t1,11262 <_malloc_r+0x606>
   11062:	0035f793          	and	a5,a1,3
   11066:	1341                	add	t1,t1,-16
   11068:	fbe5                	bnez	a5,11058 <_malloc_r+0x3fc>
   1106a:	0089b703          	ld	a4,8(s3)
   1106e:	fff64793          	not	a5,a2
   11072:	8ff9                	and	a5,a5,a4
   11074:	00f9b423          	sd	a5,8(s3)
   11078:	0606                	sll	a2,a2,0x1
   1107a:	dac7e8e3          	bltu	a5,a2,10e2a <_malloc_r+0x1ce>
   1107e:	da0606e3          	beqz	a2,10e2a <_malloc_r+0x1ce>
   11082:	00f67733          	and	a4,a2,a5
   11086:	e711                	bnez	a4,11092 <_malloc_r+0x436>
   11088:	0606                	sll	a2,a2,0x1
   1108a:	00f67733          	and	a4,a2,a5
   1108e:	2e11                	addw	t3,t3,4
   11090:	df65                	beqz	a4,11088 <_malloc_r+0x42c>
   11092:	85f2                	mv	a1,t3
   11094:	bb1d                	j	10dca <_malloc_r+0x16e>
   11096:	4c018c13          	add	s8,gp,1216 # 1b6f8 <__malloc_current_mallinfo>
   1109a:	000c2783          	lw	a5,0(s8)
   1109e:	014786bb          	addw	a3,a5,s4
   110a2:	00dc2023          	sw	a3,0(s8)
   110a6:	000cb703          	ld	a4,0(s9)
   110aa:	57fd                	li	a5,-1
   110ac:	12f70c63          	beq	a4,a5,111e4 <_malloc_r+0x588>
   110b0:	417b07b3          	sub	a5,s6,s7
   110b4:	9fb5                	addw	a5,a5,a3
   110b6:	00fc2023          	sw	a5,0(s8)
   110ba:	00fb7c93          	and	s9,s6,15
   110be:	0a0c8563          	beqz	s9,11168 <_malloc_r+0x50c>
   110c2:	419b0b33          	sub	s6,s6,s9
   110c6:	6705                	lui	a4,0x1
   110c8:	0741                	add	a4,a4,16 # 1010 <exit-0xf0d8>
   110ca:	0b41                	add	s6,s6,16
   110cc:	41970bb3          	sub	s7,a4,s9
   110d0:	9a5a                	add	s4,s4,s6
   110d2:	414b8bb3          	sub	s7,s7,s4
   110d6:	1bd2                	sll	s7,s7,0x34
   110d8:	034bdb93          	srl	s7,s7,0x34
   110dc:	85de                	mv	a1,s7
   110de:	854a                	mv	a0,s2
   110e0:	702030ef          	jal	147e2 <_sbrk_r>
   110e4:	57fd                	li	a5,-1
   110e6:	12f50e63          	beq	a0,a5,11222 <_malloc_r+0x5c6>
   110ea:	41650533          	sub	a0,a0,s6
   110ee:	000b869b          	sext.w	a3,s7
   110f2:	01750a33          	add	s4,a0,s7
   110f6:	000c2703          	lw	a4,0(s8)
   110fa:	0169b823          	sd	s6,16(s3)
   110fe:	001a6793          	or	a5,s4,1
   11102:	9f35                	addw	a4,a4,a3
   11104:	00ec2023          	sw	a4,0(s8)
   11108:	00fb3423          	sd	a5,8(s6)
   1110c:	db3404e3          	beq	s0,s3,10eb4 <_malloc_r+0x258>
   11110:	467d                	li	a2,31
   11112:	07567b63          	bgeu	a2,s5,11188 <_malloc_r+0x52c>
   11116:	6414                	ld	a3,8(s0)
   11118:	fe8a8793          	add	a5,s5,-24
   1111c:	9bc1                	and	a5,a5,-16
   1111e:	8a85                	and	a3,a3,1
   11120:	8edd                	or	a3,a3,a5
   11122:	e414                	sd	a3,8(s0)
   11124:	45a5                	li	a1,9
   11126:	00f406b3          	add	a3,s0,a5
   1112a:	e68c                	sd	a1,8(a3)
   1112c:	ea8c                	sd	a1,16(a3)
   1112e:	00f66563          	bltu	a2,a5,11138 <_malloc_r+0x4dc>
   11132:	008b3783          	ld	a5,8(s6)
   11136:	bbbd                	j	10eb4 <_malloc_r+0x258>
   11138:	01040593          	add	a1,s0,16
   1113c:	854a                	mv	a0,s2
   1113e:	8d3ff0ef          	jal	10a10 <_free_r>
   11142:	0109bb03          	ld	s6,16(s3)
   11146:	000c2703          	lw	a4,0(s8)
   1114a:	008b3783          	ld	a5,8(s6)
   1114e:	b39d                	j	10eb4 <_malloc_r+0x258>
   11150:	020a0a13          	add	s4,s4,32
   11154:	bb31                	j	10e70 <_malloc_r+0x214>
   11156:	4026d69b          	sraw	a3,a3,0x2
   1115a:	4785                	li	a5,1
   1115c:	00d797b3          	sll	a5,a5,a3
   11160:	8d5d                	or	a0,a0,a5
   11162:	00a9b423          	sd	a0,8(s3)
   11166:	bbf5                	j	10f62 <_malloc_r+0x306>
   11168:	014b0bb3          	add	s7,s6,s4
   1116c:	41700bb3          	neg	s7,s7
   11170:	1bd2                	sll	s7,s7,0x34
   11172:	034bdb93          	srl	s7,s7,0x34
   11176:	85de                	mv	a1,s7
   11178:	854a                	mv	a0,s2
   1117a:	668030ef          	jal	147e2 <_sbrk_r>
   1117e:	57fd                	li	a5,-1
   11180:	4681                	li	a3,0
   11182:	f6f514e3          	bne	a0,a5,110ea <_malloc_r+0x48e>
   11186:	bf85                	j	110f6 <_malloc_r+0x49a>
   11188:	6c42                	ld	s8,16(sp)
   1118a:	4785                	li	a5,1
   1118c:	00fb3423          	sd	a5,8(s6)
   11190:	854a                	mv	a0,s2
   11192:	0d8000ef          	jal	1126a <__malloc_unlock>
   11196:	4501                	li	a0,0
   11198:	7a42                	ld	s4,48(sp)
   1119a:	7aa2                	ld	s5,40(sp)
   1119c:	7b02                	ld	s6,32(sp)
   1119e:	6be2                	ld	s7,24(sp)
   111a0:	6ca2                	ld	s9,8(sp)
   111a2:	be39                	j	10cc0 <_malloc_r+0x64>
   111a4:	05400693          	li	a3,84
   111a8:	04e6e163          	bltu	a3,a4,111ea <_malloc_r+0x58e>
   111ac:	00c7d713          	srl	a4,a5,0xc
   111b0:	06f7061b          	addw	a2,a4,111
   111b4:	0016161b          	sllw	a2,a2,0x1
   111b8:	06e7069b          	addw	a3,a4,110
   111bc:	060e                	sll	a2,a2,0x3
   111be:	b361                	j	10f46 <_malloc_r+0x2ea>
   111c0:	15400713          	li	a4,340
   111c4:	04f76163          	bltu	a4,a5,11206 <_malloc_r+0x5aa>
   111c8:	00f4d793          	srl	a5,s1,0xf
   111cc:	0787859b          	addw	a1,a5,120
   111d0:	0015961b          	sllw	a2,a1,0x1
   111d4:	0777881b          	addw	a6,a5,119
   111d8:	060e                	sll	a2,a2,0x3
   111da:	be0d                	j	10d0c <_malloc_r+0xb0>
   111dc:	0109b403          	ld	s0,16(s3)
   111e0:	641c                	ld	a5,8(s0)
   111e2:	b1fd                	j	10ed0 <_malloc_r+0x274>
   111e4:	016cb023          	sd	s6,0(s9)
   111e8:	bdc9                	j	110ba <_malloc_r+0x45e>
   111ea:	15400693          	li	a3,340
   111ee:	04e6e063          	bltu	a3,a4,1122e <_malloc_r+0x5d2>
   111f2:	00f7d713          	srl	a4,a5,0xf
   111f6:	0787061b          	addw	a2,a4,120
   111fa:	0016161b          	sllw	a2,a2,0x1
   111fe:	0777069b          	addw	a3,a4,119
   11202:	060e                	sll	a2,a2,0x3
   11204:	b389                	j	10f46 <_malloc_r+0x2ea>
   11206:	55400713          	li	a4,1364
   1120a:	04f76063          	bltu	a4,a5,1124a <_malloc_r+0x5ee>
   1120e:	0124d793          	srl	a5,s1,0x12
   11212:	07d7859b          	addw	a1,a5,125
   11216:	0015961b          	sllw	a2,a1,0x1
   1121a:	07c7881b          	addw	a6,a5,124
   1121e:	060e                	sll	a2,a2,0x3
   11220:	b4f5                	j	10d0c <_malloc_r+0xb0>
   11222:	1cc1                	add	s9,s9,-16
   11224:	9a66                	add	s4,s4,s9
   11226:	416a0a33          	sub	s4,s4,s6
   1122a:	4681                	li	a3,0
   1122c:	b5e9                	j	110f6 <_malloc_r+0x49a>
   1122e:	55400693          	li	a3,1364
   11232:	02e6e363          	bltu	a3,a4,11258 <_malloc_r+0x5fc>
   11236:	0127d713          	srl	a4,a5,0x12
   1123a:	07d7061b          	addw	a2,a4,125
   1123e:	0016161b          	sllw	a2,a2,0x1
   11242:	07c7069b          	addw	a3,a4,124
   11246:	060e                	sll	a2,a2,0x3
   11248:	b9fd                	j	10f46 <_malloc_r+0x2ea>
   1124a:	7f000613          	li	a2,2032
   1124e:	07f00593          	li	a1,127
   11252:	07e00813          	li	a6,126
   11256:	bc5d                	j	10d0c <_malloc_r+0xb0>
   11258:	7f000613          	li	a2,2032
   1125c:	07e00693          	li	a3,126
   11260:	b1dd                	j	10f46 <_malloc_r+0x2ea>
   11262:	0089b783          	ld	a5,8(s3)
   11266:	bd09                	j	11078 <_malloc_r+0x41c>

0000000000011268 <__malloc_lock>:
   11268:	8082                	ret

000000000001126a <__malloc_unlock>:
   1126a:	8082                	ret

000000000001126c <_vfprintf_r>:
   1126c:	db010113          	add	sp,sp,-592
   11270:	24113423          	sd	ra,584(sp)
   11274:	24813023          	sd	s0,576(sp)
   11278:	22913c23          	sd	s1,568(sp)
   1127c:	21713423          	sd	s7,520(sp)
   11280:	84ae                	mv	s1,a1
   11282:	8bb2                	mv	s7,a2
   11284:	f036                	sd	a3,32(sp)
   11286:	842a                	mv	s0,a0
   11288:	e42a                	sd	a0,8(sp)
   1128a:	54c030ef          	jal	147d6 <_localeconv_r>
   1128e:	611c                	ld	a5,0(a0)
   11290:	853e                	mv	a0,a5
   11292:	e8be                	sd	a5,80(sp)
   11294:	7ce030ef          	jal	14a62 <strlen>
   11298:	e4aa                	sd	a0,72(sp)
   1129a:	e982                	sd	zero,208(sp)
   1129c:	ed82                	sd	zero,216(sp)
   1129e:	c409                	beqz	s0,112a8 <_vfprintf_r+0x3c>
   112a0:	6438                	ld	a4,72(s0)
   112a2:	e319                	bnez	a4,112a8 <_vfprintf_r+0x3c>
   112a4:	2ce0106f          	j	12572 <_vfprintf_r+0x1306>
   112a8:	01049703          	lh	a4,16(s1)
   112ac:	03271693          	sll	a3,a4,0x32
   112b0:	0206c163          	bltz	a3,112d2 <_vfprintf_r+0x66>
   112b4:	0ac4a683          	lw	a3,172(s1)
   112b8:	6589                	lui	a1,0x2
   112ba:	7679                	lui	a2,0xffffe
   112bc:	8f4d                	or	a4,a4,a1
   112be:	167d                	add	a2,a2,-1 # ffffffffffffdfff <__BSS_END__+0xfffffffffffe25c7>
   112c0:	0107171b          	sllw	a4,a4,0x10
   112c4:	4107571b          	sraw	a4,a4,0x10
   112c8:	8ef1                	and	a3,a3,a2
   112ca:	00e49823          	sh	a4,16(s1)
   112ce:	0ad4a623          	sw	a3,172(s1)
   112d2:	00877693          	and	a3,a4,8
   112d6:	26068163          	beqz	a3,11538 <_vfprintf_r+0x2cc>
   112da:	6c94                	ld	a3,24(s1)
   112dc:	24068e63          	beqz	a3,11538 <_vfprintf_r+0x2cc>
   112e0:	8b69                	and	a4,a4,26
   112e2:	46a9                	li	a3,10
   112e4:	26d70763          	beq	a4,a3,11552 <_vfprintf_r+0x2e6>
   112e8:	23213823          	sd	s2,560(sp)
   112ec:	23313423          	sd	s3,552(sp)
   112f0:	f7ee                	sd	s11,488(sp)
   112f2:	23413023          	sd	s4,544(sp)
   112f6:	21513c23          	sd	s5,536(sp)
   112fa:	21613823          	sd	s6,528(sp)
   112fe:	21813023          	sd	s8,512(sp)
   11302:	ffe6                	sd	s9,504(sp)
   11304:	fbea                	sd	s10,496(sp)
   11306:	8dde                	mv	s11,s7
   11308:	000dc703          	lbu	a4,0(s11)
   1130c:	16010993          	add	s3,sp,352
   11310:	f1ce                	sd	s3,224(sp)
   11312:	f982                	sd	zero,240(sp)
   11314:	d582                	sw	zero,232(sp)
   11316:	f802                	sd	zero,48(sp)
   11318:	ec82                	sd	zero,88(sp)
   1131a:	f482                	sd	zero,104(sp)
   1131c:	fc82                	sd	zero,120(sp)
   1131e:	e102                	sd	zero,128(sp)
   11320:	f882                	sd	zero,112(sp)
   11322:	e802                	sd	zero,16(sp)
   11324:	4441                	li	s0,16
   11326:	894e                	mv	s2,s3
   11328:	1a070c63          	beqz	a4,114e0 <_vfprintf_r+0x274>
   1132c:	8aee                	mv	s5,s11
   1132e:	02500693          	li	a3,37
   11332:	2ed70a63          	beq	a4,a3,11626 <_vfprintf_r+0x3ba>
   11336:	001ac703          	lbu	a4,1(s5)
   1133a:	0a85                	add	s5,s5,1
   1133c:	fb7d                	bnez	a4,11332 <_vfprintf_r+0xc6>
   1133e:	41ba8a3b          	subw	s4,s5,s11
   11342:	180a0f63          	beqz	s4,114e0 <_vfprintf_r+0x274>
   11346:	572e                	lw	a4,232(sp)
   11348:	76ce                	ld	a3,240(sp)
   1134a:	01b93023          	sd	s11,0(s2)
   1134e:	2705                	addw	a4,a4,1
   11350:	96d2                	add	a3,a3,s4
   11352:	01493423          	sd	s4,8(s2)
   11356:	f9b6                	sd	a3,240(sp)
   11358:	d5ba                	sw	a4,232(sp)
   1135a:	0007069b          	sext.w	a3,a4
   1135e:	471d                	li	a4,7
   11360:	0941                	add	s2,s2,16
   11362:	2cd74963          	blt	a4,a3,11634 <_vfprintf_r+0x3c8>
   11366:	67c2                	ld	a5,16(sp)
   11368:	000ac703          	lbu	a4,0(s5)
   1136c:	014787bb          	addw	a5,a5,s4
   11370:	e83e                	sd	a5,16(sp)
   11372:	16070763          	beqz	a4,114e0 <_vfprintf_r+0x274>
   11376:	001ac303          	lbu	t1,1(s5)
   1137a:	0a0107a3          	sb	zero,175(sp)
   1137e:	0a85                	add	s5,s5,1
   11380:	5b7d                	li	s6,-1
   11382:	4c01                	li	s8,0
   11384:	4d01                	li	s10,0
   11386:	05a00a13          	li	s4,90
   1138a:	0a85                	add	s5,s5,1
   1138c:	2301                	sext.w	t1,t1
   1138e:	fe03079b          	addw	a5,t1,-32
   11392:	0007871b          	sext.w	a4,a5
   11396:	04ea6963          	bltu	s4,a4,113e8 <_vfprintf_r+0x17c>
   1139a:	02079713          	sll	a4,a5,0x20
   1139e:	01e75793          	srl	a5,a4,0x1e
   113a2:	00008717          	auipc	a4,0x8
   113a6:	e2e70713          	add	a4,a4,-466 # 191d0 <__clzdi2+0x1ac>
   113aa:	97ba                	add	a5,a5,a4
   113ac:	439c                	lw	a5,0(a5)
   113ae:	97ba                	add	a5,a5,a4
   113b0:	8782                	jr	a5
   113b2:	4c01                	li	s8,0
   113b4:	46a5                	li	a3,9
   113b6:	000ac703          	lbu	a4,0(s5)
   113ba:	002c179b          	sllw	a5,s8,0x2
   113be:	01878c3b          	addw	s8,a5,s8
   113c2:	fd03031b          	addw	t1,t1,-48
   113c6:	001c1c1b          	sllw	s8,s8,0x1
   113ca:	fd07079b          	addw	a5,a4,-48
   113ce:	01830c3b          	addw	s8,t1,s8
   113d2:	0a85                	add	s5,s5,1
   113d4:	0007031b          	sext.w	t1,a4
   113d8:	fcf6ffe3          	bgeu	a3,a5,113b6 <_vfprintf_r+0x14a>
   113dc:	fe03079b          	addw	a5,t1,-32
   113e0:	0007871b          	sext.w	a4,a5
   113e4:	faea7be3          	bgeu	s4,a4,1139a <_vfprintf_r+0x12e>
   113e8:	0e030c63          	beqz	t1,114e0 <_vfprintf_r+0x274>
   113ec:	0e610c23          	sb	t1,248(sp)
   113f0:	0a0107a3          	sb	zero,175(sp)
   113f4:	4b85                	li	s7,1
   113f6:	4685                	li	a3,1
   113f8:	0f810d93          	add	s11,sp,248
   113fc:	ec02                	sd	zero,24(sp)
   113fe:	4b01                	li	s6,0
   11400:	e082                	sd	zero,64(sp)
   11402:	fc02                	sd	zero,56(sp)
   11404:	f402                	sd	zero,40(sp)
   11406:	002d7293          	and	t0,s10,2
   1140a:	00028363          	beqz	t0,11410 <_vfprintf_r+0x1a4>
   1140e:	2b89                	addw	s7,s7,2
   11410:	084d7f93          	and	t6,s10,132
   11414:	7a4e                	ld	s4,240(sp)
   11416:	000f9663          	bnez	t6,11422 <_vfprintf_r+0x1b6>
   1141a:	417c073b          	subw	a4,s8,s7
   1141e:	34e040e3          	bgtz	a4,11f5e <_vfprintf_r+0xcf2>
   11422:	0af14703          	lbu	a4,175(sp)
   11426:	c31d                	beqz	a4,1144c <_vfprintf_r+0x1e0>
   11428:	572e                	lw	a4,232(sp)
   1142a:	0af10613          	add	a2,sp,175
   1142e:	00c93023          	sd	a2,0(s2)
   11432:	2705                	addw	a4,a4,1
   11434:	4605                	li	a2,1
   11436:	0a05                	add	s4,s4,1
   11438:	00c93423          	sd	a2,8(s2)
   1143c:	d5ba                	sw	a4,232(sp)
   1143e:	0007061b          	sext.w	a2,a4
   11442:	f9d2                	sd	s4,240(sp)
   11444:	471d                	li	a4,7
   11446:	0941                	add	s2,s2,16
   11448:	50c74b63          	blt	a4,a2,1195e <_vfprintf_r+0x6f2>
   1144c:	02028363          	beqz	t0,11472 <_vfprintf_r+0x206>
   11450:	572e                	lw	a4,232(sp)
   11452:	4609                	li	a2,2
   11454:	0a09                	add	s4,s4,2
   11456:	2705                	addw	a4,a4,1
   11458:	191c                	add	a5,sp,176
   1145a:	00c93423          	sd	a2,8(s2)
   1145e:	00f93023          	sd	a5,0(s2)
   11462:	0007061b          	sext.w	a2,a4
   11466:	d5ba                	sw	a4,232(sp)
   11468:	f9d2                	sd	s4,240(sp)
   1146a:	471d                	li	a4,7
   1146c:	0941                	add	s2,s2,16
   1146e:	3ac742e3          	blt	a4,a2,12012 <_vfprintf_r+0xda6>
   11472:	08000713          	li	a4,128
   11476:	16ef80e3          	beq	t6,a4,11dd6 <_vfprintf_r+0xb6a>
   1147a:	40db0b3b          	subw	s6,s6,a3
   1147e:	216041e3          	bgtz	s6,11e80 <_vfprintf_r+0xc14>
   11482:	100d7713          	and	a4,s10,256
   11486:	04071ce3          	bnez	a4,11cde <_vfprintf_r+0xa72>
   1148a:	572e                	lw	a4,232(sp)
   1148c:	9a36                	add	s4,s4,a3
   1148e:	01b93023          	sd	s11,0(s2)
   11492:	2705                	addw	a4,a4,1
   11494:	00d93423          	sd	a3,8(s2)
   11498:	f9d2                	sd	s4,240(sp)
   1149a:	d5ba                	sw	a4,232(sp)
   1149c:	479d                	li	a5,7
   1149e:	56e7ce63          	blt	a5,a4,11a1a <_vfprintf_r+0x7ae>
   114a2:	0941                	add	s2,s2,16
   114a4:	004d7e13          	and	t3,s10,4
   114a8:	000e0663          	beqz	t3,114b4 <_vfprintf_r+0x248>
   114ac:	417c0b3b          	subw	s6,s8,s7
   114b0:	396042e3          	bgtz	s6,12034 <_vfprintf_r+0xdc8>
   114b4:	87e2                	mv	a5,s8
   114b6:	017c5363          	bge	s8,s7,114bc <_vfprintf_r+0x250>
   114ba:	87de                	mv	a5,s7
   114bc:	6742                	ld	a4,16(sp)
   114be:	9fb9                	addw	a5,a5,a4
   114c0:	e83e                	sd	a5,16(sp)
   114c2:	240a1ee3          	bnez	s4,11f1e <_vfprintf_r+0xcb2>
   114c6:	67e2                	ld	a5,24(sp)
   114c8:	d582                	sw	zero,232(sp)
   114ca:	c789                	beqz	a5,114d4 <_vfprintf_r+0x268>
   114cc:	65e2                	ld	a1,24(sp)
   114ce:	6522                	ld	a0,8(sp)
   114d0:	d40ff0ef          	jal	10a10 <_free_r>
   114d4:	894e                	mv	s2,s3
   114d6:	8dd6                	mv	s11,s5
   114d8:	000dc703          	lbu	a4,0(s11)
   114dc:	e40718e3          	bnez	a4,1132c <_vfprintf_r+0xc0>
   114e0:	77ce                	ld	a5,240(sp)
   114e2:	c399                	beqz	a5,114e8 <_vfprintf_r+0x27c>
   114e4:	47c0106f          	j	12960 <_vfprintf_r+0x16f4>
   114e8:	0104d783          	lhu	a5,16(s1)
   114ec:	23013903          	ld	s2,560(sp)
   114f0:	22813983          	ld	s3,552(sp)
   114f4:	0407f793          	and	a5,a5,64
   114f8:	22013a03          	ld	s4,544(sp)
   114fc:	21813a83          	ld	s5,536(sp)
   11500:	21013b03          	ld	s6,528(sp)
   11504:	20013c03          	ld	s8,512(sp)
   11508:	7cfe                	ld	s9,504(sp)
   1150a:	7d5e                	ld	s10,496(sp)
   1150c:	7dbe                	ld	s11,488(sp)
   1150e:	c399                	beqz	a5,11514 <_vfprintf_r+0x2a8>
   11510:	77e0106f          	j	12c8e <_vfprintf_r+0x1a22>
   11514:	24813083          	ld	ra,584(sp)
   11518:	24013403          	ld	s0,576(sp)
   1151c:	6542                	ld	a0,16(sp)
   1151e:	23813483          	ld	s1,568(sp)
   11522:	20813b83          	ld	s7,520(sp)
   11526:	25010113          	add	sp,sp,592
   1152a:	8082                	ret
   1152c:	010d6d13          	or	s10,s10,16
   11530:	000ac303          	lbu	t1,0(s5)
   11534:	2d01                	sext.w	s10,s10
   11536:	bd91                	j	1138a <_vfprintf_r+0x11e>
   11538:	6522                	ld	a0,8(sp)
   1153a:	85a6                	mv	a1,s1
   1153c:	6ad020ef          	jal	143e8 <__swsetup_r>
   11540:	c119                	beqz	a0,11546 <_vfprintf_r+0x2da>
   11542:	74c0106f          	j	12c8e <_vfprintf_r+0x1a22>
   11546:	01049703          	lh	a4,16(s1)
   1154a:	46a9                	li	a3,10
   1154c:	8b69                	and	a4,a4,26
   1154e:	d8d71de3          	bne	a4,a3,112e8 <_vfprintf_r+0x7c>
   11552:	01249703          	lh	a4,18(s1)
   11556:	d80749e3          	bltz	a4,112e8 <_vfprintf_r+0x7c>
   1155a:	7682                	ld	a3,32(sp)
   1155c:	6522                	ld	a0,8(sp)
   1155e:	865e                	mv	a2,s7
   11560:	85a6                	mv	a1,s1
   11562:	133010ef          	jal	12e94 <__sbprintf>
   11566:	e82a                	sd	a0,16(sp)
   11568:	b775                	j	11514 <_vfprintf_r+0x2a8>
   1156a:	010d6e13          	or	t3,s10,16
   1156e:	000e0d1b          	sext.w	s10,t3
   11572:	7682                	ld	a3,32(sp)
   11574:	020d7793          	and	a5,s10,32
   11578:	00868713          	add	a4,a3,8
   1157c:	4c078863          	beqz	a5,11a4c <_vfprintf_r+0x7e0>
   11580:	629c                	ld	a5,0(a3)
   11582:	8a3e                	mv	s4,a5
   11584:	4e07c663          	bltz	a5,11a70 <_vfprintf_r+0x804>
   11588:	540b4ce3          	bltz	s6,122e0 <_vfprintf_r+0x1074>
   1158c:	f7fd7b93          	and	s7,s10,-129
   11590:	2b81                	sext.w	s7,s7
   11592:	000a0463          	beqz	s4,1159a <_vfprintf_r+0x32e>
   11596:	0220106f          	j	125b8 <_vfprintf_r+0x134c>
   1159a:	000b0463          	beqz	s6,115a2 <_vfprintf_r+0x336>
   1159e:	7680106f          	j	12d06 <_vfprintf_r+0x1a9a>
   115a2:	4681                	li	a3,0
   115a4:	f03a                	sd	a4,32(sp)
   115a6:	8d5e                	mv	s10,s7
   115a8:	15c10d93          	add	s11,sp,348
   115ac:	0af14703          	lbu	a4,175(sp)
   115b0:	885a                	mv	a6,s6
   115b2:	00db5363          	bge	s6,a3,115b8 <_vfprintf_r+0x34c>
   115b6:	8836                	mv	a6,a3
   115b8:	ec02                	sd	zero,24(sp)
   115ba:	e082                	sd	zero,64(sp)
   115bc:	fc02                	sd	zero,56(sp)
   115be:	f402                	sd	zero,40(sp)
   115c0:	00080b9b          	sext.w	s7,a6
   115c4:	e40701e3          	beqz	a4,11406 <_vfprintf_r+0x19a>
   115c8:	2b85                	addw	s7,s7,1
   115ca:	bd35                	j	11406 <_vfprintf_r+0x19a>
   115cc:	010d6e13          	or	t3,s10,16
   115d0:	000e0d1b          	sext.w	s10,t3
   115d4:	7682                	ld	a3,32(sp)
   115d6:	020d7793          	and	a5,s10,32
   115da:	00868713          	add	a4,a3,8
   115de:	44078863          	beqz	a5,11a2e <_vfprintf_r+0x7c2>
   115e2:	0006ba03          	ld	s4,0(a3)
   115e6:	bffd7b93          	and	s7,s10,-1025
   115ea:	2b81                	sext.w	s7,s7
   115ec:	f03a                	sd	a4,32(sp)
   115ee:	4781                	li	a5,0
   115f0:	4701                	li	a4,0
   115f2:	0ae107a3          	sb	a4,175(sp)
   115f6:	480b4863          	bltz	s6,11a86 <_vfprintf_r+0x81a>
   115fa:	f7fbfe13          	and	t3,s7,-129
   115fe:	000e0d1b          	sext.w	s10,t3
   11602:	120a1de3          	bnez	s4,11f3c <_vfprintf_r+0xcd0>
   11606:	780b1d63          	bnez	s6,11da0 <_vfprintf_r+0xb34>
   1160a:	44079de3          	bnez	a5,12264 <_vfprintf_r+0xff8>
   1160e:	001bf693          	and	a3,s7,1
   11612:	15c10d93          	add	s11,sp,348
   11616:	dad9                	beqz	a3,115ac <_vfprintf_r+0x340>
   11618:	03000793          	li	a5,48
   1161c:	14f10da3          	sb	a5,347(sp)
   11620:	15b10d93          	add	s11,sp,347
   11624:	b761                	j	115ac <_vfprintf_r+0x340>
   11626:	41ba8a3b          	subw	s4,s5,s11
   1162a:	d00a1ee3          	bnez	s4,11346 <_vfprintf_r+0xda>
   1162e:	000ac703          	lbu	a4,0(s5)
   11632:	b381                	j	11372 <_vfprintf_r+0x106>
   11634:	6522                	ld	a0,8(sp)
   11636:	1190                	add	a2,sp,224
   11638:	85a6                	mv	a1,s1
   1163a:	1b5010ef          	jal	12fee <__sprint_r>
   1163e:	ea0515e3          	bnez	a0,114e8 <_vfprintf_r+0x27c>
   11642:	894e                	mv	s2,s3
   11644:	b30d                	j	11366 <_vfprintf_r+0xfa>
   11646:	008d7713          	and	a4,s10,8
   1164a:	46071de3          	bnez	a4,122c4 <_vfprintf_r+0x1058>
   1164e:	7782                	ld	a5,32(sp)
   11650:	ec1a                	sd	t1,24(sp)
   11652:	2388                	fld	fa0,0(a5)
   11654:	00878c93          	add	s9,a5,8
   11658:	10d070ef          	jal	18f64 <__extenddftf2>
   1165c:	6362                	ld	t1,24(sp)
   1165e:	872a                	mv	a4,a0
   11660:	f066                	sd	s9,32(sp)
   11662:	0988                	add	a0,sp,208
   11664:	ec1a                	sd	t1,24(sp)
   11666:	e9ba                	sd	a4,208(sp)
   11668:	edae                	sd	a1,216(sp)
   1166a:	037030ef          	jal	14ea0 <_ldcheck>
   1166e:	dd2a                	sw	a0,184(sp)
   11670:	4709                	li	a4,2
   11672:	6362                	ld	t1,24(sp)
   11674:	74e504e3          	beq	a0,a4,125bc <_vfprintf_r+0x1350>
   11678:	4705                	li	a4,1
   1167a:	00e51463          	bne	a0,a4,11682 <_vfprintf_r+0x416>
   1167e:	0740106f          	j	126f2 <_vfprintf_r+0x1486>
   11682:	06100713          	li	a4,97
   11686:	5ee30ce3          	beq	t1,a4,1247e <_vfprintf_r+0x1212>
   1168a:	04100713          	li	a4,65
   1168e:	05800793          	li	a5,88
   11692:	5ee308e3          	beq	t1,a4,12482 <_vfprintf_r+0x1216>
   11696:	577d                	li	a4,-1
   11698:	00eb1463          	bne	s6,a4,116a0 <_vfprintf_r+0x434>
   1169c:	6620106f          	j	12cfe <_vfprintf_r+0x1a92>
   116a0:	fdf37713          	and	a4,t1,-33
   116a4:	04700693          	li	a3,71
   116a8:	ec02                	sd	zero,24(sp)
   116aa:	00d71463          	bne	a4,a3,116b2 <_vfprintf_r+0x446>
   116ae:	65e0106f          	j	12d0c <_vfprintf_r+0x1aa0>
   116b2:	67ce                	ld	a5,208(sp)
   116b4:	6eee                	ld	t4,216(sp)
   116b6:	100d6713          	or	a4,s10,256
   116ba:	f43e                	sd	a5,40(sp)
   116bc:	f082                	sd	zero,96(sp)
   116be:	00070a1b          	sext.w	s4,a4
   116c2:	000ed463          	bgez	t4,116ca <_vfprintf_r+0x45e>
   116c6:	44e0106f          	j	12b14 <_vfprintf_r+0x18a8>
   116ca:	fbf3069b          	addw	a3,t1,-65
   116ce:	02500713          	li	a4,37
   116d2:	00d77463          	bgeu	a4,a3,116da <_vfprintf_r+0x46e>
   116d6:	4a20106f          	j	12b78 <_vfprintf_r+0x190c>
   116da:	4705                	li	a4,1
   116dc:	4b85                	li	s7,1
   116de:	1716                	sll	a4,a4,0x25
   116e0:	00db96b3          	sll	a3,s7,a3
   116e4:	02070713          	add	a4,a4,32
   116e8:	8f75                	and	a4,a4,a3
   116ea:	c319                	beqz	a4,116f0 <_vfprintf_r+0x484>
   116ec:	3440106f          	j	12a30 <_vfprintf_r+0x17c4>
   116f0:	4705                	li	a4,1
   116f2:	1712                	sll	a4,a4,0x24
   116f4:	0741                	add	a4,a4,16
   116f6:	8f75                	and	a4,a4,a3
   116f8:	c319                	beqz	a4,116fe <_vfprintf_r+0x492>
   116fa:	5f60106f          	j	12cf0 <_vfprintf_r+0x1a84>
   116fe:	4705                	li	a4,1
   11700:	1702                	sll	a4,a4,0x20
   11702:	0705                	add	a4,a4,1
   11704:	8ef9                	and	a3,a3,a4
   11706:	e299                	bnez	a3,1170c <_vfprintf_r+0x4a0>
   11708:	2ac0106f          	j	129b4 <_vfprintf_r+0x1748>
   1170c:	7522                	ld	a0,40(sp)
   1170e:	85f6                	mv	a1,t4
   11710:	1930                	add	a2,sp,184
   11712:	f81a                	sd	t1,48(sp)
   11714:	4da030ef          	jal	14bee <frexpl>
   11718:	00008717          	auipc	a4,0x8
   1171c:	c4870713          	add	a4,a4,-952 # 19360 <blanks.1+0x10>
   11720:	6310                	ld	a2,0(a4)
   11722:	6714                	ld	a3,8(a4)
   11724:	117060ef          	jal	1803a <__multf3>
   11728:	4601                	li	a2,0
   1172a:	4681                	li	a3,0
   1172c:	8caa                	mv	s9,a0
   1172e:	8a2e                	mv	s4,a1
   11730:	726060ef          	jal	17e56 <__eqtf2>
   11734:	7342                	ld	t1,48(sp)
   11736:	e111                	bnez	a0,1173a <_vfprintf_r+0x4ce>
   11738:	dd5e                	sw	s7,184(sp)
   1173a:	00008797          	auipc	a5,0x8
   1173e:	98678793          	add	a5,a5,-1658 # 190c0 <__clzdi2+0x9c>
   11742:	06100713          	li	a4,97
   11746:	fc3e                	sd	a5,56(sp)
   11748:	00e31763          	bne	t1,a4,11756 <_vfprintf_r+0x4ea>
   1174c:	00008797          	auipc	a5,0x8
   11750:	95c78793          	add	a5,a5,-1700 # 190a8 <__clzdi2+0x84>
   11754:	fc3e                	sd	a5,56(sp)
   11756:	00008697          	auipc	a3,0x8
   1175a:	c1a68693          	add	a3,a3,-998 # 19370 <blanks.1+0x20>
   1175e:	629c                	ld	a5,0(a3)
   11760:	020b1713          	sll	a4,s6,0x20
   11764:	9301                	srl	a4,a4,0x20
   11766:	f43e                	sd	a5,40(sp)
   11768:	669c                	ld	a5,8(a3)
   1176a:	0705                	add	a4,a4,1
   1176c:	000b069b          	sext.w	a3,s6
   11770:	f83e                	sd	a5,48(sp)
   11772:	00ed87b3          	add	a5,s11,a4
   11776:	e0d6                	sd	s5,64(sp)
   11778:	e54a                	sd	s2,136(sp)
   1177a:	8ba6                	mv	s7,s1
   1177c:	7ae2                	ld	s5,56(sp)
   1177e:	f49a                	sd	t1,104(sp)
   11780:	e936                	sd	a3,144(sp)
   11782:	896e                	mv	s2,s11
   11784:	84be                	mv	s1,a5
   11786:	a801                	j	11796 <_vfprintf_r+0x52a>
   11788:	4601                	li	a2,0
   1178a:	4681                	li	a3,0
   1178c:	6ca060ef          	jal	17e56 <__eqtf2>
   11790:	e119                	bnez	a0,11796 <_vfprintf_r+0x52a>
   11792:	62a0106f          	j	12dbc <_vfprintf_r+0x1b50>
   11796:	7622                	ld	a2,40(sp)
   11798:	76c2                	ld	a3,48(sp)
   1179a:	8566                	mv	a0,s9
   1179c:	85d2                	mv	a1,s4
   1179e:	09d060ef          	jal	1803a <__multf3>
   117a2:	8a2e                	mv	s4,a1
   117a4:	8caa                	mv	s9,a0
   117a6:	6d2070ef          	jal	18e78 <__fixtfsi>
   117aa:	00050b1b          	sext.w	s6,a0
   117ae:	760070ef          	jal	18f0e <__floatsitf>
   117b2:	86ae                	mv	a3,a1
   117b4:	862a                	mv	a2,a0
   117b6:	85d2                	mv	a1,s4
   117b8:	8566                	mv	a0,s9
   117ba:	677060ef          	jal	18630 <__subtf3>
   117be:	016a86b3          	add	a3,s5,s6
   117c2:	0006c683          	lbu	a3,0(a3)
   117c6:	88ca                	mv	a7,s2
   117c8:	0905                	add	s2,s2,1
   117ca:	fed90fa3          	sb	a3,-1(s2)
   117ce:	8caa                	mv	s9,a0
   117d0:	8a2e                	mv	s4,a1
   117d2:	fb249be3          	bne	s1,s2,11788 <_vfprintf_r+0x51c>
   117d6:	00008697          	auipc	a3,0x8
   117da:	baa68693          	add	a3,a3,-1110 # 19380 <blanks.1+0x30>
   117de:	7326                	ld	t1,104(sp)
   117e0:	6290                	ld	a2,0(a3)
   117e2:	6694                	ld	a3,8(a3)
   117e4:	f81a                	sd	t1,48(sp)
   117e6:	f446                	sd	a7,40(sp)
   117e8:	6a86                	ld	s5,64(sp)
   117ea:	f4b2                	sd	a2,104(sp)
   117ec:	e0b6                	sd	a3,64(sp)
   117ee:	710060ef          	jal	17efe <__getf2>
   117f2:	84de                	mv	s1,s7
   117f4:	78a2                	ld	a7,40(sp)
   117f6:	8bca                	mv	s7,s2
   117f8:	7342                	ld	t1,48(sp)
   117fa:	692a                	ld	s2,136(sp)
   117fc:	02a04163          	bgtz	a0,1181e <_vfprintf_r+0x5b2>
   11800:	7626                	ld	a2,104(sp)
   11802:	6686                	ld	a3,64(sp)
   11804:	8566                	mv	a0,s9
   11806:	85d2                	mv	a1,s4
   11808:	f41a                	sd	t1,40(sp)
   1180a:	f846                	sd	a7,48(sp)
   1180c:	64a060ef          	jal	17e56 <__eqtf2>
   11810:	7322                	ld	t1,40(sp)
   11812:	e539                	bnez	a0,11860 <_vfprintf_r+0x5f4>
   11814:	001b7b13          	and	s6,s6,1
   11818:	78c2                	ld	a7,48(sp)
   1181a:	040b0363          	beqz	s6,11860 <_vfprintf_r+0x5f4>
   1181e:	77e2                	ld	a5,56(sp)
   11820:	e5c6                	sd	a7,200(sp)
   11822:	fffbc603          	lbu	a2,-1(s7)
   11826:	00f7c583          	lbu	a1,15(a5)
   1182a:	86de                	mv	a3,s7
   1182c:	00b61e63          	bne	a2,a1,11848 <_vfprintf_r+0x5dc>
   11830:	03000513          	li	a0,48
   11834:	fea68fa3          	sb	a0,-1(a3)
   11838:	66ae                	ld	a3,200(sp)
   1183a:	fff68793          	add	a5,a3,-1
   1183e:	e5be                	sd	a5,200(sp)
   11840:	fff6c603          	lbu	a2,-1(a3)
   11844:	fec588e3          	beq	a1,a2,11834 <_vfprintf_r+0x5c8>
   11848:	0016059b          	addw	a1,a2,1
   1184c:	03900513          	li	a0,57
   11850:	0ff5f593          	zext.b	a1,a1
   11854:	00a61463          	bne	a2,a0,1185c <_vfprintf_r+0x5f0>
   11858:	1ba0106f          	j	12a12 <_vfprintf_r+0x17a6>
   1185c:	feb68fa3          	sb	a1,-1(a3)
   11860:	86de                	mv	a3,s7
   11862:	57ea                	lw	a5,184(sp)
   11864:	41b6873b          	subw	a4,a3,s11
   11868:	f83a                	sd	a4,48(sp)
   1186a:	fff7871b          	addw	a4,a5,-1
   1186e:	f43e                	sd	a5,40(sp)
   11870:	06100613          	li	a2,97
   11874:	dd3a                	sw	a4,184(sp)
   11876:	00c31463          	bne	t1,a2,1187e <_vfprintf_r+0x612>
   1187a:	5960106f          	j	12e10 <_vfprintf_r+0x1ba4>
   1187e:	04100613          	li	a2,65
   11882:	05000693          	li	a3,80
   11886:	00c30463          	beq	t1,a2,1188e <_vfprintf_r+0x622>
   1188a:	17e0106f          	j	12a08 <_vfprintf_r+0x179c>
   1188e:	4605                	li	a2,1
   11890:	0cd10023          	sb	a3,192(sp)
   11894:	02b00693          	li	a3,43
   11898:	00075763          	bgez	a4,118a6 <_vfprintf_r+0x63a>
   1189c:	77a2                	ld	a5,40(sp)
   1189e:	4705                	li	a4,1
   118a0:	02d00693          	li	a3,45
   118a4:	9f1d                	subw	a4,a4,a5
   118a6:	0cd100a3          	sb	a3,193(sp)
   118aa:	46a5                	li	a3,9
   118ac:	00e6c463          	blt	a3,a4,118b4 <_vfprintf_r+0x648>
   118b0:	4160106f          	j	12cc6 <_vfprintf_r+0x1a5a>
   118b4:	0cf10893          	add	a7,sp,207
   118b8:	8546                	mv	a0,a7
   118ba:	4829                	li	a6,10
   118bc:	06300f13          	li	t5,99
   118c0:	030767bb          	remw	a5,a4,a6
   118c4:	86aa                	mv	a3,a0
   118c6:	863a                	mv	a2,a4
   118c8:	157d                	add	a0,a0,-1
   118ca:	0307879b          	addw	a5,a5,48
   118ce:	fef68fa3          	sb	a5,-1(a3)
   118d2:	0307473b          	divw	a4,a4,a6
   118d6:	fecf45e3          	blt	t5,a2,118c0 <_vfprintf_r+0x654>
   118da:	0307059b          	addw	a1,a4,48
   118de:	feb50fa3          	sb	a1,-1(a0)
   118e2:	ffe68713          	add	a4,a3,-2
   118e6:	01176463          	bltu	a4,a7,118ee <_vfprintf_r+0x682>
   118ea:	52e0106f          	j	12e18 <_vfprintf_r+0x1bac>
   118ee:	0c210613          	add	a2,sp,194
   118f2:	00074783          	lbu	a5,0(a4)
   118f6:	0705                	add	a4,a4,1
   118f8:	0605                	add	a2,a2,1
   118fa:	fef60fa3          	sb	a5,-1(a2)
   118fe:	ff171ae3          	bne	a4,a7,118f2 <_vfprintf_r+0x686>
   11902:	139c                	add	a5,sp,480
   11904:	40d786b3          	sub	a3,a5,a3
   11908:	ef36879b          	addw	a5,a3,-269
   1190c:	f4be                	sd	a5,104(sp)
   1190e:	7726                	ld	a4,104(sp)
   11910:	77c2                	ld	a5,48(sp)
   11912:	4605                	li	a2,1
   11914:	00e786bb          	addw	a3,a5,a4
   11918:	8736                	mv	a4,a3
   1191a:	00f64463          	blt	a2,a5,11922 <_vfprintf_r+0x6b6>
   1191e:	3fc0106f          	j	12d1a <_vfprintf_r+0x1aae>
   11922:	67a6                	ld	a5,72(sp)
   11924:	00f706bb          	addw	a3,a4,a5
   11928:	fff6c813          	not	a6,a3
   1192c:	bffd7e13          	and	t3,s10,-1025
   11930:	43f85813          	sra	a6,a6,0x3f
   11934:	2e01                	sext.w	t3,t3
   11936:	0106f833          	and	a6,a3,a6
   1193a:	100e6d13          	or	s10,t3,256
   1193e:	00080b9b          	sext.w	s7,a6
   11942:	e082                	sd	zero,64(sp)
   11944:	fc02                	sd	zero,56(sp)
   11946:	f402                	sd	zero,40(sp)
   11948:	7786                	ld	a5,96(sp)
   1194a:	e399                	bnez	a5,11950 <_vfprintf_r+0x6e4>
   1194c:	0d40106f          	j	12a20 <_vfprintf_r+0x17b4>
   11950:	02d00713          	li	a4,45
   11954:	0ae107a3          	sb	a4,175(sp)
   11958:	4b01                	li	s6,0
   1195a:	2b85                	addw	s7,s7,1
   1195c:	b46d                	j	11406 <_vfprintf_r+0x19a>
   1195e:	6522                	ld	a0,8(sp)
   11960:	1190                	add	a2,sp,224
   11962:	85a6                	mv	a1,s1
   11964:	ed36                	sd	a3,152(sp)
   11966:	e91a                	sd	t1,144(sp)
   11968:	e57e                	sd	t6,136(sp)
   1196a:	f096                	sd	t0,96(sp)
   1196c:	682010ef          	jal	12fee <__sprint_r>
   11970:	5a051e63          	bnez	a0,11f2c <_vfprintf_r+0xcc0>
   11974:	7a4e                	ld	s4,240(sp)
   11976:	66ea                	ld	a3,152(sp)
   11978:	634a                	ld	t1,144(sp)
   1197a:	6faa                	ld	t6,136(sp)
   1197c:	7286                	ld	t0,96(sp)
   1197e:	894e                	mv	s2,s3
   11980:	b4f1                	j	1144c <_vfprintf_r+0x1e0>
   11982:	56ae                	lw	a3,232(sp)
   11984:	77c2                	ld	a5,48(sp)
   11986:	4605                	li	a2,1
   11988:	00168b1b          	addw	s6,a3,1
   1198c:	01b93023          	sd	s11,0(s2)
   11990:	0a05                	add	s4,s4,1
   11992:	86da                	mv	a3,s6
   11994:	01090c93          	add	s9,s2,16
   11998:	02f651e3          	bge	a2,a5,121ba <_vfprintf_r+0xf4e>
   1199c:	4605                	li	a2,1
   1199e:	d5b6                	sw	a3,232(sp)
   119a0:	00c93423          	sd	a2,8(s2)
   119a4:	f9d2                	sd	s4,240(sp)
   119a6:	469d                	li	a3,7
   119a8:	3366c3e3          	blt	a3,s6,124ce <_vfprintf_r+0x1262>
   119ac:	67a6                	ld	a5,72(sp)
   119ae:	6746                	ld	a4,80(sp)
   119b0:	2b05                	addw	s6,s6,1
   119b2:	9a3e                	add	s4,s4,a5
   119b4:	00ecb023          	sd	a4,0(s9)
   119b8:	00fcb423          	sd	a5,8(s9)
   119bc:	f9d2                	sd	s4,240(sp)
   119be:	d5da                	sw	s6,232(sp)
   119c0:	469d                	li	a3,7
   119c2:	0cc1                	add	s9,s9,16
   119c4:	3366c1e3          	blt	a3,s6,124e6 <_vfprintf_r+0x127a>
   119c8:	77c2                	ld	a5,48(sp)
   119ca:	654e                	ld	a0,208(sp)
   119cc:	65ee                	ld	a1,216(sp)
   119ce:	4601                	li	a2,0
   119d0:	4681                	li	a3,0
   119d2:	fff7891b          	addw	s2,a5,-1
   119d6:	480060ef          	jal	17e56 <__eqtf2>
   119da:	000507e3          	beqz	a0,121e8 <_vfprintf_r+0xf7c>
   119de:	001d8793          	add	a5,s11,1
   119e2:	2b05                	addw	s6,s6,1
   119e4:	9a4a                	add	s4,s4,s2
   119e6:	00fcb023          	sd	a5,0(s9)
   119ea:	012cb423          	sd	s2,8(s9)
   119ee:	f9d2                	sd	s4,240(sp)
   119f0:	d5da                	sw	s6,232(sp)
   119f2:	479d                	li	a5,7
   119f4:	7d67ce63          	blt	a5,s6,121d0 <_vfprintf_r+0xf64>
   119f8:	0cc1                	add	s9,s9,16
   119fa:	7726                	ld	a4,104(sp)
   119fc:	019c                	add	a5,sp,192
   119fe:	001b069b          	addw	a3,s6,1
   11a02:	9a3a                	add	s4,s4,a4
   11a04:	00fcb023          	sd	a5,0(s9)
   11a08:	00ecb423          	sd	a4,8(s9)
   11a0c:	f9d2                	sd	s4,240(sp)
   11a0e:	d5b6                	sw	a3,232(sp)
   11a10:	479d                	li	a5,7
   11a12:	010c8913          	add	s2,s9,16
   11a16:	a8d7d7e3          	bge	a5,a3,114a4 <_vfprintf_r+0x238>
   11a1a:	6522                	ld	a0,8(sp)
   11a1c:	1190                	add	a2,sp,224
   11a1e:	85a6                	mv	a1,s1
   11a20:	5ce010ef          	jal	12fee <__sprint_r>
   11a24:	50051463          	bnez	a0,11f2c <_vfprintf_r+0xcc0>
   11a28:	7a4e                	ld	s4,240(sp)
   11a2a:	894e                	mv	s2,s3
   11a2c:	bca5                	j	114a4 <_vfprintf_r+0x238>
   11a2e:	010d7793          	and	a5,s10,16
   11a32:	080794e3          	bnez	a5,122ba <_vfprintf_r+0x104e>
   11a36:	7682                	ld	a3,32(sp)
   11a38:	040d7793          	and	a5,s10,64
   11a3c:	0006aa03          	lw	s4,0(a3)
   11a40:	460785e3          	beqz	a5,126aa <_vfprintf_r+0x143e>
   11a44:	1a42                	sll	s4,s4,0x30
   11a46:	030a5a13          	srl	s4,s4,0x30
   11a4a:	be71                	j	115e6 <_vfprintf_r+0x37a>
   11a4c:	010d7793          	and	a5,s10,16
   11a50:	020799e3          	bnez	a5,12282 <_vfprintf_r+0x1016>
   11a54:	7682                	ld	a3,32(sp)
   11a56:	040d7793          	and	a5,s10,64
   11a5a:	0006aa03          	lw	s4,0(a3)
   11a5e:	44078ee3          	beqz	a5,126ba <_vfprintf_r+0x144e>
   11a62:	010a1a1b          	sllw	s4,s4,0x10
   11a66:	410a5a1b          	sraw	s4,s4,0x10
   11a6a:	87d2                	mv	a5,s4
   11a6c:	b007dee3          	bgez	a5,11588 <_vfprintf_r+0x31c>
   11a70:	f03a                	sd	a4,32(sp)
   11a72:	02d00713          	li	a4,45
   11a76:	0ae107a3          	sb	a4,175(sp)
   11a7a:	41400a33          	neg	s4,s4
   11a7e:	8bea                	mv	s7,s10
   11a80:	4785                	li	a5,1
   11a82:	b60b5ce3          	bgez	s6,115fa <_vfprintf_r+0x38e>
   11a86:	4705                	li	a4,1
   11a88:	4ae78e63          	beq	a5,a4,11f44 <_vfprintf_r+0xcd8>
   11a8c:	4709                	li	a4,2
   11a8e:	32e78063          	beq	a5,a4,11dae <_vfprintf_r+0xb42>
   11a92:	0af4                	add	a3,sp,348
   11a94:	8db6                	mv	s11,a3
   11a96:	007a7713          	and	a4,s4,7
   11a9a:	03070713          	add	a4,a4,48
   11a9e:	feed8fa3          	sb	a4,-1(s11)
   11aa2:	003a5a13          	srl	s4,s4,0x3
   11aa6:	866e                	mv	a2,s11
   11aa8:	1dfd                	add	s11,s11,-1
   11aaa:	fe0a16e3          	bnez	s4,11a96 <_vfprintf_r+0x82a>
   11aae:	001bf593          	and	a1,s7,1
   11ab2:	30058d63          	beqz	a1,11dcc <_vfprintf_r+0xb60>
   11ab6:	03000593          	li	a1,48
   11aba:	30b70963          	beq	a4,a1,11dcc <_vfprintf_r+0xb60>
   11abe:	1679                	add	a2,a2,-2
   11ac0:	febd8fa3          	sb	a1,-1(s11)
   11ac4:	9e91                	subw	a3,a3,a2
   11ac6:	8d5e                	mv	s10,s7
   11ac8:	8db2                	mv	s11,a2
   11aca:	b4cd                	j	115ac <_vfprintf_r+0x340>
   11acc:	7782                	ld	a5,32(sp)
   11ace:	0a0107a3          	sb	zero,175(sp)
   11ad2:	0007bd83          	ld	s11,0(a5)
   11ad6:	00878c93          	add	s9,a5,8
   11ada:	100d82e3          	beqz	s11,123de <_vfprintf_r+0x1172>
   11ade:	320b46e3          	bltz	s6,1260a <_vfprintf_r+0x139e>
   11ae2:	865a                	mv	a2,s6
   11ae4:	4581                	li	a1,0
   11ae6:	856e                	mv	a0,s11
   11ae8:	f01a                	sd	t1,32(sp)
   11aea:	2ef020ef          	jal	145d8 <memchr>
   11aee:	ec2a                	sd	a0,24(sp)
   11af0:	7302                	ld	t1,32(sp)
   11af2:	e119                	bnez	a0,11af8 <_vfprintf_r+0x88c>
   11af4:	0680106f          	j	12b5c <_vfprintf_r+0x18f0>
   11af8:	67e2                	ld	a5,24(sp)
   11afa:	0af14703          	lbu	a4,175(sp)
   11afe:	f066                	sd	s9,32(sp)
   11b00:	41b786bb          	subw	a3,a5,s11
   11b04:	fff6c813          	not	a6,a3
   11b08:	43f85813          	sra	a6,a6,0x3f
   11b0c:	ec02                	sd	zero,24(sp)
   11b0e:	e082                	sd	zero,64(sp)
   11b10:	fc02                	sd	zero,56(sp)
   11b12:	f402                	sd	zero,40(sp)
   11b14:	00d87bb3          	and	s7,a6,a3
   11b18:	4b01                	li	s6,0
   11b1a:	aa0717e3          	bnez	a4,115c8 <_vfprintf_r+0x35c>
   11b1e:	b0e5                	j	11406 <_vfprintf_r+0x19a>
   11b20:	7702                	ld	a4,32(sp)
   11b22:	0a0107a3          	sb	zero,175(sp)
   11b26:	4b85                	li	s7,1
   11b28:	431c                	lw	a5,0(a4)
   11b2a:	0721                	add	a4,a4,8
   11b2c:	f03a                	sd	a4,32(sp)
   11b2e:	0ef10c23          	sb	a5,248(sp)
   11b32:	4685                	li	a3,1
   11b34:	0f810d93          	add	s11,sp,248
   11b38:	b0d1                	j	113fc <_vfprintf_r+0x190>
   11b3a:	7782                	ld	a5,32(sp)
   11b3c:	0007ac03          	lw	s8,0(a5)
   11b40:	07a1                	add	a5,a5,8
   11b42:	720c5b63          	bgez	s8,12278 <_vfprintf_r+0x100c>
   11b46:	41800c3b          	negw	s8,s8
   11b4a:	f03e                	sd	a5,32(sp)
   11b4c:	004d6d13          	or	s10,s10,4
   11b50:	000ac303          	lbu	t1,0(s5)
   11b54:	2d01                	sext.w	s10,s10
   11b56:	835ff06f          	j	1138a <_vfprintf_r+0x11e>
   11b5a:	02b00793          	li	a5,43
   11b5e:	000ac303          	lbu	t1,0(s5)
   11b62:	0af107a3          	sb	a5,175(sp)
   11b66:	825ff06f          	j	1138a <_vfprintf_r+0x11e>
   11b6a:	080d6d13          	or	s10,s10,128
   11b6e:	000ac303          	lbu	t1,0(s5)
   11b72:	2d01                	sext.w	s10,s10
   11b74:	817ff06f          	j	1138a <_vfprintf_r+0x11e>
   11b78:	000ac303          	lbu	t1,0(s5)
   11b7c:	02a00693          	li	a3,42
   11b80:	001a8713          	add	a4,s5,1
   11b84:	00d31463          	bne	t1,a3,11b8c <_vfprintf_r+0x920>
   11b88:	2c80106f          	j	12e50 <_vfprintf_r+0x1be4>
   11b8c:	fd03079b          	addw	a5,t1,-48
   11b90:	45a5                	li	a1,9
   11b92:	4681                	li	a3,0
   11b94:	4625                	li	a2,9
   11b96:	8aba                	mv	s5,a4
   11b98:	4b01                	li	s6,0
   11b9a:	fef5ea63          	bltu	a1,a5,1138e <_vfprintf_r+0x122>
   11b9e:	00074303          	lbu	t1,0(a4)
   11ba2:	00269b1b          	sllw	s6,a3,0x2
   11ba6:	00db0b3b          	addw	s6,s6,a3
   11baa:	001b1b1b          	sllw	s6,s6,0x1
   11bae:	016786bb          	addw	a3,a5,s6
   11bb2:	fd03079b          	addw	a5,t1,-48
   11bb6:	8b36                	mv	s6,a3
   11bb8:	0705                	add	a4,a4,1
   11bba:	fef672e3          	bgeu	a2,a5,11b9e <_vfprintf_r+0x932>
   11bbe:	7806c663          	bltz	a3,1234a <_vfprintf_r+0x10de>
   11bc2:	8aba                	mv	s5,a4
   11bc4:	fcaff06f          	j	1138e <_vfprintf_r+0x122>
   11bc8:	010d6b93          	or	s7,s10,16
   11bcc:	2b81                	sext.w	s7,s7
   11bce:	7682                	ld	a3,32(sp)
   11bd0:	020bf793          	and	a5,s7,32
   11bd4:	00868713          	add	a4,a3,8
   11bd8:	66078563          	beqz	a5,12242 <_vfprintf_r+0xfd6>
   11bdc:	0006ba03          	ld	s4,0(a3)
   11be0:	4785                	li	a5,1
   11be2:	f03a                	sd	a4,32(sp)
   11be4:	b431                	j	115f0 <_vfprintf_r+0x384>
   11be6:	6ba2                	ld	s7,8(sp)
   11be8:	855e                	mv	a0,s7
   11bea:	3ed020ef          	jal	147d6 <_localeconv_r>
   11bee:	651c                	ld	a5,8(a0)
   11bf0:	853e                	mv	a0,a5
   11bf2:	f8be                	sd	a5,112(sp)
   11bf4:	66f020ef          	jal	14a62 <strlen>
   11bf8:	87aa                	mv	a5,a0
   11bfa:	855e                	mv	a0,s7
   11bfc:	e13e                	sd	a5,128(sp)
   11bfe:	8bbe                	mv	s7,a5
   11c00:	3d7020ef          	jal	147d6 <_localeconv_r>
   11c04:	691c                	ld	a5,16(a0)
   11c06:	000ac303          	lbu	t1,0(s5)
   11c0a:	fcbe                	sd	a5,120(sp)
   11c0c:	f60b8f63          	beqz	s7,1138a <_vfprintf_r+0x11e>
   11c10:	f6078d63          	beqz	a5,1138a <_vfprintf_r+0x11e>
   11c14:	0007c783          	lbu	a5,0(a5)
   11c18:	f6078963          	beqz	a5,1138a <_vfprintf_r+0x11e>
   11c1c:	400d6d13          	or	s10,s10,1024
   11c20:	2d01                	sext.w	s10,s10
   11c22:	f68ff06f          	j	1138a <_vfprintf_r+0x11e>
   11c26:	001d6d13          	or	s10,s10,1
   11c2a:	000ac303          	lbu	t1,0(s5)
   11c2e:	2d01                	sext.w	s10,s10
   11c30:	f5aff06f          	j	1138a <_vfprintf_r+0x11e>
   11c34:	0af14783          	lbu	a5,175(sp)
   11c38:	000ac303          	lbu	t1,0(s5)
   11c3c:	f4079763          	bnez	a5,1138a <_vfprintf_r+0x11e>
   11c40:	02000793          	li	a5,32
   11c44:	0af107a3          	sb	a5,175(sp)
   11c48:	f42ff06f          	j	1138a <_vfprintf_r+0x11e>
   11c4c:	008d6d13          	or	s10,s10,8
   11c50:	000ac303          	lbu	t1,0(s5)
   11c54:	2d01                	sext.w	s10,s10
   11c56:	f34ff06f          	j	1138a <_vfprintf_r+0x11e>
   11c5a:	020d6d13          	or	s10,s10,32
   11c5e:	000ac303          	lbu	t1,0(s5)
   11c62:	2d01                	sext.w	s10,s10
   11c64:	f26ff06f          	j	1138a <_vfprintf_r+0x11e>
   11c68:	7702                	ld	a4,32(sp)
   11c6a:	67a1                	lui	a5,0x8
   11c6c:	83078793          	add	a5,a5,-2000 # 7830 <exit-0x88b8>
   11c70:	0af11823          	sh	a5,176(sp)
   11c74:	00870793          	add	a5,a4,8
   11c78:	002d6b93          	or	s7,s10,2
   11c7c:	f03e                	sd	a5,32(sp)
   11c7e:	00007797          	auipc	a5,0x7
   11c82:	42a78793          	add	a5,a5,1066 # 190a8 <__clzdi2+0x84>
   11c86:	ecbe                	sd	a5,88(sp)
   11c88:	00073a03          	ld	s4,0(a4)
   11c8c:	2b81                	sext.w	s7,s7
   11c8e:	4789                	li	a5,2
   11c90:	07800313          	li	t1,120
   11c94:	bab1                	j	115f0 <_vfprintf_r+0x384>
   11c96:	7702                	ld	a4,32(sp)
   11c98:	020d7793          	and	a5,s10,32
   11c9c:	6318                	ld	a4,0(a4)
   11c9e:	5e078e63          	beqz	a5,1229a <_vfprintf_r+0x102e>
   11ca2:	67c2                	ld	a5,16(sp)
   11ca4:	e31c                	sd	a5,0(a4)
   11ca6:	7782                	ld	a5,32(sp)
   11ca8:	8dd6                	mv	s11,s5
   11caa:	07a1                	add	a5,a5,8
   11cac:	f03e                	sd	a5,32(sp)
   11cae:	82bff06f          	j	114d8 <_vfprintf_r+0x26c>
   11cb2:	000ac303          	lbu	t1,0(s5)
   11cb6:	06c00793          	li	a5,108
   11cba:	70f30063          	beq	t1,a5,123ba <_vfprintf_r+0x114e>
   11cbe:	010d6d13          	or	s10,s10,16
   11cc2:	2d01                	sext.w	s10,s10
   11cc4:	ec6ff06f          	j	1138a <_vfprintf_r+0x11e>
   11cc8:	000ac303          	lbu	t1,0(s5)
   11ccc:	06800793          	li	a5,104
   11cd0:	6cf30d63          	beq	t1,a5,123aa <_vfprintf_r+0x113e>
   11cd4:	040d6d13          	or	s10,s10,64
   11cd8:	2d01                	sext.w	s10,s10
   11cda:	eb0ff06f          	j	1138a <_vfprintf_r+0x11e>
   11cde:	06500713          	li	a4,101
   11ce2:	ca6750e3          	bge	a4,t1,11982 <_vfprintf_r+0x716>
   11ce6:	654e                	ld	a0,208(sp)
   11ce8:	65ee                	ld	a1,216(sp)
   11cea:	4601                	li	a2,0
   11cec:	4681                	li	a3,0
   11cee:	168060ef          	jal	17e56 <__eqtf2>
   11cf2:	3c051563          	bnez	a0,120bc <_vfprintf_r+0xe50>
   11cf6:	57ae                	lw	a5,232(sp)
   11cf8:	00007717          	auipc	a4,0x7
   11cfc:	3e870713          	add	a4,a4,1000 # 190e0 <__clzdi2+0xbc>
   11d00:	00e93023          	sd	a4,0(s2)
   11d04:	2785                	addw	a5,a5,1
   11d06:	4705                	li	a4,1
   11d08:	0a05                	add	s4,s4,1
   11d0a:	00e93423          	sd	a4,8(s2)
   11d0e:	d5be                	sw	a5,232(sp)
   11d10:	0007871b          	sext.w	a4,a5
   11d14:	f9d2                	sd	s4,240(sp)
   11d16:	479d                	li	a5,7
   11d18:	0941                	add	s2,s2,16
   11d1a:	06e7c1e3          	blt	a5,a4,1257c <_vfprintf_r+0x1310>
   11d1e:	57ea                	lw	a5,184(sp)
   11d20:	7742                	ld	a4,48(sp)
   11d22:	54e7d663          	bge	a5,a4,1226e <_vfprintf_r+0x1002>
   11d26:	6726                	ld	a4,72(sp)
   11d28:	57ae                	lw	a5,232(sp)
   11d2a:	66c6                	ld	a3,80(sp)
   11d2c:	9a3a                	add	s4,s4,a4
   11d2e:	2785                	addw	a5,a5,1
   11d30:	00e93423          	sd	a4,8(s2)
   11d34:	00d93023          	sd	a3,0(s2)
   11d38:	0007871b          	sext.w	a4,a5
   11d3c:	d5be                	sw	a5,232(sp)
   11d3e:	f9d2                	sd	s4,240(sp)
   11d40:	479d                	li	a5,7
   11d42:	0941                	add	s2,s2,16
   11d44:	68e7c363          	blt	a5,a4,123ca <_vfprintf_r+0x115e>
   11d48:	77c2                	ld	a5,48(sp)
   11d4a:	fff78b1b          	addw	s6,a5,-1
   11d4e:	f5605b63          	blez	s6,114a4 <_vfprintf_r+0x238>
   11d52:	4741                	li	a4,16
   11d54:	57ae                	lw	a5,232(sp)
   11d56:	00007897          	auipc	a7,0x7
   11d5a:	5ea88893          	add	a7,a7,1514 # 19340 <zeroes.0>
   11d5e:	03675de3          	bge	a4,s6,12598 <_vfprintf_r+0x132c>
   11d62:	f456                	sd	s5,40(sp)
   11d64:	4dc1                	li	s11,16
   11d66:	8ada                	mv	s5,s6
   11d68:	4c9d                	li	s9,7
   11d6a:	8b46                	mv	s6,a7
   11d6c:	a021                	j	11d74 <_vfprintf_r+0xb08>
   11d6e:	3ac1                	addw	s5,s5,-16
   11d70:	035dd1e3          	bge	s11,s5,12592 <_vfprintf_r+0x1326>
   11d74:	2785                	addw	a5,a5,1
   11d76:	0a41                	add	s4,s4,16
   11d78:	01693023          	sd	s6,0(s2)
   11d7c:	01b93423          	sd	s11,8(s2)
   11d80:	f9d2                	sd	s4,240(sp)
   11d82:	d5be                	sw	a5,232(sp)
   11d84:	0941                	add	s2,s2,16
   11d86:	fefcd4e3          	bge	s9,a5,11d6e <_vfprintf_r+0xb02>
   11d8a:	6522                	ld	a0,8(sp)
   11d8c:	1190                	add	a2,sp,224
   11d8e:	85a6                	mv	a1,s1
   11d90:	25e010ef          	jal	12fee <__sprint_r>
   11d94:	18051c63          	bnez	a0,11f2c <_vfprintf_r+0xcc0>
   11d98:	7a4e                	ld	s4,240(sp)
   11d9a:	57ae                	lw	a5,232(sp)
   11d9c:	894e                	mv	s2,s3
   11d9e:	bfc1                	j	11d6e <_vfprintf_r+0xb02>
   11da0:	4705                	li	a4,1
   11da2:	62e788e3          	beq	a5,a4,12bd2 <_vfprintf_r+0x1966>
   11da6:	4709                	li	a4,2
   11da8:	8bea                	mv	s7,s10
   11daa:	cee794e3          	bne	a5,a4,11a92 <_vfprintf_r+0x826>
   11dae:	6766                	ld	a4,88(sp)
   11db0:	0af4                	add	a3,sp,348
   11db2:	8db6                	mv	s11,a3
   11db4:	00fa7793          	and	a5,s4,15
   11db8:	97ba                	add	a5,a5,a4
   11dba:	0007c783          	lbu	a5,0(a5)
   11dbe:	004a5a13          	srl	s4,s4,0x4
   11dc2:	1dfd                	add	s11,s11,-1
   11dc4:	00fd8023          	sb	a5,0(s11)
   11dc8:	fe0a16e3          	bnez	s4,11db4 <_vfprintf_r+0xb48>
   11dcc:	41b686bb          	subw	a3,a3,s11
   11dd0:	8d5e                	mv	s10,s7
   11dd2:	fdaff06f          	j	115ac <_vfprintf_r+0x340>
   11dd6:	417c0cbb          	subw	s9,s8,s7
   11dda:	eb905063          	blez	s9,1147a <_vfprintf_r+0x20e>
   11dde:	45c1                	li	a1,16
   11de0:	562e                	lw	a2,232(sp)
   11de2:	00007897          	auipc	a7,0x7
   11de6:	55e88893          	add	a7,a7,1374 # 19340 <zeroes.0>
   11dea:	0795d063          	bge	a1,s9,11e4a <_vfprintf_r+0xbde>
   11dee:	87ca                	mv	a5,s2
   11df0:	8752                	mv	a4,s4
   11df2:	8966                	mv	s2,s9
   11df4:	4f41                	li	t5,16
   11df6:	8cde                	mv	s9,s7
   11df8:	4f9d                	li	t6,7
   11dfa:	f09a                	sd	t1,96(sp)
   11dfc:	8bb6                	mv	s7,a3
   11dfe:	8a46                	mv	s4,a7
   11e00:	a021                	j	11e08 <_vfprintf_r+0xb9c>
   11e02:	3941                	addw	s2,s2,-16
   11e04:	032f5c63          	bge	t5,s2,11e3c <_vfprintf_r+0xbd0>
   11e08:	2605                	addw	a2,a2,1
   11e0a:	0741                	add	a4,a4,16
   11e0c:	0147b023          	sd	s4,0(a5)
   11e10:	01e7b423          	sd	t5,8(a5)
   11e14:	f9ba                	sd	a4,240(sp)
   11e16:	d5b2                	sw	a2,232(sp)
   11e18:	07c1                	add	a5,a5,16
   11e1a:	fecfd4e3          	bge	t6,a2,11e02 <_vfprintf_r+0xb96>
   11e1e:	6522                	ld	a0,8(sp)
   11e20:	1190                	add	a2,sp,224
   11e22:	85a6                	mv	a1,s1
   11e24:	1ca010ef          	jal	12fee <__sprint_r>
   11e28:	10051263          	bnez	a0,11f2c <_vfprintf_r+0xcc0>
   11e2c:	4f41                	li	t5,16
   11e2e:	3941                	addw	s2,s2,-16
   11e30:	774e                	ld	a4,240(sp)
   11e32:	562e                	lw	a2,232(sp)
   11e34:	87ce                	mv	a5,s3
   11e36:	4f9d                	li	t6,7
   11e38:	fd2f48e3          	blt	t5,s2,11e08 <_vfprintf_r+0xb9c>
   11e3c:	7306                	ld	t1,96(sp)
   11e3e:	86de                	mv	a3,s7
   11e40:	88d2                	mv	a7,s4
   11e42:	8be6                	mv	s7,s9
   11e44:	8a3a                	mv	s4,a4
   11e46:	8cca                	mv	s9,s2
   11e48:	893e                	mv	s2,a5
   11e4a:	0016059b          	addw	a1,a2,1
   11e4e:	9a66                	add	s4,s4,s9
   11e50:	01193023          	sd	a7,0(s2)
   11e54:	01993423          	sd	s9,8(s2)
   11e58:	f9d2                	sd	s4,240(sp)
   11e5a:	d5ae                	sw	a1,232(sp)
   11e5c:	471d                	li	a4,7
   11e5e:	0941                	add	s2,s2,16
   11e60:	e0b75d63          	bge	a4,a1,1147a <_vfprintf_r+0x20e>
   11e64:	6522                	ld	a0,8(sp)
   11e66:	1190                	add	a2,sp,224
   11e68:	85a6                	mv	a1,s1
   11e6a:	e536                	sd	a3,136(sp)
   11e6c:	f09a                	sd	t1,96(sp)
   11e6e:	180010ef          	jal	12fee <__sprint_r>
   11e72:	ed4d                	bnez	a0,11f2c <_vfprintf_r+0xcc0>
   11e74:	7a4e                	ld	s4,240(sp)
   11e76:	66aa                	ld	a3,136(sp)
   11e78:	7306                	ld	t1,96(sp)
   11e7a:	894e                	mv	s2,s3
   11e7c:	dfeff06f          	j	1147a <_vfprintf_r+0x20e>
   11e80:	562e                	lw	a2,232(sp)
   11e82:	00007897          	auipc	a7,0x7
   11e86:	4be88893          	add	a7,a7,1214 # 19340 <zeroes.0>
   11e8a:	05645f63          	bge	s0,s6,11ee8 <_vfprintf_r+0xc7c>
   11e8e:	87ca                	mv	a5,s2
   11e90:	8752                	mv	a4,s4
   11e92:	895a                	mv	s2,s6
   11e94:	4c9d                	li	s9,7
   11e96:	f09a                	sd	t1,96(sp)
   11e98:	8a36                	mv	s4,a3
   11e9a:	8b46                	mv	s6,a7
   11e9c:	a021                	j	11ea4 <_vfprintf_r+0xc38>
   11e9e:	3941                	addw	s2,s2,-16
   11ea0:	03245e63          	bge	s0,s2,11edc <_vfprintf_r+0xc70>
   11ea4:	0016069b          	addw	a3,a2,1
   11ea8:	0741                	add	a4,a4,16
   11eaa:	00007617          	auipc	a2,0x7
   11eae:	49660613          	add	a2,a2,1174 # 19340 <zeroes.0>
   11eb2:	e390                	sd	a2,0(a5)
   11eb4:	e780                	sd	s0,8(a5)
   11eb6:	f9ba                	sd	a4,240(sp)
   11eb8:	0006861b          	sext.w	a2,a3
   11ebc:	d5b6                	sw	a3,232(sp)
   11ebe:	07c1                	add	a5,a5,16
   11ec0:	fcccdfe3          	bge	s9,a2,11e9e <_vfprintf_r+0xc32>
   11ec4:	6522                	ld	a0,8(sp)
   11ec6:	1190                	add	a2,sp,224
   11ec8:	85a6                	mv	a1,s1
   11eca:	124010ef          	jal	12fee <__sprint_r>
   11ece:	ed39                	bnez	a0,11f2c <_vfprintf_r+0xcc0>
   11ed0:	3941                	addw	s2,s2,-16
   11ed2:	774e                	ld	a4,240(sp)
   11ed4:	562e                	lw	a2,232(sp)
   11ed6:	87ce                	mv	a5,s3
   11ed8:	fd2446e3          	blt	s0,s2,11ea4 <_vfprintf_r+0xc38>
   11edc:	7306                	ld	t1,96(sp)
   11ede:	86d2                	mv	a3,s4
   11ee0:	88da                	mv	a7,s6
   11ee2:	8a3a                	mv	s4,a4
   11ee4:	8b4a                	mv	s6,s2
   11ee6:	893e                	mv	s2,a5
   11ee8:	0016059b          	addw	a1,a2,1
   11eec:	9a5a                	add	s4,s4,s6
   11eee:	01193023          	sd	a7,0(s2)
   11ef2:	01693423          	sd	s6,8(s2)
   11ef6:	f9d2                	sd	s4,240(sp)
   11ef8:	d5ae                	sw	a1,232(sp)
   11efa:	471d                	li	a4,7
   11efc:	0941                	add	s2,s2,16
   11efe:	d8b75263          	bge	a4,a1,11482 <_vfprintf_r+0x216>
   11f02:	6522                	ld	a0,8(sp)
   11f04:	1190                	add	a2,sp,224
   11f06:	85a6                	mv	a1,s1
   11f08:	e536                	sd	a3,136(sp)
   11f0a:	f09a                	sd	t1,96(sp)
   11f0c:	0e2010ef          	jal	12fee <__sprint_r>
   11f10:	ed11                	bnez	a0,11f2c <_vfprintf_r+0xcc0>
   11f12:	7a4e                	ld	s4,240(sp)
   11f14:	66aa                	ld	a3,136(sp)
   11f16:	7306                	ld	t1,96(sp)
   11f18:	894e                	mv	s2,s3
   11f1a:	d68ff06f          	j	11482 <_vfprintf_r+0x216>
   11f1e:	6522                	ld	a0,8(sp)
   11f20:	1190                	add	a2,sp,224
   11f22:	85a6                	mv	a1,s1
   11f24:	0ca010ef          	jal	12fee <__sprint_r>
   11f28:	d8050f63          	beqz	a0,114c6 <_vfprintf_r+0x25a>
   11f2c:	65e2                	ld	a1,24(sp)
   11f2e:	da058d63          	beqz	a1,114e8 <_vfprintf_r+0x27c>
   11f32:	6522                	ld	a0,8(sp)
   11f34:	addfe0ef          	jal	10a10 <_free_r>
   11f38:	db0ff06f          	j	114e8 <_vfprintf_r+0x27c>
   11f3c:	4705                	li	a4,1
   11f3e:	8bea                	mv	s7,s10
   11f40:	b4e796e3          	bne	a5,a4,11a8c <_vfprintf_r+0x820>
   11f44:	47a5                	li	a5,9
   11f46:	3b47e263          	bltu	a5,s4,122ea <_vfprintf_r+0x107e>
   11f4a:	030a0a1b          	addw	s4,s4,48
   11f4e:	15410da3          	sb	s4,347(sp)
   11f52:	8d5e                	mv	s10,s7
   11f54:	4685                	li	a3,1
   11f56:	15b10d93          	add	s11,sp,347
   11f5a:	e52ff06f          	j	115ac <_vfprintf_r+0x340>
   11f5e:	45c1                	li	a1,16
   11f60:	562e                	lw	a2,232(sp)
   11f62:	00007c97          	auipc	s9,0x7
   11f66:	3eec8c93          	add	s9,s9,1006 # 19350 <blanks.1>
   11f6a:	06e5d563          	bge	a1,a4,11fd4 <_vfprintf_r+0xd68>
   11f6e:	87ca                	mv	a5,s2
   11f70:	893a                	mv	s2,a4
   11f72:	8766                	mv	a4,s9
   11f74:	48c1                	li	a7,16
   11f76:	8cde                	mv	s9,s7
   11f78:	439d                	li	t2,7
   11f7a:	8bb6                	mv	s7,a3
   11f7c:	f096                	sd	t0,96(sp)
   11f7e:	86d2                	mv	a3,s4
   11f80:	e57e                	sd	t6,136(sp)
   11f82:	e91a                	sd	t1,144(sp)
   11f84:	8a3a                	mv	s4,a4
   11f86:	a021                	j	11f8e <_vfprintf_r+0xd22>
   11f88:	3941                	addw	s2,s2,-16
   11f8a:	0328db63          	bge	a7,s2,11fc0 <_vfprintf_r+0xd54>
   11f8e:	2605                	addw	a2,a2,1
   11f90:	06c1                	add	a3,a3,16
   11f92:	0147b023          	sd	s4,0(a5)
   11f96:	0117b423          	sd	a7,8(a5)
   11f9a:	f9b6                	sd	a3,240(sp)
   11f9c:	d5b2                	sw	a2,232(sp)
   11f9e:	07c1                	add	a5,a5,16
   11fa0:	fec3d4e3          	bge	t2,a2,11f88 <_vfprintf_r+0xd1c>
   11fa4:	6522                	ld	a0,8(sp)
   11fa6:	1190                	add	a2,sp,224
   11fa8:	85a6                	mv	a1,s1
   11faa:	044010ef          	jal	12fee <__sprint_r>
   11fae:	fd3d                	bnez	a0,11f2c <_vfprintf_r+0xcc0>
   11fb0:	48c1                	li	a7,16
   11fb2:	3941                	addw	s2,s2,-16
   11fb4:	76ce                	ld	a3,240(sp)
   11fb6:	562e                	lw	a2,232(sp)
   11fb8:	87ce                	mv	a5,s3
   11fba:	439d                	li	t2,7
   11fbc:	fd28c9e3          	blt	a7,s2,11f8e <_vfprintf_r+0xd22>
   11fc0:	7286                	ld	t0,96(sp)
   11fc2:	6faa                	ld	t6,136(sp)
   11fc4:	634a                	ld	t1,144(sp)
   11fc6:	874a                	mv	a4,s2
   11fc8:	893e                	mv	s2,a5
   11fca:	87d2                	mv	a5,s4
   11fcc:	8a36                	mv	s4,a3
   11fce:	86de                	mv	a3,s7
   11fd0:	8be6                	mv	s7,s9
   11fd2:	8cbe                	mv	s9,a5
   11fd4:	9a3a                	add	s4,s4,a4
   11fd6:	0016059b          	addw	a1,a2,1
   11fda:	00e93423          	sd	a4,8(s2)
   11fde:	01993023          	sd	s9,0(s2)
   11fe2:	f9d2                	sd	s4,240(sp)
   11fe4:	d5ae                	sw	a1,232(sp)
   11fe6:	471d                	li	a4,7
   11fe8:	0941                	add	s2,s2,16
   11fea:	c2b75c63          	bge	a4,a1,11422 <_vfprintf_r+0x1b6>
   11fee:	6522                	ld	a0,8(sp)
   11ff0:	1190                	add	a2,sp,224
   11ff2:	85a6                	mv	a1,s1
   11ff4:	ed36                	sd	a3,152(sp)
   11ff6:	e91a                	sd	t1,144(sp)
   11ff8:	e57e                	sd	t6,136(sp)
   11ffa:	f096                	sd	t0,96(sp)
   11ffc:	7f3000ef          	jal	12fee <__sprint_r>
   12000:	f515                	bnez	a0,11f2c <_vfprintf_r+0xcc0>
   12002:	7a4e                	ld	s4,240(sp)
   12004:	66ea                	ld	a3,152(sp)
   12006:	634a                	ld	t1,144(sp)
   12008:	6faa                	ld	t6,136(sp)
   1200a:	7286                	ld	t0,96(sp)
   1200c:	894e                	mv	s2,s3
   1200e:	c14ff06f          	j	11422 <_vfprintf_r+0x1b6>
   12012:	6522                	ld	a0,8(sp)
   12014:	1190                	add	a2,sp,224
   12016:	85a6                	mv	a1,s1
   12018:	e936                	sd	a3,144(sp)
   1201a:	e51a                	sd	t1,136(sp)
   1201c:	f0fe                	sd	t6,96(sp)
   1201e:	7d1000ef          	jal	12fee <__sprint_r>
   12022:	f00515e3          	bnez	a0,11f2c <_vfprintf_r+0xcc0>
   12026:	7a4e                	ld	s4,240(sp)
   12028:	66ca                	ld	a3,144(sp)
   1202a:	632a                	ld	t1,136(sp)
   1202c:	7f86                	ld	t6,96(sp)
   1202e:	894e                	mv	s2,s3
   12030:	c42ff06f          	j	11472 <_vfprintf_r+0x206>
   12034:	4741                	li	a4,16
   12036:	57ae                	lw	a5,232(sp)
   12038:	00007c97          	auipc	s9,0x7
   1203c:	318c8c93          	add	s9,s9,792 # 19350 <blanks.1>
   12040:	05675863          	bge	a4,s6,12090 <_vfprintf_r+0xe24>
   12044:	8766                	mv	a4,s9
   12046:	4dc1                	li	s11,16
   12048:	8cda                	mv	s9,s6
   1204a:	4d1d                	li	s10,7
   1204c:	8b56                	mv	s6,s5
   1204e:	8aba                	mv	s5,a4
   12050:	a021                	j	12058 <_vfprintf_r+0xdec>
   12052:	3cc1                	addw	s9,s9,-16
   12054:	039dda63          	bge	s11,s9,12088 <_vfprintf_r+0xe1c>
   12058:	2785                	addw	a5,a5,1
   1205a:	0a41                	add	s4,s4,16
   1205c:	01593023          	sd	s5,0(s2)
   12060:	01b93423          	sd	s11,8(s2)
   12064:	f9d2                	sd	s4,240(sp)
   12066:	d5be                	sw	a5,232(sp)
   12068:	0941                	add	s2,s2,16
   1206a:	fefd54e3          	bge	s10,a5,12052 <_vfprintf_r+0xde6>
   1206e:	6522                	ld	a0,8(sp)
   12070:	1190                	add	a2,sp,224
   12072:	85a6                	mv	a1,s1
   12074:	77b000ef          	jal	12fee <__sprint_r>
   12078:	ea051ae3          	bnez	a0,11f2c <_vfprintf_r+0xcc0>
   1207c:	3cc1                	addw	s9,s9,-16
   1207e:	7a4e                	ld	s4,240(sp)
   12080:	57ae                	lw	a5,232(sp)
   12082:	894e                	mv	s2,s3
   12084:	fd9dcae3          	blt	s11,s9,12058 <_vfprintf_r+0xdec>
   12088:	8756                	mv	a4,s5
   1208a:	8ada                	mv	s5,s6
   1208c:	8b66                	mv	s6,s9
   1208e:	8cba                	mv	s9,a4
   12090:	0017871b          	addw	a4,a5,1
   12094:	9a5a                	add	s4,s4,s6
   12096:	01993023          	sd	s9,0(s2)
   1209a:	01693423          	sd	s6,8(s2)
   1209e:	f9d2                	sd	s4,240(sp)
   120a0:	d5ba                	sw	a4,232(sp)
   120a2:	479d                	li	a5,7
   120a4:	c0e7d863          	bge	a5,a4,114b4 <_vfprintf_r+0x248>
   120a8:	6522                	ld	a0,8(sp)
   120aa:	1190                	add	a2,sp,224
   120ac:	85a6                	mv	a1,s1
   120ae:	741000ef          	jal	12fee <__sprint_r>
   120b2:	e6051de3          	bnez	a0,11f2c <_vfprintf_r+0xcc0>
   120b6:	7a4e                	ld	s4,240(sp)
   120b8:	bfcff06f          	j	114b4 <_vfprintf_r+0x248>
   120bc:	55ea                	lw	a1,184(sp)
   120be:	44b05063          	blez	a1,124fe <_vfprintf_r+0x1292>
   120c2:	77a2                	ld	a5,40(sp)
   120c4:	7742                	ld	a4,48(sp)
   120c6:	00078b1b          	sext.w	s6,a5
   120ca:	26f74b63          	blt	a4,a5,12340 <_vfprintf_r+0x10d4>
   120ce:	03605063          	blez	s6,120ee <_vfprintf_r+0xe82>
   120d2:	572e                	lw	a4,232(sp)
   120d4:	9a5a                	add	s4,s4,s6
   120d6:	01b93023          	sd	s11,0(s2)
   120da:	0017069b          	addw	a3,a4,1
   120de:	01693423          	sd	s6,8(s2)
   120e2:	f9d2                	sd	s4,240(sp)
   120e4:	d5b6                	sw	a3,232(sp)
   120e6:	471d                	li	a4,7
   120e8:	0941                	add	s2,s2,16
   120ea:	02d746e3          	blt	a4,a3,12916 <_vfprintf_r+0x16aa>
   120ee:	fffb4713          	not	a4,s6
   120f2:	77a2                	ld	a5,40(sp)
   120f4:	977d                	sra	a4,a4,0x3f
   120f6:	00eb7b33          	and	s6,s6,a4
   120fa:	41678b3b          	subw	s6,a5,s6
   120fe:	2f604d63          	bgtz	s6,123f8 <_vfprintf_r+0x118c>
   12102:	77a2                	ld	a5,40(sp)
   12104:	400d7713          	and	a4,s10,1024
   12108:	00fd8cb3          	add	s9,s11,a5
   1210c:	66071a63          	bnez	a4,12780 <_vfprintf_r+0x1514>
   12110:	576a                	lw	a4,184(sp)
   12112:	77c2                	ld	a5,48(sp)
   12114:	32f74a63          	blt	a4,a5,12448 <_vfprintf_r+0x11dc>
   12118:	001d7693          	and	a3,s10,1
   1211c:	32069663          	bnez	a3,12448 <_vfprintf_r+0x11dc>
   12120:	76c2                	ld	a3,48(sp)
   12122:	00dd87b3          	add	a5,s11,a3
   12126:	41978b33          	sub	s6,a5,s9
   1212a:	9e99                	subw	a3,a3,a4
   1212c:	000b079b          	sext.w	a5,s6
   12130:	00f6d363          	bge	a3,a5,12136 <_vfprintf_r+0xeca>
   12134:	8b36                	mv	s6,a3
   12136:	2b01                	sext.w	s6,s6
   12138:	03605063          	blez	s6,12158 <_vfprintf_r+0xeec>
   1213c:	57ae                	lw	a5,232(sp)
   1213e:	9a5a                	add	s4,s4,s6
   12140:	01993023          	sd	s9,0(s2)
   12144:	0017871b          	addw	a4,a5,1
   12148:	01693423          	sd	s6,8(s2)
   1214c:	f9d2                	sd	s4,240(sp)
   1214e:	d5ba                	sw	a4,232(sp)
   12150:	479d                	li	a5,7
   12152:	0941                	add	s2,s2,16
   12154:	24e7cce3          	blt	a5,a4,12bac <_vfprintf_r+0x1940>
   12158:	fffb4793          	not	a5,s6
   1215c:	97fd                	sra	a5,a5,0x3f
   1215e:	00fb7b33          	and	s6,s6,a5
   12162:	41668b3b          	subw	s6,a3,s6
   12166:	b3605f63          	blez	s6,114a4 <_vfprintf_r+0x238>
   1216a:	4741                	li	a4,16
   1216c:	57ae                	lw	a5,232(sp)
   1216e:	00007897          	auipc	a7,0x7
   12172:	1d288893          	add	a7,a7,466 # 19340 <zeroes.0>
   12176:	43675163          	bge	a4,s6,12598 <_vfprintf_r+0x132c>
   1217a:	f456                	sd	s5,40(sp)
   1217c:	4dc1                	li	s11,16
   1217e:	8aa6                	mv	s5,s1
   12180:	4c9d                	li	s9,7
   12182:	84da                	mv	s1,s6
   12184:	8b46                	mv	s6,a7
   12186:	a021                	j	1218e <_vfprintf_r+0xf22>
   12188:	34c1                	addw	s1,s1,-16
   1218a:	1c9dd4e3          	bge	s11,s1,12b52 <_vfprintf_r+0x18e6>
   1218e:	2785                	addw	a5,a5,1
   12190:	0a41                	add	s4,s4,16
   12192:	01693023          	sd	s6,0(s2)
   12196:	01b93423          	sd	s11,8(s2)
   1219a:	f9d2                	sd	s4,240(sp)
   1219c:	d5be                	sw	a5,232(sp)
   1219e:	0941                	add	s2,s2,16
   121a0:	fefcd4e3          	bge	s9,a5,12188 <_vfprintf_r+0xf1c>
   121a4:	6522                	ld	a0,8(sp)
   121a6:	1190                	add	a2,sp,224
   121a8:	85d6                	mv	a1,s5
   121aa:	645000ef          	jal	12fee <__sprint_r>
   121ae:	440512e3          	bnez	a0,12df2 <_vfprintf_r+0x1b86>
   121b2:	7a4e                	ld	s4,240(sp)
   121b4:	57ae                	lw	a5,232(sp)
   121b6:	894e                	mv	s2,s3
   121b8:	bfc1                	j	12188 <_vfprintf_r+0xf1c>
   121ba:	001d7593          	and	a1,s10,1
   121be:	fc059f63          	bnez	a1,1199c <_vfprintf_r+0x730>
   121c2:	00c93423          	sd	a2,8(s2)
   121c6:	f9d2                	sd	s4,240(sp)
   121c8:	d5da                	sw	s6,232(sp)
   121ca:	479d                	li	a5,7
   121cc:	8367d7e3          	bge	a5,s6,119fa <_vfprintf_r+0x78e>
   121d0:	6522                	ld	a0,8(sp)
   121d2:	1190                	add	a2,sp,224
   121d4:	85a6                	mv	a1,s1
   121d6:	619000ef          	jal	12fee <__sprint_r>
   121da:	d40519e3          	bnez	a0,11f2c <_vfprintf_r+0xcc0>
   121de:	7a4e                	ld	s4,240(sp)
   121e0:	5b2e                	lw	s6,232(sp)
   121e2:	8cce                	mv	s9,s3
   121e4:	817ff06f          	j	119fa <_vfprintf_r+0x78e>
   121e8:	7742                	ld	a4,48(sp)
   121ea:	4785                	li	a5,1
   121ec:	80e7d7e3          	bge	a5,a4,119fa <_vfprintf_r+0x78e>
   121f0:	47c5                	li	a5,17
   121f2:	00007897          	auipc	a7,0x7
   121f6:	14e88893          	add	a7,a7,334 # 19340 <zeroes.0>
   121fa:	48e7dc63          	bge	a5,a4,12692 <_vfprintf_r+0x1426>
   121fe:	87a6                	mv	a5,s1
   12200:	f456                	sd	s5,40(sp)
   12202:	84ca                	mv	s1,s2
   12204:	46c1                	li	a3,16
   12206:	4d9d                	li	s11,7
   12208:	8ac6                	mv	s5,a7
   1220a:	893e                	mv	s2,a5
   1220c:	a021                	j	12214 <_vfprintf_r+0xfa8>
   1220e:	34c1                	addw	s1,s1,-16
   12210:	4696dc63          	bge	a3,s1,12688 <_vfprintf_r+0x141c>
   12214:	2b05                	addw	s6,s6,1
   12216:	0a41                	add	s4,s4,16
   12218:	015cb023          	sd	s5,0(s9)
   1221c:	00dcb423          	sd	a3,8(s9)
   12220:	f9d2                	sd	s4,240(sp)
   12222:	d5da                	sw	s6,232(sp)
   12224:	0cc1                	add	s9,s9,16
   12226:	ff6dd4e3          	bge	s11,s6,1220e <_vfprintf_r+0xfa2>
   1222a:	6522                	ld	a0,8(sp)
   1222c:	1190                	add	a2,sp,224
   1222e:	85ca                	mv	a1,s2
   12230:	5bf000ef          	jal	12fee <__sprint_r>
   12234:	1e0519e3          	bnez	a0,12c26 <_vfprintf_r+0x19ba>
   12238:	7a4e                	ld	s4,240(sp)
   1223a:	5b2e                	lw	s6,232(sp)
   1223c:	8cce                	mv	s9,s3
   1223e:	46c1                	li	a3,16
   12240:	b7f9                	j	1220e <_vfprintf_r+0xfa2>
   12242:	010bf793          	and	a5,s7,16
   12246:	e3b9                	bnez	a5,1228c <_vfprintf_r+0x1020>
   12248:	7682                	ld	a3,32(sp)
   1224a:	040bf793          	and	a5,s7,64
   1224e:	0006aa03          	lw	s4,0(a3)
   12252:	46078f63          	beqz	a5,126d0 <_vfprintf_r+0x1464>
   12256:	1a42                	sll	s4,s4,0x30
   12258:	030a5a13          	srl	s4,s4,0x30
   1225c:	f03a                	sd	a4,32(sp)
   1225e:	4785                	li	a5,1
   12260:	b90ff06f          	j	115f0 <_vfprintf_r+0x384>
   12264:	4681                	li	a3,0
   12266:	15c10d93          	add	s11,sp,348
   1226a:	b42ff06f          	j	115ac <_vfprintf_r+0x340>
   1226e:	001d7793          	and	a5,s10,1
   12272:	a2078963          	beqz	a5,114a4 <_vfprintf_r+0x238>
   12276:	bc45                	j	11d26 <_vfprintf_r+0xaba>
   12278:	000ac303          	lbu	t1,0(s5)
   1227c:	f03e                	sd	a5,32(sp)
   1227e:	90cff06f          	j	1138a <_vfprintf_r+0x11e>
   12282:	7782                	ld	a5,32(sp)
   12284:	639c                	ld	a5,0(a5)
   12286:	8a3e                	mv	s4,a5
   12288:	afcff06f          	j	11584 <_vfprintf_r+0x318>
   1228c:	7782                	ld	a5,32(sp)
   1228e:	f03a                	sd	a4,32(sp)
   12290:	0007ba03          	ld	s4,0(a5)
   12294:	4785                	li	a5,1
   12296:	b5aff06f          	j	115f0 <_vfprintf_r+0x384>
   1229a:	010d7793          	and	a5,s10,16
   1229e:	a00792e3          	bnez	a5,11ca2 <_vfprintf_r+0xa36>
   122a2:	040d7793          	and	a5,s10,64
   122a6:	6a079863          	bnez	a5,12956 <_vfprintf_r+0x16ea>
   122aa:	200d7e13          	and	t3,s10,512
   122ae:	67c2                	ld	a5,16(sp)
   122b0:	240e04e3          	beqz	t3,12cf8 <_vfprintf_r+0x1a8c>
   122b4:	00f70023          	sb	a5,0(a4)
   122b8:	b2fd                	j	11ca6 <_vfprintf_r+0xa3a>
   122ba:	7782                	ld	a5,32(sp)
   122bc:	0007ba03          	ld	s4,0(a5)
   122c0:	b26ff06f          	j	115e6 <_vfprintf_r+0x37a>
   122c4:	7782                	ld	a5,32(sp)
   122c6:	00f78c93          	add	s9,a5,15
   122ca:	ff0cfc93          	and	s9,s9,-16
   122ce:	010c8793          	add	a5,s9,16
   122d2:	000cb703          	ld	a4,0(s9)
   122d6:	008cb583          	ld	a1,8(s9)
   122da:	f03e                	sd	a5,32(sp)
   122dc:	b86ff06f          	j	11662 <_vfprintf_r+0x3f6>
   122e0:	f03a                	sd	a4,32(sp)
   122e2:	47a5                	li	a5,9
   122e4:	8bea                	mv	s7,s10
   122e6:	c747f2e3          	bgeu	a5,s4,11f4a <_vfprintf_r+0xcde>
   122ea:	0af4                	add	a3,sp,348
   122ec:	78e6                	ld	a7,120(sp)
   122ee:	400bf813          	and	a6,s7,1024
   122f2:	4601                	li	a2,0
   122f4:	85b6                	mv	a1,a3
   122f6:	4729                	li	a4,10
   122f8:	4d25                	li	s10,9
   122fa:	0ff00c93          	li	s9,255
   122fe:	a039                	j	1230c <_vfprintf_r+0x10a0>
   12300:	02ea57b3          	divu	a5,s4,a4
   12304:	034d7763          	bgeu	s10,s4,12332 <_vfprintf_r+0x10c6>
   12308:	8a3e                	mv	s4,a5
   1230a:	85ee                	mv	a1,s11
   1230c:	fff58d93          	add	s11,a1,-1 # 1fff <exit-0xe0e9>
   12310:	2605                	addw	a2,a2,1
   12312:	02ea77b3          	remu	a5,s4,a4
   12316:	0307879b          	addw	a5,a5,48
   1231a:	fef58fa3          	sb	a5,-1(a1)
   1231e:	fe0801e3          	beqz	a6,12300 <_vfprintf_r+0x1094>
   12322:	0008c783          	lbu	a5,0(a7)
   12326:	fcf61de3          	bne	a2,a5,12300 <_vfprintf_r+0x1094>
   1232a:	fd978be3          	beq	a5,s9,12300 <_vfprintf_r+0x1094>
   1232e:	414d6e63          	bltu	s10,s4,1274a <_vfprintf_r+0x14de>
   12332:	f832                	sd	a2,48(sp)
   12334:	fcc6                	sd	a7,120(sp)
   12336:	41b686bb          	subw	a3,a3,s11
   1233a:	8d5e                	mv	s10,s7
   1233c:	a70ff06f          	j	115ac <_vfprintf_r+0x340>
   12340:	00070b1b          	sext.w	s6,a4
   12344:	d96047e3          	bgtz	s6,120d2 <_vfprintf_r+0xe66>
   12348:	b35d                	j	120ee <_vfprintf_r+0xe82>
   1234a:	5b7d                	li	s6,-1
   1234c:	8aba                	mv	s5,a4
   1234e:	840ff06f          	j	1138e <_vfprintf_r+0x122>
   12352:	8bea                	mv	s7,s10
   12354:	b8ad                	j	11bce <_vfprintf_r+0x962>
   12356:	00007797          	auipc	a5,0x7
   1235a:	d6a78793          	add	a5,a5,-662 # 190c0 <__clzdi2+0x9c>
   1235e:	ecbe                	sd	a5,88(sp)
   12360:	7682                	ld	a3,32(sp)
   12362:	020d7793          	and	a5,s10,32
   12366:	00868713          	add	a4,a3,8
   1236a:	14078b63          	beqz	a5,124c0 <_vfprintf_r+0x1254>
   1236e:	0006ba03          	ld	s4,0(a3)
   12372:	001d7793          	and	a5,s10,1
   12376:	cf89                	beqz	a5,12390 <_vfprintf_r+0x1124>
   12378:	000a0c63          	beqz	s4,12390 <_vfprintf_r+0x1124>
   1237c:	002d6e13          	or	t3,s10,2
   12380:	03000793          	li	a5,48
   12384:	0af10823          	sb	a5,176(sp)
   12388:	0a6108a3          	sb	t1,177(sp)
   1238c:	000e0d1b          	sext.w	s10,t3
   12390:	bffd7b93          	and	s7,s10,-1025
   12394:	2b81                	sext.w	s7,s7
   12396:	f03a                	sd	a4,32(sp)
   12398:	4789                	li	a5,2
   1239a:	a56ff06f          	j	115f0 <_vfprintf_r+0x384>
   1239e:	00007797          	auipc	a5,0x7
   123a2:	d0a78793          	add	a5,a5,-758 # 190a8 <__clzdi2+0x84>
   123a6:	ecbe                	sd	a5,88(sp)
   123a8:	bf65                	j	12360 <_vfprintf_r+0x10f4>
   123aa:	200d6d13          	or	s10,s10,512
   123ae:	001ac303          	lbu	t1,1(s5)
   123b2:	2d01                	sext.w	s10,s10
   123b4:	0a85                	add	s5,s5,1
   123b6:	fd5fe06f          	j	1138a <_vfprintf_r+0x11e>
   123ba:	020d6d13          	or	s10,s10,32
   123be:	001ac303          	lbu	t1,1(s5)
   123c2:	2d01                	sext.w	s10,s10
   123c4:	0a85                	add	s5,s5,1
   123c6:	fc5fe06f          	j	1138a <_vfprintf_r+0x11e>
   123ca:	6522                	ld	a0,8(sp)
   123cc:	1190                	add	a2,sp,224
   123ce:	85a6                	mv	a1,s1
   123d0:	41f000ef          	jal	12fee <__sprint_r>
   123d4:	b4051ce3          	bnez	a0,11f2c <_vfprintf_r+0xcc0>
   123d8:	7a4e                	ld	s4,240(sp)
   123da:	894e                	mv	s2,s3
   123dc:	b2b5                	j	11d48 <_vfprintf_r+0xadc>
   123de:	4799                	li	a5,6
   123e0:	000b069b          	sext.w	a3,s6
   123e4:	5567e463          	bltu	a5,s6,1292c <_vfprintf_r+0x16c0>
   123e8:	8bb6                	mv	s7,a3
   123ea:	f066                	sd	s9,32(sp)
   123ec:	00007d97          	auipc	s11,0x7
   123f0:	cecd8d93          	add	s11,s11,-788 # 190d8 <__clzdi2+0xb4>
   123f4:	808ff06f          	j	113fc <_vfprintf_r+0x190>
   123f8:	46c1                	li	a3,16
   123fa:	572e                	lw	a4,232(sp)
   123fc:	00007897          	auipc	a7,0x7
   12400:	f4488893          	add	a7,a7,-188 # 19340 <zeroes.0>
   12404:	3166dc63          	bge	a3,s6,1271c <_vfprintf_r+0x14b0>
   12408:	f0d6                	sd	s5,96(sp)
   1240a:	46c1                	li	a3,16
   1240c:	8ada                	mv	s5,s6
   1240e:	4c9d                	li	s9,7
   12410:	8b46                	mv	s6,a7
   12412:	a021                	j	1241a <_vfprintf_r+0x11ae>
   12414:	3ac1                	addw	s5,s5,-16
   12416:	3156d063          	bge	a3,s5,12716 <_vfprintf_r+0x14aa>
   1241a:	2705                	addw	a4,a4,1
   1241c:	0a41                	add	s4,s4,16
   1241e:	01693023          	sd	s6,0(s2)
   12422:	00d93423          	sd	a3,8(s2)
   12426:	f9d2                	sd	s4,240(sp)
   12428:	d5ba                	sw	a4,232(sp)
   1242a:	0941                	add	s2,s2,16
   1242c:	feecd4e3          	bge	s9,a4,12414 <_vfprintf_r+0x11a8>
   12430:	6522                	ld	a0,8(sp)
   12432:	1190                	add	a2,sp,224
   12434:	85a6                	mv	a1,s1
   12436:	3b9000ef          	jal	12fee <__sprint_r>
   1243a:	ae0519e3          	bnez	a0,11f2c <_vfprintf_r+0xcc0>
   1243e:	7a4e                	ld	s4,240(sp)
   12440:	572e                	lw	a4,232(sp)
   12442:	894e                	mv	s2,s3
   12444:	46c1                	li	a3,16
   12446:	b7f9                	j	12414 <_vfprintf_r+0x11a8>
   12448:	56ae                	lw	a3,232(sp)
   1244a:	67a6                	ld	a5,72(sp)
   1244c:	6646                	ld	a2,80(sp)
   1244e:	0941                	add	s2,s2,16
   12450:	9a3e                	add	s4,s4,a5
   12452:	fec93823          	sd	a2,-16(s2)
   12456:	0016861b          	addw	a2,a3,1
   1245a:	fef93c23          	sd	a5,-8(s2)
   1245e:	f9d2                	sd	s4,240(sp)
   12460:	d5b2                	sw	a2,232(sp)
   12462:	469d                	li	a3,7
   12464:	cac6dee3          	bge	a3,a2,12120 <_vfprintf_r+0xeb4>
   12468:	6522                	ld	a0,8(sp)
   1246a:	1190                	add	a2,sp,224
   1246c:	85a6                	mv	a1,s1
   1246e:	381000ef          	jal	12fee <__sprint_r>
   12472:	aa051de3          	bnez	a0,11f2c <_vfprintf_r+0xcc0>
   12476:	576a                	lw	a4,184(sp)
   12478:	7a4e                	ld	s4,240(sp)
   1247a:	894e                	mv	s2,s3
   1247c:	b155                	j	12120 <_vfprintf_r+0xeb4>
   1247e:	07800793          	li	a5,120
   12482:	03000693          	li	a3,48
   12486:	002d6713          	or	a4,s10,2
   1248a:	0af108a3          	sb	a5,177(sp)
   1248e:	0ad10823          	sb	a3,176(sp)
   12492:	06300793          	li	a5,99
   12496:	2701                	sext.w	a4,a4
   12498:	4f67ce63          	blt	a5,s6,12994 <_vfprintf_r+0x1728>
   1249c:	67ce                	ld	a5,208(sp)
   1249e:	6eee                	ld	t4,216(sp)
   124a0:	102d6e13          	or	t3,s10,258
   124a4:	f43e                	sd	a5,40(sp)
   124a6:	000e0a1b          	sext.w	s4,t3
   124aa:	660ec163          	bltz	t4,12b0c <_vfprintf_r+0x18a0>
   124ae:	fbf3069b          	addw	a3,t1,-65
   124b2:	8d3a                	mv	s10,a4
   124b4:	f082                	sd	zero,96(sp)
   124b6:	ec02                	sd	zero,24(sp)
   124b8:	0f810d93          	add	s11,sp,248
   124bc:	a1eff06f          	j	116da <_vfprintf_r+0x46e>
   124c0:	010d7793          	and	a5,s10,16
   124c4:	cfc1                	beqz	a5,1255c <_vfprintf_r+0x12f0>
   124c6:	7782                	ld	a5,32(sp)
   124c8:	0007ba03          	ld	s4,0(a5)
   124cc:	b55d                	j	12372 <_vfprintf_r+0x1106>
   124ce:	6522                	ld	a0,8(sp)
   124d0:	1190                	add	a2,sp,224
   124d2:	85a6                	mv	a1,s1
   124d4:	31b000ef          	jal	12fee <__sprint_r>
   124d8:	a4051ae3          	bnez	a0,11f2c <_vfprintf_r+0xcc0>
   124dc:	7a4e                	ld	s4,240(sp)
   124de:	5b2e                	lw	s6,232(sp)
   124e0:	8cce                	mv	s9,s3
   124e2:	ccaff06f          	j	119ac <_vfprintf_r+0x740>
   124e6:	6522                	ld	a0,8(sp)
   124e8:	1190                	add	a2,sp,224
   124ea:	85a6                	mv	a1,s1
   124ec:	303000ef          	jal	12fee <__sprint_r>
   124f0:	a2051ee3          	bnez	a0,11f2c <_vfprintf_r+0xcc0>
   124f4:	7a4e                	ld	s4,240(sp)
   124f6:	5b2e                	lw	s6,232(sp)
   124f8:	8cce                	mv	s9,s3
   124fa:	cceff06f          	j	119c8 <_vfprintf_r+0x75c>
   124fe:	572e                	lw	a4,232(sp)
   12500:	00007697          	auipc	a3,0x7
   12504:	be068693          	add	a3,a3,-1056 # 190e0 <__clzdi2+0xbc>
   12508:	00d93023          	sd	a3,0(s2)
   1250c:	2705                	addw	a4,a4,1
   1250e:	4685                	li	a3,1
   12510:	0a05                	add	s4,s4,1
   12512:	00d93423          	sd	a3,8(s2)
   12516:	d5ba                	sw	a4,232(sp)
   12518:	0007069b          	sext.w	a3,a4
   1251c:	f9d2                	sd	s4,240(sp)
   1251e:	471d                	li	a4,7
   12520:	0941                	add	s2,s2,16
   12522:	3cd74f63          	blt	a4,a3,12900 <_vfprintf_r+0x1694>
   12526:	10059c63          	bnez	a1,1263e <_vfprintf_r+0x13d2>
   1252a:	77c2                	ld	a5,48(sp)
   1252c:	001d7713          	and	a4,s10,1
   12530:	8f5d                	or	a4,a4,a5
   12532:	e319                	bnez	a4,12538 <_vfprintf_r+0x12cc>
   12534:	f71fe06f          	j	114a4 <_vfprintf_r+0x238>
   12538:	572e                	lw	a4,232(sp)
   1253a:	67a6                	ld	a5,72(sp)
   1253c:	66c6                	ld	a3,80(sp)
   1253e:	01478633          	add	a2,a5,s4
   12542:	00d93023          	sd	a3,0(s2)
   12546:	0017069b          	addw	a3,a4,1
   1254a:	00f93423          	sd	a5,8(s2)
   1254e:	f9b2                	sd	a2,240(sp)
   12550:	d5b6                	sw	a3,232(sp)
   12552:	471d                	li	a4,7
   12554:	42d74463          	blt	a4,a3,1297c <_vfprintf_r+0x1710>
   12558:	0941                	add	s2,s2,16
   1255a:	a229                	j	12664 <_vfprintf_r+0x13f8>
   1255c:	7682                	ld	a3,32(sp)
   1255e:	040d7793          	and	a5,s10,64
   12562:	0006aa03          	lw	s4,0(a3)
   12566:	16078f63          	beqz	a5,126e4 <_vfprintf_r+0x1478>
   1256a:	1a42                	sll	s4,s4,0x30
   1256c:	030a5a13          	srl	s4,s4,0x30
   12570:	b509                	j	12372 <_vfprintf_r+0x1106>
   12572:	6522                	ld	a0,8(sp)
   12574:	e97fd0ef          	jal	1040a <__sinit>
   12578:	d31fe06f          	j	112a8 <_vfprintf_r+0x3c>
   1257c:	6522                	ld	a0,8(sp)
   1257e:	1190                	add	a2,sp,224
   12580:	85a6                	mv	a1,s1
   12582:	26d000ef          	jal	12fee <__sprint_r>
   12586:	9a0513e3          	bnez	a0,11f2c <_vfprintf_r+0xcc0>
   1258a:	7a4e                	ld	s4,240(sp)
   1258c:	894e                	mv	s2,s3
   1258e:	f90ff06f          	j	11d1e <_vfprintf_r+0xab2>
   12592:	88da                	mv	a7,s6
   12594:	8b56                	mv	s6,s5
   12596:	7aa2                	ld	s5,40(sp)
   12598:	0017871b          	addw	a4,a5,1
   1259c:	01193023          	sd	a7,0(s2)
   125a0:	01693423          	sd	s6,8(s2)
   125a4:	9a5a                	add	s4,s4,s6
   125a6:	f9d2                	sd	s4,240(sp)
   125a8:	d5ba                	sw	a4,232(sp)
   125aa:	479d                	li	a5,7
   125ac:	00e7c463          	blt	a5,a4,125b4 <_vfprintf_r+0x1348>
   125b0:	ef3fe06f          	j	114a2 <_vfprintf_r+0x236>
   125b4:	c66ff06f          	j	11a1a <_vfprintf_r+0x7ae>
   125b8:	f03a                	sd	a4,32(sp)
   125ba:	b269                	j	11f44 <_vfprintf_r+0xcd8>
   125bc:	654e                	ld	a0,208(sp)
   125be:	65ee                	ld	a1,216(sp)
   125c0:	4601                	li	a2,0
   125c2:	4681                	li	a3,0
   125c4:	1d9050ef          	jal	17f9c <__letf2>
   125c8:	6362                	ld	t1,24(sp)
   125ca:	56054d63          	bltz	a0,12b44 <_vfprintf_r+0x18d8>
   125ce:	0af14703          	lbu	a4,175(sp)
   125d2:	04700693          	li	a3,71
   125d6:	00007d97          	auipc	s11,0x7
   125da:	abad8d93          	add	s11,s11,-1350 # 19090 <__clzdi2+0x6c>
   125de:	0066c663          	blt	a3,t1,125ea <_vfprintf_r+0x137e>
   125e2:	00007d97          	auipc	s11,0x7
   125e6:	aa6d8d93          	add	s11,s11,-1370 # 19088 <__clzdi2+0x64>
   125ea:	f7fd7e13          	and	t3,s10,-129
   125ee:	ec02                	sd	zero,24(sp)
   125f0:	e082                	sd	zero,64(sp)
   125f2:	fc02                	sd	zero,56(sp)
   125f4:	f402                	sd	zero,40(sp)
   125f6:	000e0d1b          	sext.w	s10,t3
   125fa:	4b8d                	li	s7,3
   125fc:	468d                	li	a3,3
   125fe:	4b01                	li	s6,0
   12600:	c319                	beqz	a4,12606 <_vfprintf_r+0x139a>
   12602:	fc7fe06f          	j	115c8 <_vfprintf_r+0x35c>
   12606:	e01fe06f          	j	11406 <_vfprintf_r+0x19a>
   1260a:	856e                	mv	a0,s11
   1260c:	f09a                	sd	t1,96(sp)
   1260e:	454020ef          	jal	14a62 <strlen>
   12612:	0005069b          	sext.w	a3,a0
   12616:	0af14703          	lbu	a4,175(sp)
   1261a:	fff6c813          	not	a6,a3
   1261e:	43f85813          	sra	a6,a6,0x3f
   12622:	f066                	sd	s9,32(sp)
   12624:	ec02                	sd	zero,24(sp)
   12626:	e082                	sd	zero,64(sp)
   12628:	fc02                	sd	zero,56(sp)
   1262a:	f402                	sd	zero,40(sp)
   1262c:	7306                	ld	t1,96(sp)
   1262e:	00d87bb3          	and	s7,a6,a3
   12632:	4b01                	li	s6,0
   12634:	c319                	beqz	a4,1263a <_vfprintf_r+0x13ce>
   12636:	f93fe06f          	j	115c8 <_vfprintf_r+0x35c>
   1263a:	dcdfe06f          	j	11406 <_vfprintf_r+0x19a>
   1263e:	572e                	lw	a4,232(sp)
   12640:	67a6                	ld	a5,72(sp)
   12642:	66c6                	ld	a3,80(sp)
   12644:	0941                	add	s2,s2,16
   12646:	01478633          	add	a2,a5,s4
   1264a:	fed93823          	sd	a3,-16(s2)
   1264e:	0017069b          	addw	a3,a4,1
   12652:	fef93c23          	sd	a5,-8(s2)
   12656:	f9b2                	sd	a2,240(sp)
   12658:	d5b6                	sw	a3,232(sp)
   1265a:	471d                	li	a4,7
   1265c:	32d74063          	blt	a4,a3,1297c <_vfprintf_r+0x1710>
   12660:	5605cc63          	bltz	a1,12bd8 <_vfprintf_r+0x196c>
   12664:	77c2                	ld	a5,48(sp)
   12666:	0016871b          	addw	a4,a3,1
   1266a:	01b93023          	sd	s11,0(s2)
   1266e:	00c78a33          	add	s4,a5,a2
   12672:	00f93423          	sd	a5,8(s2)
   12676:	f9d2                	sd	s4,240(sp)
   12678:	d5ba                	sw	a4,232(sp)
   1267a:	479d                	li	a5,7
   1267c:	00e7c463          	blt	a5,a4,12684 <_vfprintf_r+0x1418>
   12680:	e23fe06f          	j	114a2 <_vfprintf_r+0x236>
   12684:	b96ff06f          	j	11a1a <_vfprintf_r+0x7ae>
   12688:	88d6                	mv	a7,s5
   1268a:	7aa2                	ld	s5,40(sp)
   1268c:	87ca                	mv	a5,s2
   1268e:	8926                	mv	s2,s1
   12690:	84be                	mv	s1,a5
   12692:	2b05                	addw	s6,s6,1
   12694:	9a4a                	add	s4,s4,s2
   12696:	011cb023          	sd	a7,0(s9)
   1269a:	012cb423          	sd	s2,8(s9)
   1269e:	f9d2                	sd	s4,240(sp)
   126a0:	d5da                	sw	s6,232(sp)
   126a2:	479d                	li	a5,7
   126a4:	b567da63          	bge	a5,s6,119f8 <_vfprintf_r+0x78c>
   126a8:	b625                	j	121d0 <_vfprintf_r+0xf64>
   126aa:	200d7793          	and	a5,s10,512
   126ae:	28078f63          	beqz	a5,1294c <_vfprintf_r+0x16e0>
   126b2:	0ffa7a13          	zext.b	s4,s4
   126b6:	f31fe06f          	j	115e6 <_vfprintf_r+0x37a>
   126ba:	200d7793          	and	a5,s10,512
   126be:	28078463          	beqz	a5,12946 <_vfprintf_r+0x16da>
   126c2:	018a1a1b          	sllw	s4,s4,0x18
   126c6:	418a5a1b          	sraw	s4,s4,0x18
   126ca:	87d2                	mv	a5,s4
   126cc:	eb9fe06f          	j	11584 <_vfprintf_r+0x318>
   126d0:	200bf793          	and	a5,s7,512
   126d4:	26078263          	beqz	a5,12938 <_vfprintf_r+0x16cc>
   126d8:	0ffa7a13          	zext.b	s4,s4
   126dc:	f03a                	sd	a4,32(sp)
   126de:	4785                	li	a5,1
   126e0:	f11fe06f          	j	115f0 <_vfprintf_r+0x384>
   126e4:	200d7793          	and	a5,s10,512
   126e8:	24078463          	beqz	a5,12930 <_vfprintf_r+0x16c4>
   126ec:	0ffa7a13          	zext.b	s4,s4
   126f0:	b149                	j	12372 <_vfprintf_r+0x1106>
   126f2:	67ee                	ld	a5,216(sp)
   126f4:	2607cd63          	bltz	a5,1296e <_vfprintf_r+0x1702>
   126f8:	0af14703          	lbu	a4,175(sp)
   126fc:	04700693          	li	a3,71
   12700:	00007d97          	auipc	s11,0x7
   12704:	9a0d8d93          	add	s11,s11,-1632 # 190a0 <__clzdi2+0x7c>
   12708:	ee66c1e3          	blt	a3,t1,125ea <_vfprintf_r+0x137e>
   1270c:	00007d97          	auipc	s11,0x7
   12710:	98cd8d93          	add	s11,s11,-1652 # 19098 <__clzdi2+0x74>
   12714:	bdd9                	j	125ea <_vfprintf_r+0x137e>
   12716:	88da                	mv	a7,s6
   12718:	8b56                	mv	s6,s5
   1271a:	7a86                	ld	s5,96(sp)
   1271c:	0017069b          	addw	a3,a4,1
   12720:	9a5a                	add	s4,s4,s6
   12722:	01193023          	sd	a7,0(s2)
   12726:	01693423          	sd	s6,8(s2)
   1272a:	f9d2                	sd	s4,240(sp)
   1272c:	d5b6                	sw	a3,232(sp)
   1272e:	471d                	li	a4,7
   12730:	0941                	add	s2,s2,16
   12732:	9cd758e3          	bge	a4,a3,12102 <_vfprintf_r+0xe96>
   12736:	6522                	ld	a0,8(sp)
   12738:	1190                	add	a2,sp,224
   1273a:	85a6                	mv	a1,s1
   1273c:	0b3000ef          	jal	12fee <__sprint_r>
   12740:	fe051663          	bnez	a0,11f2c <_vfprintf_r+0xcc0>
   12744:	7a4e                	ld	s4,240(sp)
   12746:	894e                	mv	s2,s3
   12748:	ba6d                	j	12102 <_vfprintf_r+0xe96>
   1274a:	678a                	ld	a5,128(sp)
   1274c:	75c6                	ld	a1,112(sp)
   1274e:	fc36                	sd	a3,56(sp)
   12750:	40fd8db3          	sub	s11,s11,a5
   12754:	863e                	mv	a2,a5
   12756:	856e                	mv	a0,s11
   12758:	f842                	sd	a6,48(sp)
   1275a:	f41a                	sd	t1,40(sp)
   1275c:	ec46                	sd	a7,24(sp)
   1275e:	729010ef          	jal	14686 <strncpy>
   12762:	68e2                	ld	a7,24(sp)
   12764:	47a9                	li	a5,10
   12766:	02fa57b3          	divu	a5,s4,a5
   1276a:	0018c603          	lbu	a2,1(a7)
   1276e:	7322                	ld	t1,40(sp)
   12770:	7842                	ld	a6,48(sp)
   12772:	00c03633          	snez	a2,a2
   12776:	98b2                	add	a7,a7,a2
   12778:	76e2                	ld	a3,56(sp)
   1277a:	4601                	li	a2,0
   1277c:	4729                	li	a4,10
   1277e:	b669                	j	12308 <_vfprintf_r+0x109c>
   12780:	77c2                	ld	a5,48(sp)
   12782:	f0d6                	sd	s5,96(sp)
   12784:	e56a                	sd	s10,136(sp)
   12786:	00fd85b3          	add	a1,s11,a5
   1278a:	87ca                	mv	a5,s2
   1278c:	7962                	ld	s2,56(sp)
   1278e:	e962                	sd	s8,144(sp)
   12790:	fc5e                	sd	s7,56(sp)
   12792:	ed6e                	sd	s11,152(sp)
   12794:	8d66                	mv	s10,s9
   12796:	6c0a                	ld	s8,128(sp)
   12798:	7ce6                	ld	s9,120(sp)
   1279a:	6aa2                	ld	s5,8(sp)
   1279c:	6d86                	ld	s11,64(sp)
   1279e:	469d                	li	a3,7
   127a0:	4741                	li	a4,16
   127a2:	00007b17          	auipc	s6,0x7
   127a6:	b9eb0b13          	add	s6,s6,-1122 # 19340 <zeroes.0>
   127aa:	8652                	mv	a2,s4
   127ac:	8bae                	mv	s7,a1
   127ae:	07205e63          	blez	s2,1282a <_vfprintf_r+0x15be>
   127b2:	11b05863          	blez	s11,128c2 <_vfprintf_r+0x1656>
   127b6:	3dfd                	addw	s11,s11,-1
   127b8:	55ae                	lw	a1,232(sp)
   127ba:	7546                	ld	a0,112(sp)
   127bc:	9662                	add	a2,a2,s8
   127be:	0187b423          	sd	s8,8(a5)
   127c2:	e388                	sd	a0,0(a5)
   127c4:	0015851b          	addw	a0,a1,1
   127c8:	f9b2                	sd	a2,240(sp)
   127ca:	d5aa                	sw	a0,232(sp)
   127cc:	07c1                	add	a5,a5,16
   127ce:	0ea6cd63          	blt	a3,a0,128c8 <_vfprintf_r+0x165c>
   127d2:	000cc583          	lbu	a1,0(s9)
   127d6:	41ab8f33          	sub	t5,s7,s10
   127da:	000f051b          	sext.w	a0,t5
   127de:	0005881b          	sext.w	a6,a1
   127e2:	00a5d363          	bge	a1,a0,127e8 <_vfprintf_r+0x157c>
   127e6:	8f42                	mv	t5,a6
   127e8:	000f0a1b          	sext.w	s4,t5
   127ec:	03405363          	blez	s4,12812 <_vfprintf_r+0x15a6>
   127f0:	55ae                	lw	a1,232(sp)
   127f2:	9652                	add	a2,a2,s4
   127f4:	01a7b023          	sd	s10,0(a5)
   127f8:	0015851b          	addw	a0,a1,1
   127fc:	0147b423          	sd	s4,8(a5)
   12800:	f9b2                	sd	a2,240(sp)
   12802:	d5aa                	sw	a0,232(sp)
   12804:	0ca6ce63          	blt	a3,a0,128e0 <_vfprintf_r+0x1674>
   12808:	000cc583          	lbu	a1,0(s9)
   1280c:	07c1                	add	a5,a5,16
   1280e:	0005881b          	sext.w	a6,a1
   12812:	fffa4513          	not	a0,s4
   12816:	957d                	sra	a0,a0,0x3f
   12818:	00aa7f33          	and	t5,s4,a0
   1281c:	41e80a3b          	subw	s4,a6,t5
   12820:	03404763          	bgtz	s4,1284e <_vfprintf_r+0x15e2>
   12824:	9d2e                	add	s10,s10,a1
   12826:	f92046e3          	bgtz	s2,127b2 <_vfprintf_r+0x1546>
   1282a:	f9b046e3          	bgtz	s11,127b6 <_vfprintf_r+0x154a>
   1282e:	6dea                	ld	s11,152(sp)
   12830:	893e                	mv	s2,a5
   12832:	77c2                	ld	a5,48(sp)
   12834:	fce6                	sd	s9,120(sp)
   12836:	8cea                	mv	s9,s10
   12838:	00fd8733          	add	a4,s11,a5
   1283c:	7a86                	ld	s5,96(sp)
   1283e:	6d2a                	ld	s10,136(sp)
   12840:	6c4a                	ld	s8,144(sp)
   12842:	7be2                	ld	s7,56(sp)
   12844:	8a32                	mv	s4,a2
   12846:	8d9775e3          	bgeu	a4,s9,12110 <_vfprintf_r+0xea4>
   1284a:	8cba                	mv	s9,a4
   1284c:	b0d1                	j	12110 <_vfprintf_r+0xea4>
   1284e:	55ae                	lw	a1,232(sp)
   12850:	00007f17          	auipc	t5,0x7
   12854:	af0f0f13          	add	t5,t5,-1296 # 19340 <zeroes.0>
   12858:	05475563          	bge	a4,s4,128a2 <_vfprintf_r+0x1636>
   1285c:	f44a                	sd	s2,40(sp)
   1285e:	8952                	mv	s2,s4
   12860:	8a5a                	mv	s4,s6
   12862:	a021                	j	1286a <_vfprintf_r+0x15fe>
   12864:	3941                	addw	s2,s2,-16
   12866:	03275b63          	bge	a4,s2,1289c <_vfprintf_r+0x1630>
   1286a:	2585                	addw	a1,a1,1
   1286c:	0641                	add	a2,a2,16
   1286e:	0167b023          	sd	s6,0(a5)
   12872:	e798                	sd	a4,8(a5)
   12874:	f9b2                	sd	a2,240(sp)
   12876:	d5ae                	sw	a1,232(sp)
   12878:	07c1                	add	a5,a5,16
   1287a:	feb6d5e3          	bge	a3,a1,12864 <_vfprintf_r+0x15f8>
   1287e:	1190                	add	a2,sp,224
   12880:	85a6                	mv	a1,s1
   12882:	8556                	mv	a0,s5
   12884:	76a000ef          	jal	12fee <__sprint_r>
   12888:	ea051263          	bnez	a0,11f2c <_vfprintf_r+0xcc0>
   1288c:	4741                	li	a4,16
   1288e:	3941                	addw	s2,s2,-16
   12890:	764e                	ld	a2,240(sp)
   12892:	55ae                	lw	a1,232(sp)
   12894:	87ce                	mv	a5,s3
   12896:	469d                	li	a3,7
   12898:	fd2749e3          	blt	a4,s2,1286a <_vfprintf_r+0x15fe>
   1289c:	8f52                	mv	t5,s4
   1289e:	8a4a                	mv	s4,s2
   128a0:	7922                	ld	s2,40(sp)
   128a2:	0015851b          	addw	a0,a1,1
   128a6:	9652                	add	a2,a2,s4
   128a8:	01e7b023          	sd	t5,0(a5)
   128ac:	0147b423          	sd	s4,8(a5)
   128b0:	f9b2                	sd	a2,240(sp)
   128b2:	d5aa                	sw	a0,232(sp)
   128b4:	26a6c963          	blt	a3,a0,12b26 <_vfprintf_r+0x18ba>
   128b8:	000cc583          	lbu	a1,0(s9)
   128bc:	07c1                	add	a5,a5,16
   128be:	9d2e                	add	s10,s10,a1
   128c0:	b79d                	j	12826 <_vfprintf_r+0x15ba>
   128c2:	1cfd                	add	s9,s9,-1
   128c4:	397d                	addw	s2,s2,-1
   128c6:	bdcd                	j	127b8 <_vfprintf_r+0x154c>
   128c8:	1190                	add	a2,sp,224
   128ca:	85a6                	mv	a1,s1
   128cc:	8556                	mv	a0,s5
   128ce:	720000ef          	jal	12fee <__sprint_r>
   128d2:	e4051d63          	bnez	a0,11f2c <_vfprintf_r+0xcc0>
   128d6:	764e                	ld	a2,240(sp)
   128d8:	87ce                	mv	a5,s3
   128da:	4741                	li	a4,16
   128dc:	469d                	li	a3,7
   128de:	bdd5                	j	127d2 <_vfprintf_r+0x1566>
   128e0:	1190                	add	a2,sp,224
   128e2:	85a6                	mv	a1,s1
   128e4:	8556                	mv	a0,s5
   128e6:	708000ef          	jal	12fee <__sprint_r>
   128ea:	e4051163          	bnez	a0,11f2c <_vfprintf_r+0xcc0>
   128ee:	000cc583          	lbu	a1,0(s9)
   128f2:	764e                	ld	a2,240(sp)
   128f4:	87ce                	mv	a5,s3
   128f6:	0005881b          	sext.w	a6,a1
   128fa:	4741                	li	a4,16
   128fc:	469d                	li	a3,7
   128fe:	bf11                	j	12812 <_vfprintf_r+0x15a6>
   12900:	6522                	ld	a0,8(sp)
   12902:	1190                	add	a2,sp,224
   12904:	85a6                	mv	a1,s1
   12906:	6e8000ef          	jal	12fee <__sprint_r>
   1290a:	e2051163          	bnez	a0,11f2c <_vfprintf_r+0xcc0>
   1290e:	55ea                	lw	a1,184(sp)
   12910:	7a4e                	ld	s4,240(sp)
   12912:	894e                	mv	s2,s3
   12914:	b909                	j	12526 <_vfprintf_r+0x12ba>
   12916:	6522                	ld	a0,8(sp)
   12918:	1190                	add	a2,sp,224
   1291a:	85a6                	mv	a1,s1
   1291c:	6d2000ef          	jal	12fee <__sprint_r>
   12920:	e0051663          	bnez	a0,11f2c <_vfprintf_r+0xcc0>
   12924:	7a4e                	ld	s4,240(sp)
   12926:	894e                	mv	s2,s3
   12928:	fc6ff06f          	j	120ee <_vfprintf_r+0xe82>
   1292c:	4699                	li	a3,6
   1292e:	bc6d                	j	123e8 <_vfprintf_r+0x117c>
   12930:	1a02                	sll	s4,s4,0x20
   12932:	020a5a13          	srl	s4,s4,0x20
   12936:	bc35                	j	12372 <_vfprintf_r+0x1106>
   12938:	1a02                	sll	s4,s4,0x20
   1293a:	020a5a13          	srl	s4,s4,0x20
   1293e:	f03a                	sd	a4,32(sp)
   12940:	4785                	li	a5,1
   12942:	caffe06f          	j	115f0 <_vfprintf_r+0x384>
   12946:	87d2                	mv	a5,s4
   12948:	c3dfe06f          	j	11584 <_vfprintf_r+0x318>
   1294c:	1a02                	sll	s4,s4,0x20
   1294e:	020a5a13          	srl	s4,s4,0x20
   12952:	c95fe06f          	j	115e6 <_vfprintf_r+0x37a>
   12956:	67c2                	ld	a5,16(sp)
   12958:	00f71023          	sh	a5,0(a4)
   1295c:	b4aff06f          	j	11ca6 <_vfprintf_r+0xa3a>
   12960:	6522                	ld	a0,8(sp)
   12962:	1190                	add	a2,sp,224
   12964:	85a6                	mv	a1,s1
   12966:	688000ef          	jal	12fee <__sprint_r>
   1296a:	b7ffe06f          	j	114e8 <_vfprintf_r+0x27c>
   1296e:	02d00793          	li	a5,45
   12972:	0af107a3          	sb	a5,175(sp)
   12976:	02d00713          	li	a4,45
   1297a:	b349                	j	126fc <_vfprintf_r+0x1490>
   1297c:	6522                	ld	a0,8(sp)
   1297e:	1190                	add	a2,sp,224
   12980:	85a6                	mv	a1,s1
   12982:	66c000ef          	jal	12fee <__sprint_r>
   12986:	da051363          	bnez	a0,11f2c <_vfprintf_r+0xcc0>
   1298a:	55ea                	lw	a1,184(sp)
   1298c:	764e                	ld	a2,240(sp)
   1298e:	56ae                	lw	a3,232(sp)
   12990:	894e                	mv	s2,s3
   12992:	b1f9                	j	12660 <_vfprintf_r+0x13f4>
   12994:	6522                	ld	a0,8(sp)
   12996:	001b059b          	addw	a1,s6,1
   1299a:	f43a                	sd	a4,40(sp)
   1299c:	ec1a                	sd	t1,24(sp)
   1299e:	abefe0ef          	jal	10c5c <_malloc_r>
   129a2:	6362                	ld	t1,24(sp)
   129a4:	7722                	ld	a4,40(sp)
   129a6:	8daa                	mv	s11,a0
   129a8:	4c050563          	beqz	a0,12e72 <_vfprintf_r+0x1c06>
   129ac:	ec2a                	sd	a0,24(sp)
   129ae:	8d3a                	mv	s10,a4
   129b0:	d03fe06f          	j	116b2 <_vfprintf_r+0x446>
   129b4:	75a2                	ld	a1,40(sp)
   129b6:	6522                	ld	a0,8(sp)
   129b8:	875a                	mv	a4,s6
   129ba:	8676                	mv	a2,t4
   129bc:	0c810893          	add	a7,sp,200
   129c0:	0bc10813          	add	a6,sp,188
   129c4:	193c                	add	a5,sp,184
   129c6:	4689                	li	a3,2
   129c8:	fc1a                	sd	t1,56(sp)
   129ca:	f876                	sd	t4,48(sp)
   129cc:	34c020ef          	jal	14d18 <_ldtoa_r>
   129d0:	7362                	ld	t1,56(sp)
   129d2:	04700713          	li	a4,71
   129d6:	7ec2                	ld	t4,48(sp)
   129d8:	8daa                	mv	s11,a0
   129da:	4ae31463          	bne	t1,a4,12e82 <_vfprintf_r+0x1c16>
   129de:	001d7713          	and	a4,s10,1
   129e2:	1c071063          	bnez	a4,12ba2 <_vfprintf_r+0x1936>
   129e6:	57ea                	lw	a5,184(sp)
   129e8:	f43e                	sd	a5,40(sp)
   129ea:	67ae                	ld	a5,200(sp)
   129ec:	41b787bb          	subw	a5,a5,s11
   129f0:	f83e                	sd	a5,48(sp)
   129f2:	77a2                	ld	a5,40(sp)
   129f4:	5775                	li	a4,-3
   129f6:	00e7c463          	blt	a5,a4,129fe <_vfprintf_r+0x1792>
   129fa:	0cfb5763          	bge	s6,a5,12ac8 <_vfprintf_r+0x185c>
   129fe:	77a2                	ld	a5,40(sp)
   12a00:	3379                	addw	t1,t1,-2
   12a02:	fff7871b          	addw	a4,a5,-1
   12a06:	dd3a                	sw	a4,184(sp)
   12a08:	0ff37693          	zext.b	a3,t1
   12a0c:	4601                	li	a2,0
   12a0e:	e83fe06f          	j	11890 <_vfprintf_r+0x624>
   12a12:	77e2                	ld	a5,56(sp)
   12a14:	00a7c583          	lbu	a1,10(a5)
   12a18:	feb68fa3          	sb	a1,-1(a3)
   12a1c:	e45fe06f          	j	11860 <_vfprintf_r+0x5f4>
   12a20:	0af14703          	lbu	a4,175(sp)
   12a24:	4b01                	li	s6,0
   12a26:	c319                	beqz	a4,12a2c <_vfprintf_r+0x17c0>
   12a28:	ba1fe06f          	j	115c8 <_vfprintf_r+0x35c>
   12a2c:	9dbfe06f          	j	11406 <_vfprintf_r+0x19a>
   12a30:	875a                	mv	a4,s6
   12a32:	468d                	li	a3,3
   12a34:	75a2                	ld	a1,40(sp)
   12a36:	6522                	ld	a0,8(sp)
   12a38:	8676                	mv	a2,t4
   12a3a:	0c810893          	add	a7,sp,200
   12a3e:	0bc10813          	add	a6,sp,188
   12a42:	193c                	add	a5,sp,184
   12a44:	e09a                	sd	t1,64(sp)
   12a46:	fc3a                	sd	a4,56(sp)
   12a48:	f876                	sd	t4,48(sp)
   12a4a:	2ce020ef          	jal	14d18 <_ldtoa_r>
   12a4e:	7ec2                	ld	t4,48(sp)
   12a50:	7762                	ld	a4,56(sp)
   12a52:	6306                	ld	t1,64(sp)
   12a54:	8daa                	mv	s11,a0
   12a56:	fdf37b93          	and	s7,t1,-33
   12a5a:	04600693          	li	a3,70
   12a5e:	00ed8cb3          	add	s9,s11,a4
   12a62:	00db9a63          	bne	s7,a3,12a76 <_vfprintf_r+0x180a>
   12a66:	000dc603          	lbu	a2,0(s11)
   12a6a:	03000693          	li	a3,48
   12a6e:	2ad60d63          	beq	a2,a3,12d28 <_vfprintf_r+0x1abc>
   12a72:	56ea                	lw	a3,184(sp)
   12a74:	9cb6                	add	s9,s9,a3
   12a76:	7522                	ld	a0,40(sp)
   12a78:	4601                	li	a2,0
   12a7a:	4681                	li	a3,0
   12a7c:	85f6                	mv	a1,t4
   12a7e:	f81a                	sd	t1,48(sp)
   12a80:	3d6050ef          	jal	17e56 <__eqtf2>
   12a84:	7342                	ld	t1,48(sp)
   12a86:	14050263          	beqz	a0,12bca <_vfprintf_r+0x195e>
   12a8a:	67ae                	ld	a5,200(sp)
   12a8c:	0197fc63          	bgeu	a5,s9,12aa4 <_vfprintf_r+0x1838>
   12a90:	03000693          	li	a3,48
   12a94:	00178713          	add	a4,a5,1
   12a98:	e5ba                	sd	a4,200(sp)
   12a9a:	00d78023          	sb	a3,0(a5)
   12a9e:	67ae                	ld	a5,200(sp)
   12aa0:	ff97eae3          	bltu	a5,s9,12a94 <_vfprintf_r+0x1828>
   12aa4:	576a                	lw	a4,184(sp)
   12aa6:	f43a                	sd	a4,40(sp)
   12aa8:	41b787bb          	subw	a5,a5,s11
   12aac:	04700713          	li	a4,71
   12ab0:	f83e                	sd	a5,48(sp)
   12ab2:	f4eb80e3          	beq	s7,a4,129f2 <_vfprintf_r+0x1786>
   12ab6:	04600713          	li	a4,70
   12aba:	16eb8a63          	beq	s7,a4,12c2e <_vfprintf_r+0x19c2>
   12abe:	77a2                	ld	a5,40(sp)
   12ac0:	fff7871b          	addw	a4,a5,-1
   12ac4:	dd3a                	sw	a4,184(sp)
   12ac6:	b789                	j	12a08 <_vfprintf_r+0x179c>
   12ac8:	77c2                	ld	a5,48(sp)
   12aca:	7722                	ld	a4,40(sp)
   12acc:	18f74b63          	blt	a4,a5,12c62 <_vfprintf_r+0x19f6>
   12ad0:	77a2                	ld	a5,40(sp)
   12ad2:	001d7713          	and	a4,s10,1
   12ad6:	86be                	mv	a3,a5
   12ad8:	c701                	beqz	a4,12ae0 <_vfprintf_r+0x1874>
   12ada:	6726                	ld	a4,72(sp)
   12adc:	00f706bb          	addw	a3,a4,a5
   12ae0:	400d7e13          	and	t3,s10,1024
   12ae4:	000e0563          	beqz	t3,12aee <_vfprintf_r+0x1882>
   12ae8:	77a2                	ld	a5,40(sp)
   12aea:	26f04463          	bgtz	a5,12d52 <_vfprintf_r+0x1ae6>
   12aee:	fff6c813          	not	a6,a3
   12af2:	43f85813          	sra	a6,a6,0x3f
   12af6:	0106f833          	and	a6,a3,a6
   12afa:	00080b9b          	sext.w	s7,a6
   12afe:	8d52                	mv	s10,s4
   12b00:	06700313          	li	t1,103
   12b04:	e082                	sd	zero,64(sp)
   12b06:	fc02                	sd	zero,56(sp)
   12b08:	e41fe06f          	j	11948 <_vfprintf_r+0x6dc>
   12b0c:	8d3a                	mv	s10,a4
   12b0e:	ec02                	sd	zero,24(sp)
   12b10:	0f810d93          	add	s11,sp,248
   12b14:	577d                	li	a4,-1
   12b16:	177e                	sll	a4,a4,0x3f
   12b18:	02d00793          	li	a5,45
   12b1c:	00eeceb3          	xor	t4,t4,a4
   12b20:	f0be                	sd	a5,96(sp)
   12b22:	ba9fe06f          	j	116ca <_vfprintf_r+0x45e>
   12b26:	1190                	add	a2,sp,224
   12b28:	85a6                	mv	a1,s1
   12b2a:	8556                	mv	a0,s5
   12b2c:	4c2000ef          	jal	12fee <__sprint_r>
   12b30:	be051e63          	bnez	a0,11f2c <_vfprintf_r+0xcc0>
   12b34:	000cc583          	lbu	a1,0(s9)
   12b38:	764e                	ld	a2,240(sp)
   12b3a:	87ce                	mv	a5,s3
   12b3c:	4741                	li	a4,16
   12b3e:	469d                	li	a3,7
   12b40:	9d2e                	add	s10,s10,a1
   12b42:	b1d5                	j	12826 <_vfprintf_r+0x15ba>
   12b44:	02d00793          	li	a5,45
   12b48:	0af107a3          	sb	a5,175(sp)
   12b4c:	02d00713          	li	a4,45
   12b50:	b449                	j	125d2 <_vfprintf_r+0x1366>
   12b52:	88da                	mv	a7,s6
   12b54:	8b26                	mv	s6,s1
   12b56:	84d6                	mv	s1,s5
   12b58:	7aa2                	ld	s5,40(sp)
   12b5a:	bc3d                	j	12598 <_vfprintf_r+0x132c>
   12b5c:	0af14703          	lbu	a4,175(sp)
   12b60:	f066                	sd	s9,32(sp)
   12b62:	e082                	sd	zero,64(sp)
   12b64:	fc02                	sd	zero,56(sp)
   12b66:	f402                	sd	zero,40(sp)
   12b68:	8bda                	mv	s7,s6
   12b6a:	86da                	mv	a3,s6
   12b6c:	4b01                	li	s6,0
   12b6e:	c319                	beqz	a4,12b74 <_vfprintf_r+0x1908>
   12b70:	a59fe06f          	j	115c8 <_vfprintf_r+0x35c>
   12b74:	893fe06f          	j	11406 <_vfprintf_r+0x19a>
   12b78:	75a2                	ld	a1,40(sp)
   12b7a:	6522                	ld	a0,8(sp)
   12b7c:	875a                	mv	a4,s6
   12b7e:	8676                	mv	a2,t4
   12b80:	0c810893          	add	a7,sp,200
   12b84:	0bc10813          	add	a6,sp,188
   12b88:	193c                	add	a5,sp,184
   12b8a:	4689                	li	a3,2
   12b8c:	fc1a                	sd	t1,56(sp)
   12b8e:	f876                	sd	t4,48(sp)
   12b90:	188020ef          	jal	14d18 <_ldtoa_r>
   12b94:	001d7713          	and	a4,s10,1
   12b98:	7ec2                	ld	t4,48(sp)
   12b9a:	7362                	ld	t1,56(sp)
   12b9c:	8daa                	mv	s11,a0
   12b9e:	e40704e3          	beqz	a4,129e6 <_vfprintf_r+0x177a>
   12ba2:	016d8cb3          	add	s9,s11,s6
   12ba6:	04700b93          	li	s7,71
   12baa:	b5f1                	j	12a76 <_vfprintf_r+0x180a>
   12bac:	6522                	ld	a0,8(sp)
   12bae:	1190                	add	a2,sp,224
   12bb0:	85a6                	mv	a1,s1
   12bb2:	43c000ef          	jal	12fee <__sprint_r>
   12bb6:	b6051b63          	bnez	a0,11f2c <_vfprintf_r+0xcc0>
   12bba:	56ea                	lw	a3,184(sp)
   12bbc:	77c2                	ld	a5,48(sp)
   12bbe:	7a4e                	ld	s4,240(sp)
   12bc0:	894e                	mv	s2,s3
   12bc2:	40d786bb          	subw	a3,a5,a3
   12bc6:	d92ff06f          	j	12158 <_vfprintf_r+0xeec>
   12bca:	57ea                	lw	a5,184(sp)
   12bcc:	f43e                	sd	a5,40(sp)
   12bce:	87e6                	mv	a5,s9
   12bd0:	bde1                	j	12aa8 <_vfprintf_r+0x183c>
   12bd2:	8bea                	mv	s7,s10
   12bd4:	b76ff06f          	j	11f4a <_vfprintf_r+0xcde>
   12bd8:	5741                	li	a4,-16
   12bda:	40b00b3b          	negw	s6,a1
   12bde:	00006897          	auipc	a7,0x6
   12be2:	76288893          	add	a7,a7,1890 # 19340 <zeroes.0>
   12be6:	0ae5da63          	bge	a1,a4,12c9a <_vfprintf_r+0x1a2e>
   12bea:	f456                	sd	s5,40(sp)
   12bec:	4a41                	li	s4,16
   12bee:	4c9d                	li	s9,7
   12bf0:	8ac6                	mv	s5,a7
   12bf2:	a021                	j	12bfa <_vfprintf_r+0x198e>
   12bf4:	3b41                	addw	s6,s6,-16
   12bf6:	0b6a5063          	bge	s4,s6,12c96 <_vfprintf_r+0x1a2a>
   12bfa:	2685                	addw	a3,a3,1
   12bfc:	0641                	add	a2,a2,16
   12bfe:	01593023          	sd	s5,0(s2)
   12c02:	01493423          	sd	s4,8(s2)
   12c06:	f9b2                	sd	a2,240(sp)
   12c08:	d5b6                	sw	a3,232(sp)
   12c0a:	0941                	add	s2,s2,16
   12c0c:	fedcd4e3          	bge	s9,a3,12bf4 <_vfprintf_r+0x1988>
   12c10:	6522                	ld	a0,8(sp)
   12c12:	1190                	add	a2,sp,224
   12c14:	85a6                	mv	a1,s1
   12c16:	3d8000ef          	jal	12fee <__sprint_r>
   12c1a:	b0051963          	bnez	a0,11f2c <_vfprintf_r+0xcc0>
   12c1e:	764e                	ld	a2,240(sp)
   12c20:	56ae                	lw	a3,232(sp)
   12c22:	894e                	mv	s2,s3
   12c24:	bfc1                	j	12bf4 <_vfprintf_r+0x1988>
   12c26:	65e2                	ld	a1,24(sp)
   12c28:	84ca                	mv	s1,s2
   12c2a:	b04ff06f          	j	11f2e <_vfprintf_r+0xcc2>
   12c2e:	77a2                	ld	a5,40(sp)
   12c30:	001d7713          	and	a4,s10,1
   12c34:	00eb6733          	or	a4,s6,a4
   12c38:	1ef05463          	blez	a5,12e20 <_vfprintf_r+0x1bb4>
   12c3c:	1a071f63          	bnez	a4,12dfa <_vfprintf_r+0x1b8e>
   12c40:	76a2                	ld	a3,40(sp)
   12c42:	06600313          	li	t1,102
   12c46:	400d7e13          	and	t3,s10,1024
   12c4a:	100e1663          	bnez	t3,12d56 <_vfprintf_r+0x1aea>
   12c4e:	fff6c813          	not	a6,a3
   12c52:	43f85813          	sra	a6,a6,0x3f
   12c56:	0106f833          	and	a6,a3,a6
   12c5a:	00080b9b          	sext.w	s7,a6
   12c5e:	8d52                	mv	s10,s4
   12c60:	b555                	j	12b04 <_vfprintf_r+0x1898>
   12c62:	67a6                	ld	a5,72(sp)
   12c64:	7742                	ld	a4,48(sp)
   12c66:	06700313          	li	t1,103
   12c6a:	00e786bb          	addw	a3,a5,a4
   12c6e:	77a2                	ld	a5,40(sp)
   12c70:	fcf04be3          	bgtz	a5,12c46 <_vfprintf_r+0x19da>
   12c74:	40f6873b          	subw	a4,a3,a5
   12c78:	2705                	addw	a4,a4,1
   12c7a:	0007069b          	sext.w	a3,a4
   12c7e:	fff6c613          	not	a2,a3
   12c82:	967d                	sra	a2,a2,0x3f
   12c84:	8f71                	and	a4,a4,a2
   12c86:	00070b9b          	sext.w	s7,a4
   12c8a:	8d52                	mv	s10,s4
   12c8c:	bda5                	j	12b04 <_vfprintf_r+0x1898>
   12c8e:	57fd                	li	a5,-1
   12c90:	e83e                	sd	a5,16(sp)
   12c92:	883fe06f          	j	11514 <_vfprintf_r+0x2a8>
   12c96:	88d6                	mv	a7,s5
   12c98:	7aa2                	ld	s5,40(sp)
   12c9a:	2685                	addw	a3,a3,1
   12c9c:	965a                	add	a2,a2,s6
   12c9e:	01193023          	sd	a7,0(s2)
   12ca2:	01693423          	sd	s6,8(s2)
   12ca6:	f9b2                	sd	a2,240(sp)
   12ca8:	d5b6                	sw	a3,232(sp)
   12caa:	471d                	li	a4,7
   12cac:	8ad756e3          	bge	a4,a3,12558 <_vfprintf_r+0x12ec>
   12cb0:	6522                	ld	a0,8(sp)
   12cb2:	1190                	add	a2,sp,224
   12cb4:	85a6                	mv	a1,s1
   12cb6:	338000ef          	jal	12fee <__sprint_r>
   12cba:	a6051963          	bnez	a0,11f2c <_vfprintf_r+0xcc0>
   12cbe:	764e                	ld	a2,240(sp)
   12cc0:	56ae                	lw	a3,232(sp)
   12cc2:	894e                	mv	s2,s3
   12cc4:	b245                	j	12664 <_vfprintf_r+0x13f8>
   12cc6:	0c210693          	add	a3,sp,194
   12cca:	e619                	bnez	a2,12cd8 <_vfprintf_r+0x1a6c>
   12ccc:	03000693          	li	a3,48
   12cd0:	0cd10123          	sb	a3,194(sp)
   12cd4:	0c310693          	add	a3,sp,195
   12cd8:	139c                	add	a5,sp,480
   12cda:	40f68633          	sub	a2,a3,a5
   12cde:	0307071b          	addw	a4,a4,48
   12ce2:	1216079b          	addw	a5,a2,289
   12ce6:	00e68023          	sb	a4,0(a3)
   12cea:	f4be                	sd	a5,104(sp)
   12cec:	c23fe06f          	j	1190e <_vfprintf_r+0x6a2>
   12cf0:	001b071b          	addw	a4,s6,1
   12cf4:	4689                	li	a3,2
   12cf6:	bb3d                	j	12a34 <_vfprintf_r+0x17c8>
   12cf8:	c31c                	sw	a5,0(a4)
   12cfa:	fadfe06f          	j	11ca6 <_vfprintf_r+0xa3a>
   12cfe:	ec02                	sd	zero,24(sp)
   12d00:	4b19                	li	s6,6
   12d02:	9b1fe06f          	j	116b2 <_vfprintf_r+0x446>
   12d06:	f03a                	sd	a4,32(sp)
   12d08:	a42ff06f          	j	11f4a <_vfprintf_r+0xcde>
   12d0c:	000b0463          	beqz	s6,12d14 <_vfprintf_r+0x1aa8>
   12d10:	9a3fe06f          	j	116b2 <_vfprintf_r+0x446>
   12d14:	4b05                	li	s6,1
   12d16:	99dfe06f          	j	116b2 <_vfprintf_r+0x446>
   12d1a:	001d7613          	and	a2,s10,1
   12d1e:	e219                	bnez	a2,12d24 <_vfprintf_r+0x1ab8>
   12d20:	c09fe06f          	j	11928 <_vfprintf_r+0x6bc>
   12d24:	bfffe06f          	j	11922 <_vfprintf_r+0x6b6>
   12d28:	7522                	ld	a0,40(sp)
   12d2a:	85f6                	mv	a1,t4
   12d2c:	4601                	li	a2,0
   12d2e:	4681                	li	a3,0
   12d30:	e09a                	sd	t1,64(sp)
   12d32:	fc3a                	sd	a4,56(sp)
   12d34:	f876                	sd	t4,48(sp)
   12d36:	120050ef          	jal	17e56 <__eqtf2>
   12d3a:	7ec2                	ld	t4,48(sp)
   12d3c:	7762                	ld	a4,56(sp)
   12d3e:	6306                	ld	t1,64(sp)
   12d40:	e561                	bnez	a0,12e08 <_vfprintf_r+0x1b9c>
   12d42:	57ea                	lw	a5,184(sp)
   12d44:	00fc8833          	add	a6,s9,a5
   12d48:	f43e                	sd	a5,40(sp)
   12d4a:	41b807bb          	subw	a5,a6,s11
   12d4e:	f83e                	sd	a5,48(sp)
   12d50:	b39d                	j	12ab6 <_vfprintf_r+0x184a>
   12d52:	06700313          	li	t1,103
   12d56:	77e6                	ld	a5,120(sp)
   12d58:	0ff00613          	li	a2,255
   12d5c:	0007c703          	lbu	a4,0(a5)
   12d60:	10c70663          	beq	a4,a2,12e6c <_vfprintf_r+0x1c00>
   12d64:	863e                	mv	a2,a5
   12d66:	77a2                	ld	a5,40(sp)
   12d68:	4881                	li	a7,0
   12d6a:	4801                	li	a6,0
   12d6c:	0ff00593          	li	a1,255
   12d70:	0007051b          	sext.w	a0,a4
   12d74:	00f75a63          	bge	a4,a5,12d88 <_vfprintf_r+0x1b1c>
   12d78:	00164703          	lbu	a4,1(a2)
   12d7c:	9f89                	subw	a5,a5,a0
   12d7e:	cb1d                	beqz	a4,12db4 <_vfprintf_r+0x1b48>
   12d80:	2805                	addw	a6,a6,1
   12d82:	0605                	add	a2,a2,1
   12d84:	feb716e3          	bne	a4,a1,12d70 <_vfprintf_r+0x1b04>
   12d88:	fcb2                	sd	a2,120(sp)
   12d8a:	fc42                	sd	a6,56(sp)
   12d8c:	e0c6                	sd	a7,64(sp)
   12d8e:	f43e                	sd	a5,40(sp)
   12d90:	6786                	ld	a5,64(sp)
   12d92:	7762                	ld	a4,56(sp)
   12d94:	8d52                	mv	s10,s4
   12d96:	9f3d                	addw	a4,a4,a5
   12d98:	678a                	ld	a5,128(sp)
   12d9a:	02f7073b          	mulw	a4,a4,a5
   12d9e:	9f35                	addw	a4,a4,a3
   12da0:	0007069b          	sext.w	a3,a4
   12da4:	fff6c613          	not	a2,a3
   12da8:	967d                	sra	a2,a2,0x3f
   12daa:	8f71                	and	a4,a4,a2
   12dac:	00070b9b          	sext.w	s7,a4
   12db0:	b99fe06f          	j	11948 <_vfprintf_r+0x6dc>
   12db4:	00064703          	lbu	a4,0(a2)
   12db8:	2885                	addw	a7,a7,1
   12dba:	b7e9                	j	12d84 <_vfprintf_r+0x1b18>
   12dbc:	66ca                	ld	a3,144(sp)
   12dbe:	84de                	mv	s1,s7
   12dc0:	8bca                	mv	s7,s2
   12dc2:	00dd86bb          	addw	a3,s11,a3
   12dc6:	417686bb          	subw	a3,a3,s7
   12dca:	02069613          	sll	a2,a3,0x20
   12dce:	6a86                	ld	s5,64(sp)
   12dd0:	7326                	ld	t1,104(sp)
   12dd2:	692a                	ld	s2,136(sp)
   12dd4:	00065463          	bgez	a2,12ddc <_vfprintf_r+0x1b70>
   12dd8:	a89fe06f          	j	11860 <_vfprintf_r+0x5f4>
   12ddc:	2685                	addw	a3,a3,1
   12dde:	96de                	add	a3,a3,s7
   12de0:	03000613          	li	a2,48
   12de4:	0b85                	add	s7,s7,1
   12de6:	fecb8fa3          	sb	a2,-1(s7)
   12dea:	fedb9de3          	bne	s7,a3,12de4 <_vfprintf_r+0x1b78>
   12dee:	a75fe06f          	j	11862 <_vfprintf_r+0x5f6>
   12df2:	65e2                	ld	a1,24(sp)
   12df4:	84d6                	mv	s1,s5
   12df6:	938ff06f          	j	11f2e <_vfprintf_r+0xcc2>
   12dfa:	6726                	ld	a4,72(sp)
   12dfc:	06600313          	li	t1,102
   12e00:	016706bb          	addw	a3,a4,s6
   12e04:	9ebd                	addw	a3,a3,a5
   12e06:	b581                	j	12c46 <_vfprintf_r+0x19da>
   12e08:	4685                	li	a3,1
   12e0a:	9e99                	subw	a3,a3,a4
   12e0c:	dd36                	sw	a3,184(sp)
   12e0e:	b19d                	j	12a74 <_vfprintf_r+0x1808>
   12e10:	07000693          	li	a3,112
   12e14:	a7bfe06f          	j	1188e <_vfprintf_r+0x622>
   12e18:	4789                	li	a5,2
   12e1a:	f4be                	sd	a5,104(sp)
   12e1c:	af3fe06f          	j	1190e <_vfprintf_r+0x6a2>
   12e20:	e719                	bnez	a4,12e2e <_vfprintf_r+0x1bc2>
   12e22:	8d52                	mv	s10,s4
   12e24:	4b85                	li	s7,1
   12e26:	06600313          	li	t1,102
   12e2a:	4685                	li	a3,1
   12e2c:	b9e1                	j	12b04 <_vfprintf_r+0x1898>
   12e2e:	67a6                	ld	a5,72(sp)
   12e30:	8d52                	mv	s10,s4
   12e32:	06600313          	li	t1,102
   12e36:	0017871b          	addw	a4,a5,1
   12e3a:	0167073b          	addw	a4,a4,s6
   12e3e:	0007069b          	sext.w	a3,a4
   12e42:	fff6c613          	not	a2,a3
   12e46:	967d                	sra	a2,a2,0x3f
   12e48:	8f71                	and	a4,a4,a2
   12e4a:	00070b9b          	sext.w	s7,a4
   12e4e:	b95d                	j	12b04 <_vfprintf_r+0x1898>
   12e50:	7682                	ld	a3,32(sp)
   12e52:	429c                	lw	a5,0(a3)
   12e54:	06a1                	add	a3,a3,8
   12e56:	00078b1b          	sext.w	s6,a5
   12e5a:	0007d363          	bgez	a5,12e60 <_vfprintf_r+0x1bf4>
   12e5e:	5b7d                	li	s6,-1
   12e60:	001ac303          	lbu	t1,1(s5)
   12e64:	f036                	sd	a3,32(sp)
   12e66:	8aba                	mv	s5,a4
   12e68:	d22fe06f          	j	1138a <_vfprintf_r+0x11e>
   12e6c:	e082                	sd	zero,64(sp)
   12e6e:	fc02                	sd	zero,56(sp)
   12e70:	b705                	j	12d90 <_vfprintf_r+0x1b24>
   12e72:	0104d783          	lhu	a5,16(s1)
   12e76:	0407e793          	or	a5,a5,64
   12e7a:	00f49823          	sh	a5,16(s1)
   12e7e:	e6afe06f          	j	114e8 <_vfprintf_r+0x27c>
   12e82:	875a                	mv	a4,s6
   12e84:	bec9                	j	12a56 <_vfprintf_r+0x17ea>

0000000000012e86 <vfprintf>:
   12e86:	86b2                	mv	a3,a2
   12e88:	862e                	mv	a2,a1
   12e8a:	85aa                	mv	a1,a0
   12e8c:	2201b503          	ld	a0,544(gp) # 1b458 <_impure_ptr>
   12e90:	bdcfe06f          	j	1126c <_vfprintf_r>

0000000000012e94 <__sbprintf>:
   12e94:	b3010113          	add	sp,sp,-1232
   12e98:	0125d703          	lhu	a4,18(a1)
   12e9c:	0105d783          	lhu	a5,16(a1)
   12ea0:	4c813023          	sd	s0,1216(sp)
   12ea4:	842e                	mv	s0,a1
   12ea6:	65c1                	lui	a1,0x10
   12ea8:	35f5                	addw	a1,a1,-3 # fffd <exit-0xeb>
   12eaa:	0ac42e03          	lw	t3,172(s0)
   12eae:	03043303          	ld	t1,48(s0)
   12eb2:	04043883          	ld	a7,64(s0)
   12eb6:	0107171b          	sllw	a4,a4,0x10
   12eba:	8fed                	and	a5,a5,a1
   12ebc:	8fd9                	or	a5,a5,a4
   12ebe:	40000813          	li	a6,1024
   12ec2:	c83e                	sw	a5,16(sp)
   12ec4:	858a                	mv	a1,sp
   12ec6:	191c                	add	a5,sp,176
   12ec8:	4a913c23          	sd	s1,1208(sp)
   12ecc:	4b213823          	sd	s2,1200(sp)
   12ed0:	4c113423          	sd	ra,1224(sp)
   12ed4:	892a                	mv	s2,a0
   12ed6:	d772                	sw	t3,172(sp)
   12ed8:	f81a                	sd	t1,48(sp)
   12eda:	e0c6                	sd	a7,64(sp)
   12edc:	e03e                	sd	a5,0(sp)
   12ede:	ec3e                	sd	a5,24(sp)
   12ee0:	c642                	sw	a6,12(sp)
   12ee2:	d042                	sw	a6,32(sp)
   12ee4:	d402                	sw	zero,40(sp)
   12ee6:	b86fe0ef          	jal	1126c <_vfprintf_r>
   12eea:	84aa                	mv	s1,a0
   12eec:	02055963          	bgez	a0,12f1e <__sbprintf+0x8a>
   12ef0:	01015783          	lhu	a5,16(sp)
   12ef4:	0407f793          	and	a5,a5,64
   12ef8:	c799                	beqz	a5,12f06 <__sbprintf+0x72>
   12efa:	01045783          	lhu	a5,16(s0)
   12efe:	0407e793          	or	a5,a5,64
   12f02:	00f41823          	sh	a5,16(s0)
   12f06:	4c813083          	ld	ra,1224(sp)
   12f0a:	4c013403          	ld	s0,1216(sp)
   12f0e:	4b013903          	ld	s2,1200(sp)
   12f12:	8526                	mv	a0,s1
   12f14:	4b813483          	ld	s1,1208(sp)
   12f18:	4d010113          	add	sp,sp,1232
   12f1c:	8082                	ret
   12f1e:	858a                	mv	a1,sp
   12f20:	854a                	mv	a0,s2
   12f22:	0d8010ef          	jal	13ffa <_fflush_r>
   12f26:	d569                	beqz	a0,12ef0 <__sbprintf+0x5c>
   12f28:	54fd                	li	s1,-1
   12f2a:	b7d9                	j	12ef0 <__sbprintf+0x5c>

0000000000012f2c <__sprint_r.part.0>:
   12f2c:	0ac5a783          	lw	a5,172(a1)
   12f30:	715d                	add	sp,sp,-80
   12f32:	ec56                	sd	s5,24(sp)
   12f34:	e486                	sd	ra,72(sp)
   12f36:	03279713          	sll	a4,a5,0x32
   12f3a:	8ab2                	mv	s5,a2
   12f3c:	08075f63          	bgez	a4,12fda <__sprint_r.part.0+0xae>
   12f40:	6a1c                	ld	a5,16(a2)
   12f42:	f84a                	sd	s2,48(sp)
   12f44:	f44e                	sd	s3,40(sp)
   12f46:	f052                	sd	s4,32(sp)
   12f48:	e85a                	sd	s6,16(sp)
   12f4a:	892e                	mv	s2,a1
   12f4c:	00063b03          	ld	s6,0(a2)
   12f50:	89aa                	mv	s3,a0
   12f52:	5a7d                	li	s4,-1
   12f54:	cfad                	beqz	a5,12fce <__sprint_r.part.0+0xa2>
   12f56:	e0a2                	sd	s0,64(sp)
   12f58:	fc26                	sd	s1,56(sp)
   12f5a:	e45e                	sd	s7,8(sp)
   12f5c:	008b3483          	ld	s1,8(s6)
   12f60:	000b3403          	ld	s0,0(s6)
   12f64:	8089                	srl	s1,s1,0x2
   12f66:	00048b9b          	sext.w	s7,s1
   12f6a:	05705863          	blez	s7,12fba <__sprint_r.part.0+0x8e>
   12f6e:	34fd                	addw	s1,s1,-1
   12f70:	02049793          	sll	a5,s1,0x20
   12f74:	01e7d493          	srl	s1,a5,0x1e
   12f78:	00440793          	add	a5,s0,4
   12f7c:	94be                	add	s1,s1,a5
   12f7e:	a019                	j	12f84 <__sprint_r.part.0+0x58>
   12f80:	02848b63          	beq	s1,s0,12fb6 <__sprint_r.part.0+0x8a>
   12f84:	400c                	lw	a1,0(s0)
   12f86:	864a                	mv	a2,s2
   12f88:	854e                	mv	a0,s3
   12f8a:	5de010ef          	jal	14568 <_fputwc_r>
   12f8e:	2501                	sext.w	a0,a0
   12f90:	0411                	add	s0,s0,4
   12f92:	ff4517e3          	bne	a0,s4,12f80 <__sprint_r.part.0+0x54>
   12f96:	6406                	ld	s0,64(sp)
   12f98:	74e2                	ld	s1,56(sp)
   12f9a:	7942                	ld	s2,48(sp)
   12f9c:	79a2                	ld	s3,40(sp)
   12f9e:	7a02                	ld	s4,32(sp)
   12fa0:	6b42                	ld	s6,16(sp)
   12fa2:	6ba2                	ld	s7,8(sp)
   12fa4:	557d                	li	a0,-1
   12fa6:	60a6                	ld	ra,72(sp)
   12fa8:	000ab823          	sd	zero,16(s5)
   12fac:	000aa423          	sw	zero,8(s5)
   12fb0:	6ae2                	ld	s5,24(sp)
   12fb2:	6161                	add	sp,sp,80
   12fb4:	8082                	ret
   12fb6:	010ab783          	ld	a5,16(s5)
   12fba:	0b8a                	sll	s7,s7,0x2
   12fbc:	417787b3          	sub	a5,a5,s7
   12fc0:	00fab823          	sd	a5,16(s5)
   12fc4:	0b41                	add	s6,s6,16
   12fc6:	fbd9                	bnez	a5,12f5c <__sprint_r.part.0+0x30>
   12fc8:	6406                	ld	s0,64(sp)
   12fca:	74e2                	ld	s1,56(sp)
   12fcc:	6ba2                	ld	s7,8(sp)
   12fce:	7942                	ld	s2,48(sp)
   12fd0:	79a2                	ld	s3,40(sp)
   12fd2:	7a02                	ld	s4,32(sp)
   12fd4:	6b42                	ld	s6,16(sp)
   12fd6:	4501                	li	a0,0
   12fd8:	b7f9                	j	12fa6 <__sprint_r.part.0+0x7a>
   12fda:	0ac010ef          	jal	14086 <__sfvwrite_r>
   12fde:	60a6                	ld	ra,72(sp)
   12fe0:	000ab823          	sd	zero,16(s5)
   12fe4:	000aa423          	sw	zero,8(s5)
   12fe8:	6ae2                	ld	s5,24(sp)
   12fea:	6161                	add	sp,sp,80
   12fec:	8082                	ret

0000000000012fee <__sprint_r>:
   12fee:	6a18                	ld	a4,16(a2)
   12ff0:	c311                	beqz	a4,12ff4 <__sprint_r+0x6>
   12ff2:	bf2d                	j	12f2c <__sprint_r.part.0>
   12ff4:	00062423          	sw	zero,8(a2)
   12ff8:	4501                	li	a0,0
   12ffa:	8082                	ret

0000000000012ffc <_vfiprintf_r>:
   12ffc:	7105                	add	sp,sp,-480
   12ffe:	fb52                	sd	s4,432(sp)
   13000:	f756                	sd	s5,424(sp)
   13002:	ef5e                	sd	s7,408(sp)
   13004:	e36a                	sd	s10,384(sp)
   13006:	ef86                	sd	ra,472(sp)
   13008:	e766                	sd	s9,392(sp)
   1300a:	8aaa                	mv	s5,a0
   1300c:	8a2e                	mv	s4,a1
   1300e:	8d32                	mv	s10,a2
   13010:	8bb6                	mv	s7,a3
   13012:	c501                	beqz	a0,1301a <_vfiprintf_r+0x1e>
   13014:	653c                	ld	a5,72(a0)
   13016:	3e0783e3          	beqz	a5,13bfc <_vfiprintf_r+0xc00>
   1301a:	010a1783          	lh	a5,16(s4)
   1301e:	03279693          	sll	a3,a5,0x32
   13022:	0206c163          	bltz	a3,13044 <_vfiprintf_r+0x48>
   13026:	0aca2683          	lw	a3,172(s4)
   1302a:	6589                	lui	a1,0x2
   1302c:	7679                	lui	a2,0xffffe
   1302e:	8fcd                	or	a5,a5,a1
   13030:	167d                	add	a2,a2,-1 # ffffffffffffdfff <__BSS_END__+0xfffffffffffe25c7>
   13032:	0107979b          	sllw	a5,a5,0x10
   13036:	4107d79b          	sraw	a5,a5,0x10
   1303a:	8ef1                	and	a3,a3,a2
   1303c:	00fa1823          	sh	a5,16(s4)
   13040:	0ada2623          	sw	a3,172(s4)
   13044:	0087f693          	and	a3,a5,8
   13048:	cef9                	beqz	a3,13126 <_vfiprintf_r+0x12a>
   1304a:	018a3683          	ld	a3,24(s4)
   1304e:	cee1                	beqz	a3,13126 <_vfiprintf_r+0x12a>
   13050:	8be9                	and	a5,a5,26
   13052:	46a9                	li	a3,10
   13054:	0ed78563          	beq	a5,a3,1313e <_vfiprintf_r+0x142>
   13058:	4c81                	li	s9,0
   1305a:	ff4e                	sd	s3,440(sp)
   1305c:	0f010993          	add	s3,sp,240
   13060:	eba2                	sd	s0,464(sp)
   13062:	e3ca                	sd	s2,448(sp)
   13064:	f35a                	sd	s6,416(sp)
   13066:	eb62                	sd	s8,400(sp)
   13068:	feee                	sd	s11,376(sp)
   1306a:	e7a6                	sd	s1,456(sp)
   1306c:	8de6                	mv	s11,s9
   1306e:	f8ce                	sd	s3,112(sp)
   13070:	e102                	sd	zero,128(sp)
   13072:	dc82                	sw	zero,120(sp)
   13074:	844e                	mv	s0,s3
   13076:	e402                	sd	zero,8(sp)
   13078:	fc02                	sd	zero,56(sp)
   1307a:	f802                	sd	zero,48(sp)
   1307c:	e082                	sd	zero,64(sp)
   1307e:	00006c17          	auipc	s8,0x6
   13082:	342c0c13          	add	s8,s8,834 # 193c0 <blanks.1+0x70>
   13086:	4941                	li	s2,16
   13088:	00006b17          	auipc	s6,0x6
   1308c:	4a8b0b13          	add	s6,s6,1192 # 19530 <zeroes.0>
   13090:	8cde                	mv	s9,s7
   13092:	000d4783          	lbu	a5,0(s10)
   13096:	24078463          	beqz	a5,132de <_vfiprintf_r+0x2e2>
   1309a:	84ea                	mv	s1,s10
   1309c:	02500713          	li	a4,37
   130a0:	2ae78563          	beq	a5,a4,1334a <_vfiprintf_r+0x34e>
   130a4:	0014c783          	lbu	a5,1(s1)
   130a8:	0485                	add	s1,s1,1
   130aa:	fbfd                	bnez	a5,130a0 <_vfiprintf_r+0xa4>
   130ac:	41a48bbb          	subw	s7,s1,s10
   130b0:	220b8763          	beqz	s7,132de <_vfiprintf_r+0x2e2>
   130b4:	57e6                	lw	a5,120(sp)
   130b6:	670a                	ld	a4,128(sp)
   130b8:	01a43023          	sd	s10,0(s0)
   130bc:	0017861b          	addw	a2,a5,1
   130c0:	975e                	add	a4,a4,s7
   130c2:	01743423          	sd	s7,8(s0)
   130c6:	e13a                	sd	a4,128(sp)
   130c8:	dcb2                	sw	a2,120(sp)
   130ca:	479d                	li	a5,7
   130cc:	0441                	add	s0,s0,16
   130ce:	00c7db63          	bge	a5,a2,130e4 <_vfiprintf_r+0xe8>
   130d2:	120702e3          	beqz	a4,139f6 <_vfiprintf_r+0x9fa>
   130d6:	1890                	add	a2,sp,112
   130d8:	85d2                	mv	a1,s4
   130da:	8556                	mv	a0,s5
   130dc:	e51ff0ef          	jal	12f2c <__sprint_r.part.0>
   130e0:	e559                	bnez	a0,1316e <_vfiprintf_r+0x172>
   130e2:	844e                	mv	s0,s3
   130e4:	0004c783          	lbu	a5,0(s1)
   130e8:	01bb8dbb          	addw	s11,s7,s11
   130ec:	1e078963          	beqz	a5,132de <_vfiprintf_r+0x2e2>
   130f0:	0014c783          	lbu	a5,1(s1)
   130f4:	00148d13          	add	s10,s1,1
   130f8:	060103a3          	sb	zero,103(sp)
   130fc:	54fd                	li	s1,-1
   130fe:	4881                	li	a7,0
   13100:	4801                	li	a6,0
   13102:	05a00b93          	li	s7,90
   13106:	0d05                	add	s10,s10,1
   13108:	2781                	sext.w	a5,a5
   1310a:	fe07871b          	addw	a4,a5,-32
   1310e:	0007069b          	sext.w	a3,a4
   13112:	0cdbe063          	bltu	s7,a3,131d2 <_vfiprintf_r+0x1d6>
   13116:	02071693          	sll	a3,a4,0x20
   1311a:	01e6d713          	srl	a4,a3,0x1e
   1311e:	9762                	add	a4,a4,s8
   13120:	4318                	lw	a4,0(a4)
   13122:	9762                	add	a4,a4,s8
   13124:	8702                	jr	a4
   13126:	85d2                	mv	a1,s4
   13128:	8556                	mv	a0,s5
   1312a:	2be010ef          	jal	143e8 <__swsetup_r>
   1312e:	3a051ae3          	bnez	a0,13ce2 <_vfiprintf_r+0xce6>
   13132:	010a1783          	lh	a5,16(s4)
   13136:	46a9                	li	a3,10
   13138:	8be9                	and	a5,a5,26
   1313a:	f0d79fe3          	bne	a5,a3,13058 <_vfiprintf_r+0x5c>
   1313e:	012a1783          	lh	a5,18(s4)
   13142:	f007cbe3          	bltz	a5,13058 <_vfiprintf_r+0x5c>
   13146:	60fe                	ld	ra,472(sp)
   13148:	6cba                	ld	s9,392(sp)
   1314a:	86de                	mv	a3,s7
   1314c:	866a                	mv	a2,s10
   1314e:	6bfa                	ld	s7,408(sp)
   13150:	6d1a                	ld	s10,384(sp)
   13152:	85d2                	mv	a1,s4
   13154:	8556                	mv	a0,s5
   13156:	7a5a                	ld	s4,432(sp)
   13158:	7aba                	ld	s5,424(sp)
   1315a:	613d                	add	sp,sp,480
   1315c:	3bf0006f          	j	13d1a <__sbprintf>
   13160:	1890                	add	a2,sp,112
   13162:	85d2                	mv	a1,s4
   13164:	8556                	mv	a0,s5
   13166:	dc7ff0ef          	jal	12f2c <__sprint_r.part.0>
   1316a:	16050463          	beqz	a0,132d2 <_vfiprintf_r+0x2d6>
   1316e:	8cee                	mv	s9,s11
   13170:	010a5783          	lhu	a5,16(s4)
   13174:	645e                	ld	s0,464(sp)
   13176:	64be                	ld	s1,456(sp)
   13178:	0407f793          	and	a5,a5,64
   1317c:	691e                	ld	s2,448(sp)
   1317e:	79fa                	ld	s3,440(sp)
   13180:	7b1a                	ld	s6,416(sp)
   13182:	6c5a                	ld	s8,400(sp)
   13184:	7df6                	ld	s11,376(sp)
   13186:	34079ee3          	bnez	a5,13ce2 <_vfiprintf_r+0xce6>
   1318a:	60fe                	ld	ra,472(sp)
   1318c:	7a5a                	ld	s4,432(sp)
   1318e:	7aba                	ld	s5,424(sp)
   13190:	6bfa                	ld	s7,408(sp)
   13192:	6d1a                	ld	s10,384(sp)
   13194:	8566                	mv	a0,s9
   13196:	6cba                	ld	s9,392(sp)
   13198:	613d                	add	sp,sp,480
   1319a:	8082                	ret
   1319c:	4881                	li	a7,0
   1319e:	4625                	li	a2,9
   131a0:	000d4683          	lbu	a3,0(s10)
   131a4:	0028971b          	sllw	a4,a7,0x2
   131a8:	011708bb          	addw	a7,a4,a7
   131ac:	fd07879b          	addw	a5,a5,-48
   131b0:	0018989b          	sllw	a7,a7,0x1
   131b4:	fd06871b          	addw	a4,a3,-48
   131b8:	011788bb          	addw	a7,a5,a7
   131bc:	0d05                	add	s10,s10,1
   131be:	0006879b          	sext.w	a5,a3
   131c2:	fce67fe3          	bgeu	a2,a4,131a0 <_vfiprintf_r+0x1a4>
   131c6:	fe07871b          	addw	a4,a5,-32
   131ca:	0007069b          	sext.w	a3,a4
   131ce:	f4dbf4e3          	bgeu	s7,a3,13116 <_vfiprintf_r+0x11a>
   131d2:	10078663          	beqz	a5,132de <_vfiprintf_r+0x2e2>
   131d6:	08f10423          	sb	a5,136(sp)
   131da:	060103a3          	sb	zero,103(sp)
   131de:	4305                	li	t1,1
   131e0:	4e05                	li	t3,1
   131e2:	08810b93          	add	s7,sp,136
   131e6:	4481                	li	s1,0
   131e8:	4f81                	li	t6,0
   131ea:	5666                	lw	a2,120(sp)
   131ec:	08487293          	and	t0,a6,132
   131f0:	678a                	ld	a5,128(sp)
   131f2:	0016051b          	addw	a0,a2,1
   131f6:	85aa                	mv	a1,a0
   131f8:	00029663          	bnez	t0,13204 <_vfiprintf_r+0x208>
   131fc:	4068873b          	subw	a4,a7,t1
   13200:	64e04d63          	bgtz	a4,1385a <_vfiprintf_r+0x85e>
   13204:	06714703          	lbu	a4,103(sp)
   13208:	cf19                	beqz	a4,13226 <_vfiprintf_r+0x22a>
   1320a:	06710713          	add	a4,sp,103
   1320e:	0785                	add	a5,a5,1
   13210:	e018                	sd	a4,0(s0)
   13212:	4705                	li	a4,1
   13214:	e418                	sd	a4,8(s0)
   13216:	e13e                	sd	a5,128(sp)
   13218:	dcaa                	sw	a0,120(sp)
   1321a:	471d                	li	a4,7
   1321c:	5aa74e63          	blt	a4,a0,137d8 <_vfiprintf_r+0x7dc>
   13220:	862a                	mv	a2,a0
   13222:	0441                	add	s0,s0,16
   13224:	2505                	addw	a0,a0,1
   13226:	040f8363          	beqz	t6,1326c <_vfiprintf_r+0x270>
   1322a:	10b8                	add	a4,sp,104
   1322c:	0789                	add	a5,a5,2
   1322e:	e018                	sd	a4,0(s0)
   13230:	4709                	li	a4,2
   13232:	e418                	sd	a4,8(s0)
   13234:	e13e                	sd	a5,128(sp)
   13236:	dcaa                	sw	a0,120(sp)
   13238:	471d                	li	a4,7
   1323a:	5ea75163          	bge	a4,a0,1381c <_vfiprintf_r+0x820>
   1323e:	7c078063          	beqz	a5,139fe <_vfiprintf_r+0xa02>
   13242:	1890                	add	a2,sp,112
   13244:	85d2                	mv	a1,s4
   13246:	8556                	mv	a0,s5
   13248:	e49a                	sd	t1,72(sp)
   1324a:	f442                	sd	a6,40(sp)
   1324c:	f046                	sd	a7,32(sp)
   1324e:	ec72                	sd	t3,24(sp)
   13250:	e816                	sd	t0,16(sp)
   13252:	cdbff0ef          	jal	12f2c <__sprint_r.part.0>
   13256:	fd01                	bnez	a0,1316e <_vfiprintf_r+0x172>
   13258:	5666                	lw	a2,120(sp)
   1325a:	678a                	ld	a5,128(sp)
   1325c:	6326                	ld	t1,72(sp)
   1325e:	7822                	ld	a6,40(sp)
   13260:	7882                	ld	a7,32(sp)
   13262:	6e62                	ld	t3,24(sp)
   13264:	62c2                	ld	t0,16(sp)
   13266:	844e                	mv	s0,s3
   13268:	0016051b          	addw	a0,a2,1
   1326c:	08000713          	li	a4,128
   13270:	40e28263          	beq	t0,a4,13674 <_vfiprintf_r+0x678>
   13274:	41c484bb          	subw	s1,s1,t3
   13278:	4c904363          	bgtz	s1,1373e <_vfiprintf_r+0x742>
   1327c:	97f2                	add	a5,a5,t3
   1327e:	01743023          	sd	s7,0(s0)
   13282:	01c43423          	sd	t3,8(s0)
   13286:	e13e                	sd	a5,128(sp)
   13288:	dcaa                	sw	a0,120(sp)
   1328a:	471d                	li	a4,7
   1328c:	3ea75263          	bge	a4,a0,13670 <_vfiprintf_r+0x674>
   13290:	66078a63          	beqz	a5,13904 <_vfiprintf_r+0x908>
   13294:	1890                	add	a2,sp,112
   13296:	85d2                	mv	a1,s4
   13298:	8556                	mv	a0,s5
   1329a:	f01a                	sd	t1,32(sp)
   1329c:	ec42                	sd	a6,24(sp)
   1329e:	e846                	sd	a7,16(sp)
   132a0:	c8dff0ef          	jal	12f2c <__sprint_r.part.0>
   132a4:	ec0515e3          	bnez	a0,1316e <_vfiprintf_r+0x172>
   132a8:	678a                	ld	a5,128(sp)
   132aa:	7302                	ld	t1,32(sp)
   132ac:	6862                	ld	a6,24(sp)
   132ae:	68c2                	ld	a7,16(sp)
   132b0:	844e                	mv	s0,s3
   132b2:	00487813          	and	a6,a6,4
   132b6:	00080663          	beqz	a6,132c2 <_vfiprintf_r+0x2c6>
   132ba:	406884bb          	subw	s1,a7,t1
   132be:	64904d63          	bgtz	s1,13918 <_vfiprintf_r+0x91c>
   132c2:	8746                	mv	a4,a7
   132c4:	0068d363          	bge	a7,t1,132ca <_vfiprintf_r+0x2ce>
   132c8:	871a                	mv	a4,t1
   132ca:	01b70dbb          	addw	s11,a4,s11
   132ce:	e80799e3          	bnez	a5,13160 <_vfiprintf_r+0x164>
   132d2:	000d4783          	lbu	a5,0(s10)
   132d6:	dc82                	sw	zero,120(sp)
   132d8:	844e                	mv	s0,s3
   132da:	dc0790e3          	bnez	a5,1309a <_vfiprintf_r+0x9e>
   132de:	678a                	ld	a5,128(sp)
   132e0:	8cee                	mv	s9,s11
   132e2:	e80787e3          	beqz	a5,13170 <_vfiprintf_r+0x174>
   132e6:	1890                	add	a2,sp,112
   132e8:	85d2                	mv	a1,s4
   132ea:	8556                	mv	a0,s5
   132ec:	c41ff0ef          	jal	12f2c <__sprint_r.part.0>
   132f0:	b541                	j	13170 <_vfiprintf_r+0x174>
   132f2:	01086813          	or	a6,a6,16
   132f6:	000d4783          	lbu	a5,0(s10)
   132fa:	2801                	sext.w	a6,a6
   132fc:	b529                	j	13106 <_vfiprintf_r+0x10a>
   132fe:	01086813          	or	a6,a6,16
   13302:	2801                	sext.w	a6,a6
   13304:	02087793          	and	a5,a6,32
   13308:	008c8e93          	add	t4,s9,8
   1330c:	c7b1                	beqz	a5,13358 <_vfiprintf_r+0x35c>
   1330e:	000cb783          	ld	a5,0(s9)
   13312:	8cbe                	mv	s9,a5
   13314:	0607c263          	bltz	a5,13378 <_vfiprintf_r+0x37c>
   13318:	0604cb63          	bltz	s1,1338e <_vfiprintf_r+0x392>
   1331c:	f7f87813          	and	a6,a6,-129
   13320:	2801                	sext.w	a6,a6
   13322:	060c9663          	bnez	s9,1338e <_vfiprintf_r+0x392>
   13326:	18049ce3          	bnez	s1,13cbe <_vfiprintf_r+0xcc2>
   1332a:	06714783          	lbu	a5,103(sp)
   1332e:	4301                	li	t1,0
   13330:	4e01                	li	t3,0
   13332:	8cf6                	mv	s9,t4
   13334:	0ec10b93          	add	s7,sp,236
   13338:	c391                	beqz	a5,1333c <_vfiprintf_r+0x340>
   1333a:	2305                	addw	t1,t1,1
   1333c:	00287f93          	and	t6,a6,2
   13340:	ea0f85e3          	beqz	t6,131ea <_vfiprintf_r+0x1ee>
   13344:	2309                	addw	t1,t1,2
   13346:	4f89                	li	t6,2
   13348:	b54d                	j	131ea <_vfiprintf_r+0x1ee>
   1334a:	41a48bbb          	subw	s7,s1,s10
   1334e:	d60b93e3          	bnez	s7,130b4 <_vfiprintf_r+0xb8>
   13352:	0004c783          	lbu	a5,0(s1)
   13356:	bb59                	j	130ec <_vfiprintf_r+0xf0>
   13358:	01087793          	and	a5,a6,16
   1335c:	fbcd                	bnez	a5,1330e <_vfiprintf_r+0x312>
   1335e:	04087793          	and	a5,a6,64
   13362:	000cac83          	lw	s9,0(s9)
   13366:	0e078de3          	beqz	a5,13c60 <_vfiprintf_r+0xc64>
   1336a:	010c9c9b          	sllw	s9,s9,0x10
   1336e:	410cdc9b          	sraw	s9,s9,0x10
   13372:	87e6                	mv	a5,s9
   13374:	fa07d2e3          	bgez	a5,13318 <_vfiprintf_r+0x31c>
   13378:	02d00793          	li	a5,45
   1337c:	06f103a3          	sb	a5,103(sp)
   13380:	41900cb3          	neg	s9,s9
   13384:	0004c563          	bltz	s1,1338e <_vfiprintf_r+0x392>
   13388:	f7f87813          	and	a6,a6,-129
   1338c:	2801                	sext.w	a6,a6
   1338e:	47a5                	li	a5,9
   13390:	6b97ec63          	bltu	a5,s9,13a48 <_vfiprintf_r+0xa4c>
   13394:	030c879b          	addw	a5,s9,48
   13398:	0ff7f793          	zext.b	a5,a5
   1339c:	8cf6                	mv	s9,t4
   1339e:	0ef105a3          	sb	a5,235(sp)
   133a2:	0004831b          	sext.w	t1,s1
   133a6:	00904363          	bgtz	s1,133ac <_vfiprintf_r+0x3b0>
   133aa:	4305                	li	t1,1
   133ac:	4e05                	li	t3,1
   133ae:	0eb10b93          	add	s7,sp,235
   133b2:	06714783          	lbu	a5,103(sp)
   133b6:	f3d1                	bnez	a5,1333a <_vfiprintf_r+0x33e>
   133b8:	b751                	j	1333c <_vfiprintf_r+0x340>
   133ba:	000cbb83          	ld	s7,0(s9)
   133be:	060103a3          	sb	zero,103(sp)
   133c2:	0ca1                	add	s9,s9,8
   133c4:	060b80e3          	beqz	s7,13c24 <_vfiprintf_r+0xc28>
   133c8:	ec42                	sd	a6,24(sp)
   133ca:	e846                	sd	a7,16(sp)
   133cc:	7a04cd63          	bltz	s1,13b86 <_vfiprintf_r+0xb8a>
   133d0:	8626                	mv	a2,s1
   133d2:	4581                	li	a1,0
   133d4:	855e                	mv	a0,s7
   133d6:	202010ef          	jal	145d8 <memchr>
   133da:	68c2                	ld	a7,16(sp)
   133dc:	6862                	ld	a6,24(sp)
   133de:	8e26                	mv	t3,s1
   133e0:	c119                	beqz	a0,133e6 <_vfiprintf_r+0x3ea>
   133e2:	41750e3b          	subw	t3,a0,s7
   133e6:	fffe4313          	not	t1,t3
   133ea:	06714783          	lbu	a5,103(sp)
   133ee:	43f35313          	sra	t1,t1,0x3f
   133f2:	006e7333          	and	t1,t3,t1
   133f6:	2301                	sext.w	t1,t1
   133f8:	4481                	li	s1,0
   133fa:	4f81                	li	t6,0
   133fc:	ff9d                	bnez	a5,1333a <_vfiprintf_r+0x33e>
   133fe:	b3f5                	j	131ea <_vfiprintf_r+0x1ee>
   13400:	000ca783          	lw	a5,0(s9)
   13404:	060103a3          	sb	zero,103(sp)
   13408:	0ca1                	add	s9,s9,8
   1340a:	08f10423          	sb	a5,136(sp)
   1340e:	4305                	li	t1,1
   13410:	4e05                	li	t3,1
   13412:	08810b93          	add	s7,sp,136
   13416:	bbc1                	j	131e6 <_vfiprintf_r+0x1ea>
   13418:	000ca883          	lw	a7,0(s9)
   1341c:	0ca1                	add	s9,s9,8
   1341e:	0a08d163          	bgez	a7,134c0 <_vfiprintf_r+0x4c4>
   13422:	411008bb          	negw	a7,a7
   13426:	00486813          	or	a6,a6,4
   1342a:	000d4783          	lbu	a5,0(s10)
   1342e:	2801                	sext.w	a6,a6
   13430:	b9d9                	j	13106 <_vfiprintf_r+0x10a>
   13432:	02b00713          	li	a4,43
   13436:	000d4783          	lbu	a5,0(s10)
   1343a:	06e103a3          	sb	a4,103(sp)
   1343e:	b1e1                	j	13106 <_vfiprintf_r+0x10a>
   13440:	08086813          	or	a6,a6,128
   13444:	000d4783          	lbu	a5,0(s10)
   13448:	2801                	sext.w	a6,a6
   1344a:	b975                	j	13106 <_vfiprintf_r+0x10a>
   1344c:	000d4783          	lbu	a5,0(s10)
   13450:	02a00613          	li	a2,42
   13454:	001d0693          	add	a3,s10,1
   13458:	08c78de3          	beq	a5,a2,13cf2 <_vfiprintf_r+0xcf6>
   1345c:	fd07871b          	addw	a4,a5,-48
   13460:	4525                	li	a0,9
   13462:	4601                	li	a2,0
   13464:	45a5                	li	a1,9
   13466:	8d36                	mv	s10,a3
   13468:	4481                	li	s1,0
   1346a:	cae560e3          	bltu	a0,a4,1310a <_vfiprintf_r+0x10e>
   1346e:	0006c783          	lbu	a5,0(a3)
   13472:	0026149b          	sllw	s1,a2,0x2
   13476:	9cb1                	addw	s1,s1,a2
   13478:	0014949b          	sllw	s1,s1,0x1
   1347c:	00e4863b          	addw	a2,s1,a4
   13480:	fd07871b          	addw	a4,a5,-48
   13484:	84b2                	mv	s1,a2
   13486:	0685                	add	a3,a3,1
   13488:	fee5f3e3          	bgeu	a1,a4,1346e <_vfiprintf_r+0x472>
   1348c:	68064163          	bltz	a2,13b0e <_vfiprintf_r+0xb12>
   13490:	8d36                	mv	s10,a3
   13492:	b9a5                	j	1310a <_vfiprintf_r+0x10e>
   13494:	8556                	mv	a0,s5
   13496:	ec42                	sd	a6,24(sp)
   13498:	e846                	sd	a7,16(sp)
   1349a:	33c010ef          	jal	147d6 <_localeconv_r>
   1349e:	651c                	ld	a5,8(a0)
   134a0:	853e                	mv	a0,a5
   134a2:	e0be                	sd	a5,64(sp)
   134a4:	5be010ef          	jal	14a62 <strlen>
   134a8:	87aa                	mv	a5,a0
   134aa:	8556                	mv	a0,s5
   134ac:	f83e                	sd	a5,48(sp)
   134ae:	328010ef          	jal	147d6 <_localeconv_r>
   134b2:	6918                	ld	a4,16(a0)
   134b4:	77c2                	ld	a5,48(sp)
   134b6:	68c2                	ld	a7,16(sp)
   134b8:	fc3a                	sd	a4,56(sp)
   134ba:	6862                	ld	a6,24(sp)
   134bc:	62079363          	bnez	a5,13ae2 <_vfiprintf_r+0xae6>
   134c0:	000d4783          	lbu	a5,0(s10)
   134c4:	b189                	j	13106 <_vfiprintf_r+0x10a>
   134c6:	00186813          	or	a6,a6,1
   134ca:	000d4783          	lbu	a5,0(s10)
   134ce:	2801                	sext.w	a6,a6
   134d0:	b91d                	j	13106 <_vfiprintf_r+0x10a>
   134d2:	06714703          	lbu	a4,103(sp)
   134d6:	000d4783          	lbu	a5,0(s10)
   134da:	c20716e3          	bnez	a4,13106 <_vfiprintf_r+0x10a>
   134de:	02000713          	li	a4,32
   134e2:	06e103a3          	sb	a4,103(sp)
   134e6:	b105                	j	13106 <_vfiprintf_r+0x10a>
   134e8:	01086793          	or	a5,a6,16
   134ec:	2781                	sext.w	a5,a5
   134ee:	0207f713          	and	a4,a5,32
   134f2:	008c8613          	add	a2,s9,8
   134f6:	e709                	bnez	a4,13500 <_vfiprintf_r+0x504>
   134f8:	0107f713          	and	a4,a5,16
   134fc:	5c070a63          	beqz	a4,13ad0 <_vfiprintf_r+0xad4>
   13500:	000cb703          	ld	a4,0(s9)
   13504:	bff7f813          	and	a6,a5,-1025
   13508:	060103a3          	sb	zero,103(sp)
   1350c:	2801                	sext.w	a6,a6
   1350e:	8cb2                	mv	s9,a2
   13510:	0804c463          	bltz	s1,13598 <_vfiprintf_r+0x59c>
   13514:	b7f7f793          	and	a5,a5,-1153
   13518:	2781                	sext.w	a5,a5
   1351a:	6c071c63          	bnez	a4,13bf2 <_vfiprintf_r+0xbf6>
   1351e:	8e42                	mv	t3,a6
   13520:	883e                	mv	a6,a5
   13522:	e4a5                	bnez	s1,1358a <_vfiprintf_r+0x58e>
   13524:	50071d63          	bnez	a4,13a3e <_vfiprintf_r+0xa42>
   13528:	001e7e13          	and	t3,t3,1
   1352c:	560e0e63          	beqz	t3,13aa8 <_vfiprintf_r+0xaac>
   13530:	03000793          	li	a5,48
   13534:	0ef105a3          	sb	a5,235(sp)
   13538:	8372                	mv	t1,t3
   1353a:	0eb10b93          	add	s7,sp,235
   1353e:	bd95                	j	133b2 <_vfiprintf_r+0x3b6>
   13540:	000d4783          	lbu	a5,0(s10)
   13544:	06c00713          	li	a4,108
   13548:	6ce78663          	beq	a5,a4,13c14 <_vfiprintf_r+0xc18>
   1354c:	01086813          	or	a6,a6,16
   13550:	2801                	sext.w	a6,a6
   13552:	be55                	j	13106 <_vfiprintf_r+0x10a>
   13554:	01086e13          	or	t3,a6,16
   13558:	2e01                	sext.w	t3,t3
   1355a:	020e7793          	and	a5,t3,32
   1355e:	008c8e93          	add	t4,s9,8
   13562:	e789                	bnez	a5,1356c <_vfiprintf_r+0x570>
   13564:	010e7793          	and	a5,t3,16
   13568:	54078a63          	beqz	a5,13abc <_vfiprintf_r+0xac0>
   1356c:	000cbc83          	ld	s9,0(s9)
   13570:	060103a3          	sb	zero,103(sp)
   13574:	8872                	mv	a6,t3
   13576:	e004cce3          	bltz	s1,1338e <_vfiprintf_r+0x392>
   1357a:	f7fe7813          	and	a6,t3,-129
   1357e:	2801                	sext.w	a6,a6
   13580:	e00c97e3          	bnez	s9,1338e <_vfiprintf_r+0x392>
   13584:	8cf6                	mv	s9,t4
   13586:	4705                	li	a4,1
   13588:	dcd1                	beqz	s1,13524 <_vfiprintf_r+0x528>
   1358a:	4785                	li	a5,1
   1358c:	72f70a63          	beq	a4,a5,13cc0 <_vfiprintf_r+0xcc4>
   13590:	4789                	li	a5,2
   13592:	6ef70163          	beq	a4,a5,13c74 <_vfiprintf_r+0xc78>
   13596:	4701                	li	a4,0
   13598:	0ec10e13          	add	t3,sp,236
   1359c:	8bf2                	mv	s7,t3
   1359e:	00777793          	and	a5,a4,7
   135a2:	03078793          	add	a5,a5,48
   135a6:	fefb8fa3          	sb	a5,-1(s7)
   135aa:	830d                	srl	a4,a4,0x3
   135ac:	865e                	mv	a2,s7
   135ae:	1bfd                	add	s7,s7,-1
   135b0:	f77d                	bnez	a4,1359e <_vfiprintf_r+0x5a2>
   135b2:	00187713          	and	a4,a6,1
   135b6:	28070963          	beqz	a4,13848 <_vfiprintf_r+0x84c>
   135ba:	03000713          	li	a4,48
   135be:	28e78563          	beq	a5,a4,13848 <_vfiprintf_r+0x84c>
   135c2:	1679                	add	a2,a2,-2
   135c4:	feeb8fa3          	sb	a4,-1(s7)
   135c8:	40ce0e3b          	subw	t3,t3,a2
   135cc:	0004831b          	sext.w	t1,s1
   135d0:	53c4cb63          	blt	s1,t3,13b06 <_vfiprintf_r+0xb0a>
   135d4:	8bb2                	mv	s7,a2
   135d6:	bbf1                	j	133b2 <_vfiprintf_r+0x3b6>
   135d8:	000d4783          	lbu	a5,0(s10)
   135dc:	06800713          	li	a4,104
   135e0:	62e78263          	beq	a5,a4,13c04 <_vfiprintf_r+0xc08>
   135e4:	04086813          	or	a6,a6,64
   135e8:	2801                	sext.w	a6,a6
   135ea:	be31                	j	13106 <_vfiprintf_r+0x10a>
   135ec:	02086813          	or	a6,a6,32
   135f0:	000d4783          	lbu	a5,0(s10)
   135f4:	2801                	sext.w	a6,a6
   135f6:	be01                	j	13106 <_vfiprintf_r+0x10a>
   135f8:	67a1                	lui	a5,0x8
   135fa:	83078793          	add	a5,a5,-2000 # 7830 <exit-0x88b8>
   135fe:	00286813          	or	a6,a6,2
   13602:	06f11423          	sh	a5,104(sp)
   13606:	00006797          	auipc	a5,0x6
   1360a:	aa278793          	add	a5,a5,-1374 # 190a8 <__clzdi2+0x84>
   1360e:	000cb703          	ld	a4,0(s9)
   13612:	2801                	sext.w	a6,a6
   13614:	0ca1                	add	s9,s9,8
   13616:	e43e                	sd	a5,8(sp)
   13618:	060103a3          	sb	zero,103(sp)
   1361c:	2004c863          	bltz	s1,1382c <_vfiprintf_r+0x830>
   13620:	f7f87793          	and	a5,a6,-129
   13624:	2781                	sext.w	a5,a5
   13626:	1e071f63          	bnez	a4,13824 <_vfiprintf_r+0x828>
   1362a:	8e42                	mv	t3,a6
   1362c:	4709                	li	a4,2
   1362e:	883e                	mv	a6,a5
   13630:	bdcd                	j	13522 <_vfiprintf_r+0x526>
   13632:	02087793          	and	a5,a6,32
   13636:	000cb703          	ld	a4,0(s9)
   1363a:	e385                	bnez	a5,1365a <_vfiprintf_r+0x65e>
   1363c:	01087793          	and	a5,a6,16
   13640:	ef89                	bnez	a5,1365a <_vfiprintf_r+0x65e>
   13642:	04087793          	and	a5,a6,64
   13646:	64079563          	bnez	a5,13c90 <_vfiprintf_r+0xc94>
   1364a:	20087813          	and	a6,a6,512
   1364e:	68080d63          	beqz	a6,13ce8 <_vfiprintf_r+0xcec>
   13652:	01b70023          	sb	s11,0(a4)
   13656:	0ca1                	add	s9,s9,8
   13658:	bc2d                	j	13092 <_vfiprintf_r+0x96>
   1365a:	01b73023          	sd	s11,0(a4)
   1365e:	0ca1                	add	s9,s9,8
   13660:	bc0d                	j	13092 <_vfiprintf_r+0x96>
   13662:	4705                	li	a4,1
   13664:	87f2                	mv	a5,t3
   13666:	f9de                	sd	s7,240(sp)
   13668:	fdf2                	sd	t3,248(sp)
   1366a:	e172                	sd	t3,128(sp)
   1366c:	dcba                	sw	a4,120(sp)
   1366e:	844e                	mv	s0,s3
   13670:	0441                	add	s0,s0,16
   13672:	b181                	j	132b2 <_vfiprintf_r+0x2b6>
   13674:	4068873b          	subw	a4,a7,t1
   13678:	bee05ee3          	blez	a4,13274 <_vfiprintf_r+0x278>
   1367c:	45c1                	li	a1,16
   1367e:	64e5dc63          	bge	a1,a4,13cd6 <_vfiprintf_r+0xcda>
   13682:	00006e97          	auipc	t4,0x6
   13686:	eaee8e93          	add	t4,t4,-338 # 19530 <zeroes.0>
   1368a:	f026                	sd	s1,32(sp)
   1368c:	86a2                	mv	a3,s0
   1368e:	4f41                	li	t5,16
   13690:	4f9d                	li	t6,7
   13692:	e872                	sd	t3,16(sp)
   13694:	ec46                	sd	a7,24(sp)
   13696:	f442                	sd	a6,40(sp)
   13698:	e49a                	sd	t1,72(sp)
   1369a:	843a                	mv	s0,a4
   1369c:	84f6                	mv	s1,t4
   1369e:	a801                	j	136ae <_vfiprintf_r+0x6b2>
   136a0:	0026059b          	addw	a1,a2,2
   136a4:	06c1                	add	a3,a3,16
   136a6:	862a                	mv	a2,a0
   136a8:	3441                	addw	s0,s0,-16
   136aa:	028f5f63          	bge	t5,s0,136e8 <_vfiprintf_r+0x6ec>
   136ae:	0016051b          	addw	a0,a2,1
   136b2:	07c1                	add	a5,a5,16
   136b4:	e284                	sd	s1,0(a3)
   136b6:	01e6b423          	sd	t5,8(a3)
   136ba:	e13e                	sd	a5,128(sp)
   136bc:	dcaa                	sw	a0,120(sp)
   136be:	feafd1e3          	bge	t6,a0,136a0 <_vfiprintf_r+0x6a4>
   136c2:	10078763          	beqz	a5,137d0 <_vfiprintf_r+0x7d4>
   136c6:	1890                	add	a2,sp,112
   136c8:	85d2                	mv	a1,s4
   136ca:	8556                	mv	a0,s5
   136cc:	861ff0ef          	jal	12f2c <__sprint_r.part.0>
   136d0:	a8051fe3          	bnez	a0,1316e <_vfiprintf_r+0x172>
   136d4:	5666                	lw	a2,120(sp)
   136d6:	4f41                	li	t5,16
   136d8:	3441                	addw	s0,s0,-16
   136da:	678a                	ld	a5,128(sp)
   136dc:	86ce                	mv	a3,s3
   136de:	0016059b          	addw	a1,a2,1
   136e2:	4f9d                	li	t6,7
   136e4:	fc8f45e3          	blt	t5,s0,136ae <_vfiprintf_r+0x6b2>
   136e8:	8ea6                	mv	t4,s1
   136ea:	6e42                	ld	t3,16(sp)
   136ec:	68e2                	ld	a7,24(sp)
   136ee:	7822                	ld	a6,40(sp)
   136f0:	6326                	ld	t1,72(sp)
   136f2:	7482                	ld	s1,32(sp)
   136f4:	8722                	mv	a4,s0
   136f6:	8436                	mv	s0,a3
   136f8:	97ba                	add	a5,a5,a4
   136fa:	e418                	sd	a4,8(s0)
   136fc:	01d43023          	sd	t4,0(s0)
   13700:	e13e                	sd	a5,128(sp)
   13702:	dcae                	sw	a1,120(sp)
   13704:	471d                	li	a4,7
   13706:	3ab75563          	bge	a4,a1,13ab0 <_vfiprintf_r+0xab4>
   1370a:	56078763          	beqz	a5,13c78 <_vfiprintf_r+0xc7c>
   1370e:	1890                	add	a2,sp,112
   13710:	85d2                	mv	a1,s4
   13712:	8556                	mv	a0,s5
   13714:	f41a                	sd	t1,40(sp)
   13716:	f042                	sd	a6,32(sp)
   13718:	ec46                	sd	a7,24(sp)
   1371a:	e872                	sd	t3,16(sp)
   1371c:	811ff0ef          	jal	12f2c <__sprint_r.part.0>
   13720:	a40517e3          	bnez	a0,1316e <_vfiprintf_r+0x172>
   13724:	6e42                	ld	t3,16(sp)
   13726:	5666                	lw	a2,120(sp)
   13728:	678a                	ld	a5,128(sp)
   1372a:	41c484bb          	subw	s1,s1,t3
   1372e:	7322                	ld	t1,40(sp)
   13730:	7802                	ld	a6,32(sp)
   13732:	68e2                	ld	a7,24(sp)
   13734:	844e                	mv	s0,s3
   13736:	0016051b          	addw	a0,a2,1
   1373a:	b49051e3          	blez	s1,1327c <_vfiprintf_r+0x280>
   1373e:	00006e97          	auipc	t4,0x6
   13742:	df2e8e93          	add	t4,t4,-526 # 19530 <zeroes.0>
   13746:	06995563          	bge	s2,s1,137b0 <_vfiprintf_r+0x7b4>
   1374a:	8722                	mv	a4,s0
   1374c:	4f1d                	li	t5,7
   1374e:	8426                	mv	s0,s1
   13750:	e872                	sd	t3,16(sp)
   13752:	ec46                	sd	a7,24(sp)
   13754:	f042                	sd	a6,32(sp)
   13756:	f41a                	sd	t1,40(sp)
   13758:	84da                	mv	s1,s6
   1375a:	a801                	j	1376a <_vfiprintf_r+0x76e>
   1375c:	0026051b          	addw	a0,a2,2
   13760:	0741                	add	a4,a4,16
   13762:	862e                	mv	a2,a1
   13764:	3441                	addw	s0,s0,-16
   13766:	02895e63          	bge	s2,s0,137a2 <_vfiprintf_r+0x7a6>
   1376a:	0016059b          	addw	a1,a2,1
   1376e:	07c1                	add	a5,a5,16
   13770:	01673023          	sd	s6,0(a4)
   13774:	01273423          	sd	s2,8(a4)
   13778:	e13e                	sd	a5,128(sp)
   1377a:	dcae                	sw	a1,120(sp)
   1377c:	febf50e3          	bge	t5,a1,1375c <_vfiprintf_r+0x760>
   13780:	c7a1                	beqz	a5,137c8 <_vfiprintf_r+0x7cc>
   13782:	1890                	add	a2,sp,112
   13784:	85d2                	mv	a1,s4
   13786:	8556                	mv	a0,s5
   13788:	fa4ff0ef          	jal	12f2c <__sprint_r.part.0>
   1378c:	9e0511e3          	bnez	a0,1316e <_vfiprintf_r+0x172>
   13790:	5666                	lw	a2,120(sp)
   13792:	3441                	addw	s0,s0,-16
   13794:	678a                	ld	a5,128(sp)
   13796:	874e                	mv	a4,s3
   13798:	0016051b          	addw	a0,a2,1
   1379c:	4f1d                	li	t5,7
   1379e:	fc8946e3          	blt	s2,s0,1376a <_vfiprintf_r+0x76e>
   137a2:	6e42                	ld	t3,16(sp)
   137a4:	68e2                	ld	a7,24(sp)
   137a6:	7802                	ld	a6,32(sp)
   137a8:	7322                	ld	t1,40(sp)
   137aa:	8ea6                	mv	t4,s1
   137ac:	84a2                	mv	s1,s0
   137ae:	843a                	mv	s0,a4
   137b0:	97a6                	add	a5,a5,s1
   137b2:	01d43023          	sd	t4,0(s0)
   137b6:	e404                	sd	s1,8(s0)
   137b8:	e13e                	sd	a5,128(sp)
   137ba:	dcaa                	sw	a0,120(sp)
   137bc:	471d                	li	a4,7
   137be:	20a74663          	blt	a4,a0,139ca <_vfiprintf_r+0x9ce>
   137c2:	0441                	add	s0,s0,16
   137c4:	2505                	addw	a0,a0,1
   137c6:	bc5d                	j	1327c <_vfiprintf_r+0x280>
   137c8:	4505                	li	a0,1
   137ca:	4601                	li	a2,0
   137cc:	874e                	mv	a4,s3
   137ce:	bf59                	j	13764 <_vfiprintf_r+0x768>
   137d0:	4585                	li	a1,1
   137d2:	4601                	li	a2,0
   137d4:	86ce                	mv	a3,s3
   137d6:	bdc9                	j	136a8 <_vfiprintf_r+0x6ac>
   137d8:	cb95                	beqz	a5,1380c <_vfiprintf_r+0x810>
   137da:	1890                	add	a2,sp,112
   137dc:	85d2                	mv	a1,s4
   137de:	8556                	mv	a0,s5
   137e0:	e89a                	sd	t1,80(sp)
   137e2:	e4c2                	sd	a6,72(sp)
   137e4:	f446                	sd	a7,40(sp)
   137e6:	f072                	sd	t3,32(sp)
   137e8:	ec16                	sd	t0,24(sp)
   137ea:	e87e                	sd	t6,16(sp)
   137ec:	f40ff0ef          	jal	12f2c <__sprint_r.part.0>
   137f0:	96051fe3          	bnez	a0,1316e <_vfiprintf_r+0x172>
   137f4:	5666                	lw	a2,120(sp)
   137f6:	678a                	ld	a5,128(sp)
   137f8:	6346                	ld	t1,80(sp)
   137fa:	6826                	ld	a6,72(sp)
   137fc:	78a2                	ld	a7,40(sp)
   137fe:	7e02                	ld	t3,32(sp)
   13800:	62e2                	ld	t0,24(sp)
   13802:	6fc2                	ld	t6,16(sp)
   13804:	844e                	mv	s0,s3
   13806:	0016051b          	addw	a0,a2,1
   1380a:	bc31                	j	13226 <_vfiprintf_r+0x22a>
   1380c:	2e0f8863          	beqz	t6,13afc <_vfiprintf_r+0xb00>
   13810:	10bc                	add	a5,sp,104
   13812:	f9be                	sd	a5,240(sp)
   13814:	4789                	li	a5,2
   13816:	fdbe                	sd	a5,248(sp)
   13818:	4505                	li	a0,1
   1381a:	844e                	mv	s0,s3
   1381c:	862a                	mv	a2,a0
   1381e:	0441                	add	s0,s0,16
   13820:	2505                	addw	a0,a0,1
   13822:	b4a9                	j	1326c <_vfiprintf_r+0x270>
   13824:	883e                	mv	a6,a5
   13826:	4789                	li	a5,2
   13828:	d60788e3          	beqz	a5,13598 <_vfiprintf_r+0x59c>
   1382c:	66a2                	ld	a3,8(sp)
   1382e:	0ec10e13          	add	t3,sp,236
   13832:	8bf2                	mv	s7,t3
   13834:	00f77793          	and	a5,a4,15
   13838:	97b6                	add	a5,a5,a3
   1383a:	0007c783          	lbu	a5,0(a5)
   1383e:	8311                	srl	a4,a4,0x4
   13840:	1bfd                	add	s7,s7,-1
   13842:	00fb8023          	sb	a5,0(s7)
   13846:	f77d                	bnez	a4,13834 <_vfiprintf_r+0x838>
   13848:	417e0e3b          	subw	t3,t3,s7
   1384c:	0004831b          	sext.w	t1,s1
   13850:	b7c4d1e3          	bge	s1,t3,133b2 <_vfiprintf_r+0x3b6>
   13854:	000e031b          	sext.w	t1,t3
   13858:	bea9                	j	133b2 <_vfiprintf_r+0x3b6>
   1385a:	4ec1                	li	t4,16
   1385c:	44eedc63          	bge	t4,a4,13cb4 <_vfiprintf_r+0xcb8>
   13860:	00006e97          	auipc	t4,0x6
   13864:	ce0e8e93          	add	t4,t4,-800 # 19540 <blanks.1>
   13868:	e4a6                	sd	s1,72(sp)
   1386a:	86a2                	mv	a3,s0
   1386c:	4f41                	li	t5,16
   1386e:	439d                	li	t2,7
   13870:	e87e                	sd	t6,16(sp)
   13872:	ec16                	sd	t0,24(sp)
   13874:	f072                	sd	t3,32(sp)
   13876:	f446                	sd	a7,40(sp)
   13878:	e8c2                	sd	a6,80(sp)
   1387a:	ec9a                	sd	t1,88(sp)
   1387c:	843a                	mv	s0,a4
   1387e:	84f6                	mv	s1,t4
   13880:	a811                	j	13894 <_vfiprintf_r+0x898>
   13882:	0026059b          	addw	a1,a2,2
   13886:	06c1                	add	a3,a3,16
   13888:	862a                	mv	a2,a0
   1388a:	3441                	addw	s0,s0,-16
   1388c:	048f5063          	bge	t5,s0,138cc <_vfiprintf_r+0x8d0>
   13890:	0016059b          	addw	a1,a2,1
   13894:	07c1                	add	a5,a5,16
   13896:	e284                	sd	s1,0(a3)
   13898:	01e6b423          	sd	t5,8(a3)
   1389c:	e13e                	sd	a5,128(sp)
   1389e:	0005851b          	sext.w	a0,a1
   138a2:	dcae                	sw	a1,120(sp)
   138a4:	fca3dfe3          	bge	t2,a0,13882 <_vfiprintf_r+0x886>
   138a8:	cbb1                	beqz	a5,138fc <_vfiprintf_r+0x900>
   138aa:	1890                	add	a2,sp,112
   138ac:	85d2                	mv	a1,s4
   138ae:	8556                	mv	a0,s5
   138b0:	e7cff0ef          	jal	12f2c <__sprint_r.part.0>
   138b4:	8a051de3          	bnez	a0,1316e <_vfiprintf_r+0x172>
   138b8:	5666                	lw	a2,120(sp)
   138ba:	4f41                	li	t5,16
   138bc:	3441                	addw	s0,s0,-16
   138be:	678a                	ld	a5,128(sp)
   138c0:	86ce                	mv	a3,s3
   138c2:	0016059b          	addw	a1,a2,1
   138c6:	439d                	li	t2,7
   138c8:	fc8f44e3          	blt	t5,s0,13890 <_vfiprintf_r+0x894>
   138cc:	8ea6                	mv	t4,s1
   138ce:	6fc2                	ld	t6,16(sp)
   138d0:	62e2                	ld	t0,24(sp)
   138d2:	7e02                	ld	t3,32(sp)
   138d4:	78a2                	ld	a7,40(sp)
   138d6:	6846                	ld	a6,80(sp)
   138d8:	6366                	ld	t1,88(sp)
   138da:	64a6                	ld	s1,72(sp)
   138dc:	8722                	mv	a4,s0
   138de:	8436                	mv	s0,a3
   138e0:	97ba                	add	a5,a5,a4
   138e2:	e418                	sd	a4,8(s0)
   138e4:	01d43023          	sd	t4,0(s0)
   138e8:	e13e                	sd	a5,128(sp)
   138ea:	dcae                	sw	a1,120(sp)
   138ec:	471d                	li	a4,7
   138ee:	10b74c63          	blt	a4,a1,13a06 <_vfiprintf_r+0xa0a>
   138f2:	0441                	add	s0,s0,16
   138f4:	0015851b          	addw	a0,a1,1 # 2001 <exit-0xe0e7>
   138f8:	862e                	mv	a2,a1
   138fa:	b229                	j	13204 <_vfiprintf_r+0x208>
   138fc:	4601                	li	a2,0
   138fe:	4585                	li	a1,1
   13900:	86ce                	mv	a3,s3
   13902:	b761                	j	1388a <_vfiprintf_r+0x88e>
   13904:	dc82                	sw	zero,120(sp)
   13906:	00487813          	and	a6,a6,4
   1390a:	0a080963          	beqz	a6,139bc <_vfiprintf_r+0x9c0>
   1390e:	406884bb          	subw	s1,a7,t1
   13912:	0a905563          	blez	s1,139bc <_vfiprintf_r+0x9c0>
   13916:	844e                	mv	s0,s3
   13918:	4741                	li	a4,16
   1391a:	5666                	lw	a2,120(sp)
   1391c:	3a975663          	bge	a4,s1,13cc8 <_vfiprintf_r+0xccc>
   13920:	00006e97          	auipc	t4,0x6
   13924:	c20e8e93          	add	t4,t4,-992 # 19540 <blanks.1>
   13928:	86a2                	mv	a3,s0
   1392a:	4bc1                	li	s7,16
   1392c:	8426                	mv	s0,s1
   1392e:	481d                	li	a6,7
   13930:	e846                	sd	a7,16(sp)
   13932:	ec1a                	sd	t1,24(sp)
   13934:	84f6                	mv	s1,t4
   13936:	a801                	j	13946 <_vfiprintf_r+0x94a>
   13938:	0026071b          	addw	a4,a2,2
   1393c:	06c1                	add	a3,a3,16
   1393e:	862e                	mv	a2,a1
   13940:	3441                	addw	s0,s0,-16
   13942:	028bdd63          	bge	s7,s0,1397c <_vfiprintf_r+0x980>
   13946:	0016059b          	addw	a1,a2,1
   1394a:	07c1                	add	a5,a5,16
   1394c:	e284                	sd	s1,0(a3)
   1394e:	0176b423          	sd	s7,8(a3)
   13952:	e13e                	sd	a5,128(sp)
   13954:	dcae                	sw	a1,120(sp)
   13956:	feb851e3          	bge	a6,a1,13938 <_vfiprintf_r+0x93c>
   1395a:	cfa9                	beqz	a5,139b4 <_vfiprintf_r+0x9b8>
   1395c:	1890                	add	a2,sp,112
   1395e:	85d2                	mv	a1,s4
   13960:	8556                	mv	a0,s5
   13962:	dcaff0ef          	jal	12f2c <__sprint_r.part.0>
   13966:	800514e3          	bnez	a0,1316e <_vfiprintf_r+0x172>
   1396a:	5666                	lw	a2,120(sp)
   1396c:	3441                	addw	s0,s0,-16
   1396e:	678a                	ld	a5,128(sp)
   13970:	86ce                	mv	a3,s3
   13972:	0016071b          	addw	a4,a2,1
   13976:	481d                	li	a6,7
   13978:	fc8bc7e3          	blt	s7,s0,13946 <_vfiprintf_r+0x94a>
   1397c:	68c2                	ld	a7,16(sp)
   1397e:	6362                	ld	t1,24(sp)
   13980:	8ea6                	mv	t4,s1
   13982:	84a2                	mv	s1,s0
   13984:	8436                	mv	s0,a3
   13986:	97a6                	add	a5,a5,s1
   13988:	01d43023          	sd	t4,0(s0)
   1398c:	e404                	sd	s1,8(s0)
   1398e:	e13e                	sd	a5,128(sp)
   13990:	dcba                	sw	a4,120(sp)
   13992:	461d                	li	a2,7
   13994:	92e657e3          	bge	a2,a4,132c2 <_vfiprintf_r+0x2c6>
   13998:	c395                	beqz	a5,139bc <_vfiprintf_r+0x9c0>
   1399a:	1890                	add	a2,sp,112
   1399c:	85d2                	mv	a1,s4
   1399e:	8556                	mv	a0,s5
   139a0:	ec1a                	sd	t1,24(sp)
   139a2:	e846                	sd	a7,16(sp)
   139a4:	d88ff0ef          	jal	12f2c <__sprint_r.part.0>
   139a8:	fc051363          	bnez	a0,1316e <_vfiprintf_r+0x172>
   139ac:	678a                	ld	a5,128(sp)
   139ae:	6362                	ld	t1,24(sp)
   139b0:	68c2                	ld	a7,16(sp)
   139b2:	ba01                	j	132c2 <_vfiprintf_r+0x2c6>
   139b4:	4705                	li	a4,1
   139b6:	4601                	li	a2,0
   139b8:	86ce                	mv	a3,s3
   139ba:	b759                	j	13940 <_vfiprintf_r+0x944>
   139bc:	87c6                	mv	a5,a7
   139be:	0068d363          	bge	a7,t1,139c4 <_vfiprintf_r+0x9c8>
   139c2:	879a                	mv	a5,t1
   139c4:	01b78dbb          	addw	s11,a5,s11
   139c8:	b229                	j	132d2 <_vfiprintf_r+0x2d6>
   139ca:	c8078ce3          	beqz	a5,13662 <_vfiprintf_r+0x666>
   139ce:	1890                	add	a2,sp,112
   139d0:	85d2                	mv	a1,s4
   139d2:	8556                	mv	a0,s5
   139d4:	f41a                	sd	t1,40(sp)
   139d6:	f042                	sd	a6,32(sp)
   139d8:	ec46                	sd	a7,24(sp)
   139da:	e872                	sd	t3,16(sp)
   139dc:	d50ff0ef          	jal	12f2c <__sprint_r.part.0>
   139e0:	f8051763          	bnez	a0,1316e <_vfiprintf_r+0x172>
   139e4:	5566                	lw	a0,120(sp)
   139e6:	678a                	ld	a5,128(sp)
   139e8:	7322                	ld	t1,40(sp)
   139ea:	7802                	ld	a6,32(sp)
   139ec:	68e2                	ld	a7,24(sp)
   139ee:	6e42                	ld	t3,16(sp)
   139f0:	844e                	mv	s0,s3
   139f2:	2505                	addw	a0,a0,1
   139f4:	b061                	j	1327c <_vfiprintf_r+0x280>
   139f6:	dc82                	sw	zero,120(sp)
   139f8:	844e                	mv	s0,s3
   139fa:	eeaff06f          	j	130e4 <_vfiprintf_r+0xe8>
   139fe:	4505                	li	a0,1
   13a00:	4601                	li	a2,0
   13a02:	844e                	mv	s0,s3
   13a04:	b0a5                	j	1326c <_vfiprintf_r+0x270>
   13a06:	18078863          	beqz	a5,13b96 <_vfiprintf_r+0xb9a>
   13a0a:	1890                	add	a2,sp,112
   13a0c:	85d2                	mv	a1,s4
   13a0e:	8556                	mv	a0,s5
   13a10:	e89a                	sd	t1,80(sp)
   13a12:	e4c2                	sd	a6,72(sp)
   13a14:	f446                	sd	a7,40(sp)
   13a16:	f072                	sd	t3,32(sp)
   13a18:	ec16                	sd	t0,24(sp)
   13a1a:	e87e                	sd	t6,16(sp)
   13a1c:	d10ff0ef          	jal	12f2c <__sprint_r.part.0>
   13a20:	f4051763          	bnez	a0,1316e <_vfiprintf_r+0x172>
   13a24:	5666                	lw	a2,120(sp)
   13a26:	678a                	ld	a5,128(sp)
   13a28:	6346                	ld	t1,80(sp)
   13a2a:	6826                	ld	a6,72(sp)
   13a2c:	78a2                	ld	a7,40(sp)
   13a2e:	7e02                	ld	t3,32(sp)
   13a30:	62e2                	ld	t0,24(sp)
   13a32:	6fc2                	ld	t6,16(sp)
   13a34:	844e                	mv	s0,s3
   13a36:	0016051b          	addw	a0,a2,1
   13a3a:	fcaff06f          	j	13204 <_vfiprintf_r+0x208>
   13a3e:	4301                	li	t1,0
   13a40:	4e01                	li	t3,0
   13a42:	0ec10b93          	add	s7,sp,236
   13a46:	b2b5                	j	133b2 <_vfiprintf_r+0x3b6>
   13a48:	0ec10e13          	add	t3,sp,236
   13a4c:	76e2                	ld	a3,56(sp)
   13a4e:	40087f13          	and	t5,a6,1024
   13a52:	4581                	li	a1,0
   13a54:	8672                	mv	a2,t3
   13a56:	4729                	li	a4,10
   13a58:	4325                	li	t1,9
   13a5a:	0ff00f93          	li	t6,255
   13a5e:	a039                	j	13a6c <_vfiprintf_r+0xa70>
   13a60:	02ecd7b3          	divu	a5,s9,a4
   13a64:	03937763          	bgeu	t1,s9,13a92 <_vfiprintf_r+0xa96>
   13a68:	8cbe                	mv	s9,a5
   13a6a:	865e                	mv	a2,s7
   13a6c:	fff60b93          	add	s7,a2,-1
   13a70:	2585                	addw	a1,a1,1
   13a72:	02ecf7b3          	remu	a5,s9,a4
   13a76:	0307879b          	addw	a5,a5,48
   13a7a:	fef60fa3          	sb	a5,-1(a2)
   13a7e:	fe0f01e3          	beqz	t5,13a60 <_vfiprintf_r+0xa64>
   13a82:	0006c783          	lbu	a5,0(a3)
   13a86:	fcb79de3          	bne	a5,a1,13a60 <_vfiprintf_r+0xa64>
   13a8a:	fdf78be3          	beq	a5,t6,13a60 <_vfiprintf_r+0xa64>
   13a8e:	13936063          	bltu	t1,s9,13bae <_vfiprintf_r+0xbb2>
   13a92:	fc36                	sd	a3,56(sp)
   13a94:	417e0e3b          	subw	t3,t3,s7
   13a98:	0004831b          	sext.w	t1,s1
   13a9c:	01c4d463          	bge	s1,t3,13aa4 <_vfiprintf_r+0xaa8>
   13aa0:	000e031b          	sext.w	t1,t3
   13aa4:	8cf6                	mv	s9,t4
   13aa6:	b231                	j	133b2 <_vfiprintf_r+0x3b6>
   13aa8:	4301                	li	t1,0
   13aaa:	0ec10b93          	add	s7,sp,236
   13aae:	b211                	j	133b2 <_vfiprintf_r+0x3b6>
   13ab0:	0441                	add	s0,s0,16
   13ab2:	0015851b          	addw	a0,a1,1
   13ab6:	862e                	mv	a2,a1
   13ab8:	fbcff06f          	j	13274 <_vfiprintf_r+0x278>
   13abc:	040e7793          	and	a5,t3,64
   13ac0:	000cac83          	lw	s9,0(s9)
   13ac4:	16078c63          	beqz	a5,13c3c <_vfiprintf_r+0xc40>
   13ac8:	1cc2                	sll	s9,s9,0x30
   13aca:	030cdc93          	srl	s9,s9,0x30
   13ace:	b44d                	j	13570 <_vfiprintf_r+0x574>
   13ad0:	0407f593          	and	a1,a5,64
   13ad4:	000ca703          	lw	a4,0(s9)
   13ad8:	16058863          	beqz	a1,13c48 <_vfiprintf_r+0xc4c>
   13adc:	1742                	sll	a4,a4,0x30
   13ade:	9341                	srl	a4,a4,0x30
   13ae0:	b415                	j	13504 <_vfiprintf_r+0x508>
   13ae2:	000d4783          	lbu	a5,0(s10)
   13ae6:	e2070063          	beqz	a4,13106 <_vfiprintf_r+0x10a>
   13aea:	00074703          	lbu	a4,0(a4)
   13aee:	e0070c63          	beqz	a4,13106 <_vfiprintf_r+0x10a>
   13af2:	40086813          	or	a6,a6,1024
   13af6:	2801                	sext.w	a6,a6
   13af8:	e0eff06f          	j	13106 <_vfiprintf_r+0x10a>
   13afc:	4601                	li	a2,0
   13afe:	4505                	li	a0,1
   13b00:	844e                	mv	s0,s3
   13b02:	f6aff06f          	j	1326c <_vfiprintf_r+0x270>
   13b06:	000e031b          	sext.w	t1,t3
   13b0a:	8bb2                	mv	s7,a2
   13b0c:	b05d                	j	133b2 <_vfiprintf_r+0x3b6>
   13b0e:	54fd                	li	s1,-1
   13b10:	8d36                	mv	s10,a3
   13b12:	df8ff06f          	j	1310a <_vfiprintf_r+0x10e>
   13b16:	00005717          	auipc	a4,0x5
   13b1a:	5aa70713          	add	a4,a4,1450 # 190c0 <__clzdi2+0x9c>
   13b1e:	e43a                	sd	a4,8(sp)
   13b20:	02087713          	and	a4,a6,32
   13b24:	008c8613          	add	a2,s9,8
   13b28:	ef21                	bnez	a4,13b80 <_vfiprintf_r+0xb84>
   13b2a:	01087713          	and	a4,a6,16
   13b2e:	eb29                	bnez	a4,13b80 <_vfiprintf_r+0xb84>
   13b30:	04087593          	and	a1,a6,64
   13b34:	000ca703          	lw	a4,0(s9)
   13b38:	10058e63          	beqz	a1,13c54 <_vfiprintf_r+0xc58>
   13b3c:	1742                	sll	a4,a4,0x30
   13b3e:	9341                	srl	a4,a4,0x30
   13b40:	00187593          	and	a1,a6,1
   13b44:	c999                	beqz	a1,13b5a <_vfiprintf_r+0xb5e>
   13b46:	cb11                	beqz	a4,13b5a <_vfiprintf_r+0xb5e>
   13b48:	00286813          	or	a6,a6,2
   13b4c:	03000593          	li	a1,48
   13b50:	06b10423          	sb	a1,104(sp)
   13b54:	06f104a3          	sb	a5,105(sp)
   13b58:	2801                	sext.w	a6,a6
   13b5a:	bff87813          	and	a6,a6,-1025
   13b5e:	2801                	sext.w	a6,a6
   13b60:	8cb2                	mv	s9,a2
   13b62:	bc5d                	j	13618 <_vfiprintf_r+0x61c>
   13b64:	8e42                	mv	t3,a6
   13b66:	bad5                	j	1355a <_vfiprintf_r+0x55e>
   13b68:	87c2                	mv	a5,a6
   13b6a:	b251                	j	134ee <_vfiprintf_r+0x4f2>
   13b6c:	00005717          	auipc	a4,0x5
   13b70:	53c70713          	add	a4,a4,1340 # 190a8 <__clzdi2+0x84>
   13b74:	e43a                	sd	a4,8(sp)
   13b76:	02087713          	and	a4,a6,32
   13b7a:	008c8613          	add	a2,s9,8
   13b7e:	d755                	beqz	a4,13b2a <_vfiprintf_r+0xb2e>
   13b80:	000cb703          	ld	a4,0(s9)
   13b84:	bf75                	j	13b40 <_vfiprintf_r+0xb44>
   13b86:	855e                	mv	a0,s7
   13b88:	6db000ef          	jal	14a62 <strlen>
   13b8c:	68c2                	ld	a7,16(sp)
   13b8e:	6862                	ld	a6,24(sp)
   13b90:	00050e1b          	sext.w	t3,a0
   13b94:	b889                	j	133e6 <_vfiprintf_r+0x3ea>
   13b96:	06714703          	lbu	a4,103(sp)
   13b9a:	c775                	beqz	a4,13c86 <_vfiprintf_r+0xc8a>
   13b9c:	06710793          	add	a5,sp,103
   13ba0:	f9be                	sd	a5,240(sp)
   13ba2:	4785                	li	a5,1
   13ba4:	fdbe                	sd	a5,248(sp)
   13ba6:	4505                	li	a0,1
   13ba8:	844e                	mv	s0,s3
   13baa:	e76ff06f          	j	13220 <_vfiprintf_r+0x224>
   13bae:	77c2                	ld	a5,48(sp)
   13bb0:	6586                	ld	a1,64(sp)
   13bb2:	e4f2                	sd	t3,72(sp)
   13bb4:	40fb8bb3          	sub	s7,s7,a5
   13bb8:	863e                	mv	a2,a5
   13bba:	855e                	mv	a0,s7
   13bbc:	fc76                	sd	t4,56(sp)
   13bbe:	f47a                	sd	t5,40(sp)
   13bc0:	f042                	sd	a6,32(sp)
   13bc2:	ec46                	sd	a7,24(sp)
   13bc4:	e836                	sd	a3,16(sp)
   13bc6:	2c1000ef          	jal	14686 <strncpy>
   13bca:	66c2                	ld	a3,16(sp)
   13bcc:	47a9                	li	a5,10
   13bce:	02fcd7b3          	divu	a5,s9,a5
   13bd2:	0016c603          	lbu	a2,1(a3)
   13bd6:	68e2                	ld	a7,24(sp)
   13bd8:	7802                	ld	a6,32(sp)
   13bda:	00c03633          	snez	a2,a2
   13bde:	7f22                	ld	t5,40(sp)
   13be0:	7ee2                	ld	t4,56(sp)
   13be2:	6e26                	ld	t3,72(sp)
   13be4:	96b2                	add	a3,a3,a2
   13be6:	4581                	li	a1,0
   13be8:	4729                	li	a4,10
   13bea:	4325                	li	t1,9
   13bec:	0ff00f93          	li	t6,255
   13bf0:	bda5                	j	13a68 <_vfiprintf_r+0xa6c>
   13bf2:	883e                	mv	a6,a5
   13bf4:	4781                	li	a5,0
   13bf6:	9a0781e3          	beqz	a5,13598 <_vfiprintf_r+0x59c>
   13bfa:	b90d                	j	1382c <_vfiprintf_r+0x830>
   13bfc:	80ffc0ef          	jal	1040a <__sinit>
   13c00:	c1aff06f          	j	1301a <_vfiprintf_r+0x1e>
   13c04:	20086813          	or	a6,a6,512
   13c08:	001d4783          	lbu	a5,1(s10)
   13c0c:	2801                	sext.w	a6,a6
   13c0e:	0d05                	add	s10,s10,1
   13c10:	cf6ff06f          	j	13106 <_vfiprintf_r+0x10a>
   13c14:	02086813          	or	a6,a6,32
   13c18:	001d4783          	lbu	a5,1(s10)
   13c1c:	2801                	sext.w	a6,a6
   13c1e:	0d05                	add	s10,s10,1
   13c20:	ce6ff06f          	j	13106 <_vfiprintf_r+0x10a>
   13c24:	4799                	li	a5,6
   13c26:	00048e1b          	sext.w	t3,s1
   13c2a:	0497ec63          	bltu	a5,s1,13c82 <_vfiprintf_r+0xc86>
   13c2e:	8372                	mv	t1,t3
   13c30:	00005b97          	auipc	s7,0x5
   13c34:	4a8b8b93          	add	s7,s7,1192 # 190d8 <__clzdi2+0xb4>
   13c38:	daeff06f          	j	131e6 <_vfiprintf_r+0x1ea>
   13c3c:	200e7793          	and	a5,t3,512
   13c40:	c7b5                	beqz	a5,13cac <_vfiprintf_r+0xcb0>
   13c42:	0ffcfc93          	zext.b	s9,s9
   13c46:	b22d                	j	13570 <_vfiprintf_r+0x574>
   13c48:	2007f593          	and	a1,a5,512
   13c4c:	cda9                	beqz	a1,13ca6 <_vfiprintf_r+0xcaa>
   13c4e:	0ff77713          	zext.b	a4,a4
   13c52:	b84d                	j	13504 <_vfiprintf_r+0x508>
   13c54:	20087593          	and	a1,a6,512
   13c58:	c5a1                	beqz	a1,13ca0 <_vfiprintf_r+0xca4>
   13c5a:	0ff77713          	zext.b	a4,a4
   13c5e:	b5cd                	j	13b40 <_vfiprintf_r+0xb44>
   13c60:	20087793          	and	a5,a6,512
   13c64:	cb9d                	beqz	a5,13c9a <_vfiprintf_r+0xc9e>
   13c66:	018c9c9b          	sllw	s9,s9,0x18
   13c6a:	418cdc9b          	sraw	s9,s9,0x18
   13c6e:	87e6                	mv	a5,s9
   13c70:	ea4ff06f          	j	13314 <_vfiprintf_r+0x318>
   13c74:	4701                	li	a4,0
   13c76:	be5d                	j	1382c <_vfiprintf_r+0x830>
   13c78:	4505                	li	a0,1
   13c7a:	4601                	li	a2,0
   13c7c:	844e                	mv	s0,s3
   13c7e:	df6ff06f          	j	13274 <_vfiprintf_r+0x278>
   13c82:	4e19                	li	t3,6
   13c84:	b76d                	j	13c2e <_vfiprintf_r+0xc32>
   13c86:	4601                	li	a2,0
   13c88:	4505                	li	a0,1
   13c8a:	844e                	mv	s0,s3
   13c8c:	d9aff06f          	j	13226 <_vfiprintf_r+0x22a>
   13c90:	01b71023          	sh	s11,0(a4)
   13c94:	0ca1                	add	s9,s9,8
   13c96:	bfcff06f          	j	13092 <_vfiprintf_r+0x96>
   13c9a:	87e6                	mv	a5,s9
   13c9c:	e78ff06f          	j	13314 <_vfiprintf_r+0x318>
   13ca0:	1702                	sll	a4,a4,0x20
   13ca2:	9301                	srl	a4,a4,0x20
   13ca4:	bd71                	j	13b40 <_vfiprintf_r+0xb44>
   13ca6:	1702                	sll	a4,a4,0x20
   13ca8:	9301                	srl	a4,a4,0x20
   13caa:	b8a9                	j	13504 <_vfiprintf_r+0x508>
   13cac:	1c82                	sll	s9,s9,0x20
   13cae:	020cdc93          	srl	s9,s9,0x20
   13cb2:	b87d                	j	13570 <_vfiprintf_r+0x574>
   13cb4:	00006e97          	auipc	t4,0x6
   13cb8:	88ce8e93          	add	t4,t4,-1908 # 19540 <blanks.1>
   13cbc:	b115                	j	138e0 <_vfiprintf_r+0x8e4>
   13cbe:	8cf6                	mv	s9,t4
   13cc0:	03000793          	li	a5,48
   13cc4:	edaff06f          	j	1339e <_vfiprintf_r+0x3a2>
   13cc8:	0016071b          	addw	a4,a2,1
   13ccc:	00006e97          	auipc	t4,0x6
   13cd0:	874e8e93          	add	t4,t4,-1932 # 19540 <blanks.1>
   13cd4:	b94d                	j	13986 <_vfiprintf_r+0x98a>
   13cd6:	85aa                	mv	a1,a0
   13cd8:	00006e97          	auipc	t4,0x6
   13cdc:	858e8e93          	add	t4,t4,-1960 # 19530 <zeroes.0>
   13ce0:	bc21                	j	136f8 <_vfiprintf_r+0x6fc>
   13ce2:	5cfd                	li	s9,-1
   13ce4:	ca6ff06f          	j	1318a <_vfiprintf_r+0x18e>
   13ce8:	01b72023          	sw	s11,0(a4)
   13cec:	0ca1                	add	s9,s9,8
   13cee:	ba4ff06f          	j	13092 <_vfiprintf_r+0x96>
   13cf2:	000ca783          	lw	a5,0(s9)
   13cf6:	0ca1                	add	s9,s9,8
   13cf8:	0007849b          	sext.w	s1,a5
   13cfc:	0007d363          	bgez	a5,13d02 <_vfiprintf_r+0xd06>
   13d00:	54fd                	li	s1,-1
   13d02:	001d4783          	lbu	a5,1(s10)
   13d06:	8d36                	mv	s10,a3
   13d08:	bfeff06f          	j	13106 <_vfiprintf_r+0x10a>

0000000000013d0c <vfiprintf>:
   13d0c:	86b2                	mv	a3,a2
   13d0e:	862e                	mv	a2,a1
   13d10:	85aa                	mv	a1,a0
   13d12:	2201b503          	ld	a0,544(gp) # 1b458 <_impure_ptr>
   13d16:	ae6ff06f          	j	12ffc <_vfiprintf_r>

0000000000013d1a <__sbprintf>:
   13d1a:	b3010113          	add	sp,sp,-1232
   13d1e:	0125d703          	lhu	a4,18(a1)
   13d22:	0105d783          	lhu	a5,16(a1)
   13d26:	4c813023          	sd	s0,1216(sp)
   13d2a:	842e                	mv	s0,a1
   13d2c:	65c1                	lui	a1,0x10
   13d2e:	35f5                	addw	a1,a1,-3 # fffd <exit-0xeb>
   13d30:	0ac42e03          	lw	t3,172(s0)
   13d34:	03043303          	ld	t1,48(s0)
   13d38:	04043883          	ld	a7,64(s0)
   13d3c:	0107171b          	sllw	a4,a4,0x10
   13d40:	8fed                	and	a5,a5,a1
   13d42:	8fd9                	or	a5,a5,a4
   13d44:	40000813          	li	a6,1024
   13d48:	c83e                	sw	a5,16(sp)
   13d4a:	858a                	mv	a1,sp
   13d4c:	191c                	add	a5,sp,176
   13d4e:	4a913c23          	sd	s1,1208(sp)
   13d52:	4b213823          	sd	s2,1200(sp)
   13d56:	4c113423          	sd	ra,1224(sp)
   13d5a:	892a                	mv	s2,a0
   13d5c:	d772                	sw	t3,172(sp)
   13d5e:	f81a                	sd	t1,48(sp)
   13d60:	e0c6                	sd	a7,64(sp)
   13d62:	e03e                	sd	a5,0(sp)
   13d64:	ec3e                	sd	a5,24(sp)
   13d66:	c642                	sw	a6,12(sp)
   13d68:	d042                	sw	a6,32(sp)
   13d6a:	d402                	sw	zero,40(sp)
   13d6c:	a90ff0ef          	jal	12ffc <_vfiprintf_r>
   13d70:	84aa                	mv	s1,a0
   13d72:	02055963          	bgez	a0,13da4 <__sbprintf+0x8a>
   13d76:	01015783          	lhu	a5,16(sp)
   13d7a:	0407f793          	and	a5,a5,64
   13d7e:	c799                	beqz	a5,13d8c <__sbprintf+0x72>
   13d80:	01045783          	lhu	a5,16(s0)
   13d84:	0407e793          	or	a5,a5,64
   13d88:	00f41823          	sh	a5,16(s0)
   13d8c:	4c813083          	ld	ra,1224(sp)
   13d90:	4c013403          	ld	s0,1216(sp)
   13d94:	4b013903          	ld	s2,1200(sp)
   13d98:	8526                	mv	a0,s1
   13d9a:	4b813483          	ld	s1,1208(sp)
   13d9e:	4d010113          	add	sp,sp,1232
   13da2:	8082                	ret
   13da4:	858a                	mv	a1,sp
   13da6:	854a                	mv	a0,s2
   13da8:	252000ef          	jal	13ffa <_fflush_r>
   13dac:	d569                	beqz	a0,13d76 <__sbprintf+0x5c>
   13dae:	54fd                	li	s1,-1
   13db0:	b7d9                	j	13d76 <__sbprintf+0x5c>

0000000000013db2 <_fclose_r>:
   13db2:	1101                	add	sp,sp,-32
   13db4:	ec06                	sd	ra,24(sp)
   13db6:	e04a                	sd	s2,0(sp)
   13db8:	cd89                	beqz	a1,13dd2 <_fclose_r+0x20>
   13dba:	e822                	sd	s0,16(sp)
   13dbc:	e426                	sd	s1,8(sp)
   13dbe:	842e                	mv	s0,a1
   13dc0:	84aa                	mv	s1,a0
   13dc2:	c119                	beqz	a0,13dc8 <_fclose_r+0x16>
   13dc4:	653c                	ld	a5,72(a0)
   13dc6:	c7d9                	beqz	a5,13e54 <_fclose_r+0xa2>
   13dc8:	01041783          	lh	a5,16(s0)
   13dcc:	eb89                	bnez	a5,13dde <_fclose_r+0x2c>
   13dce:	6442                	ld	s0,16(sp)
   13dd0:	64a2                	ld	s1,8(sp)
   13dd2:	60e2                	ld	ra,24(sp)
   13dd4:	4901                	li	s2,0
   13dd6:	854a                	mv	a0,s2
   13dd8:	6902                	ld	s2,0(sp)
   13dda:	6105                	add	sp,sp,32
   13ddc:	8082                	ret
   13dde:	85a2                	mv	a1,s0
   13de0:	8526                	mv	a0,s1
   13de2:	080000ef          	jal	13e62 <__sflush_r>
   13de6:	683c                	ld	a5,80(s0)
   13de8:	892a                	mv	s2,a0
   13dea:	c791                	beqz	a5,13df6 <_fclose_r+0x44>
   13dec:	780c                	ld	a1,48(s0)
   13dee:	8526                	mv	a0,s1
   13df0:	9782                	jalr	a5
   13df2:	04054663          	bltz	a0,13e3e <_fclose_r+0x8c>
   13df6:	01045783          	lhu	a5,16(s0)
   13dfa:	0807f793          	and	a5,a5,128
   13dfe:	e7b1                	bnez	a5,13e4a <_fclose_r+0x98>
   13e00:	6c2c                	ld	a1,88(s0)
   13e02:	c991                	beqz	a1,13e16 <_fclose_r+0x64>
   13e04:	07440793          	add	a5,s0,116
   13e08:	00f58563          	beq	a1,a5,13e12 <_fclose_r+0x60>
   13e0c:	8526                	mv	a0,s1
   13e0e:	c03fc0ef          	jal	10a10 <_free_r>
   13e12:	04043c23          	sd	zero,88(s0)
   13e16:	7c2c                	ld	a1,120(s0)
   13e18:	c591                	beqz	a1,13e24 <_fclose_r+0x72>
   13e1a:	8526                	mv	a0,s1
   13e1c:	bf5fc0ef          	jal	10a10 <_free_r>
   13e20:	06043c23          	sd	zero,120(s0)
   13e24:	dfefc0ef          	jal	10422 <__sfp_lock_acquire>
   13e28:	00041823          	sh	zero,16(s0)
   13e2c:	df8fc0ef          	jal	10424 <__sfp_lock_release>
   13e30:	60e2                	ld	ra,24(sp)
   13e32:	6442                	ld	s0,16(sp)
   13e34:	64a2                	ld	s1,8(sp)
   13e36:	854a                	mv	a0,s2
   13e38:	6902                	ld	s2,0(sp)
   13e3a:	6105                	add	sp,sp,32
   13e3c:	8082                	ret
   13e3e:	01045783          	lhu	a5,16(s0)
   13e42:	597d                	li	s2,-1
   13e44:	0807f793          	and	a5,a5,128
   13e48:	dfc5                	beqz	a5,13e00 <_fclose_r+0x4e>
   13e4a:	6c0c                	ld	a1,24(s0)
   13e4c:	8526                	mv	a0,s1
   13e4e:	bc3fc0ef          	jal	10a10 <_free_r>
   13e52:	b77d                	j	13e00 <_fclose_r+0x4e>
   13e54:	db6fc0ef          	jal	1040a <__sinit>
   13e58:	bf85                	j	13dc8 <_fclose_r+0x16>

0000000000013e5a <fclose>:
   13e5a:	85aa                	mv	a1,a0
   13e5c:	2201b503          	ld	a0,544(gp) # 1b458 <_impure_ptr>
   13e60:	bf89                	j	13db2 <_fclose_r>

0000000000013e62 <__sflush_r>:
   13e62:	01059703          	lh	a4,16(a1)
   13e66:	7179                	add	sp,sp,-48
   13e68:	f022                	sd	s0,32(sp)
   13e6a:	e44e                	sd	s3,8(sp)
   13e6c:	f406                	sd	ra,40(sp)
   13e6e:	00877793          	and	a5,a4,8
   13e72:	842e                	mv	s0,a1
   13e74:	89aa                	mv	s3,a0
   13e76:	e7f1                	bnez	a5,13f42 <__sflush_r+0xe0>
   13e78:	6785                	lui	a5,0x1
   13e7a:	80078793          	add	a5,a5,-2048 # 800 <exit-0xf8e8>
   13e7e:	4594                	lw	a3,8(a1)
   13e80:	8fd9                	or	a5,a5,a4
   13e82:	00f59823          	sh	a5,16(a1)
   13e86:	10d05763          	blez	a3,13f94 <__sflush_r+0x132>
   13e8a:	04843803          	ld	a6,72(s0)
   13e8e:	0a080463          	beqz	a6,13f36 <__sflush_r+0xd4>
   13e92:	ec26                	sd	s1,24(sp)
   13e94:	03371693          	sll	a3,a4,0x33
   13e98:	0009a483          	lw	s1,0(s3)
   13e9c:	0009a023          	sw	zero,0(s3)
   13ea0:	780c                	ld	a1,48(s0)
   13ea2:	1006c063          	bltz	a3,13fa2 <__sflush_r+0x140>
   13ea6:	4601                	li	a2,0
   13ea8:	4685                	li	a3,1
   13eaa:	854e                	mv	a0,s3
   13eac:	9802                	jalr	a6
   13eae:	57fd                	li	a5,-1
   13eb0:	862a                	mv	a2,a0
   13eb2:	12f50163          	beq	a0,a5,13fd4 <__sflush_r+0x172>
   13eb6:	01041783          	lh	a5,16(s0)
   13eba:	04843803          	ld	a6,72(s0)
   13ebe:	780c                	ld	a1,48(s0)
   13ec0:	8b91                	and	a5,a5,4
   13ec2:	c799                	beqz	a5,13ed0 <__sflush_r+0x6e>
   13ec4:	4418                	lw	a4,8(s0)
   13ec6:	6c3c                	ld	a5,88(s0)
   13ec8:	8e19                	sub	a2,a2,a4
   13eca:	c399                	beqz	a5,13ed0 <__sflush_r+0x6e>
   13ecc:	583c                	lw	a5,112(s0)
   13ece:	8e1d                	sub	a2,a2,a5
   13ed0:	4681                	li	a3,0
   13ed2:	854e                	mv	a0,s3
   13ed4:	9802                	jalr	a6
   13ed6:	57fd                	li	a5,-1
   13ed8:	0cf51763          	bne	a0,a5,13fa6 <__sflush_r+0x144>
   13edc:	0009a683          	lw	a3,0(s3)
   13ee0:	47f5                	li	a5,29
   13ee2:	01041703          	lh	a4,16(s0)
   13ee6:	0006861b          	sext.w	a2,a3
   13eea:	10d7e163          	bltu	a5,a3,13fec <__sflush_r+0x18a>
   13eee:	204007b7          	lui	a5,0x20400
   13ef2:	0785                	add	a5,a5,1 # 20400001 <__BSS_END__+0x203e45c9>
   13ef4:	00c7d7b3          	srl	a5,a5,a2
   13ef8:	8b85                	and	a5,a5,1
   13efa:	cbed                	beqz	a5,13fec <__sflush_r+0x18a>
   13efc:	6c10                	ld	a2,24(s0)
   13efe:	77fd                	lui	a5,0xfffff
   13f00:	7ff78793          	add	a5,a5,2047 # fffffffffffff7ff <__BSS_END__+0xfffffffffffe3dc7>
   13f04:	8ff9                	and	a5,a5,a4
   13f06:	00f41823          	sh	a5,16(s0)
   13f0a:	00042423          	sw	zero,8(s0)
   13f0e:	e010                	sd	a2,0(s0)
   13f10:	03371793          	sll	a5,a4,0x33
   13f14:	0007d363          	bgez	a5,13f1a <__sflush_r+0xb8>
   13f18:	c6dd                	beqz	a3,13fc6 <__sflush_r+0x164>
   13f1a:	6c2c                	ld	a1,88(s0)
   13f1c:	0099a023          	sw	s1,0(s3)
   13f20:	c9c5                	beqz	a1,13fd0 <__sflush_r+0x16e>
   13f22:	07440793          	add	a5,s0,116
   13f26:	00f58563          	beq	a1,a5,13f30 <__sflush_r+0xce>
   13f2a:	854e                	mv	a0,s3
   13f2c:	ae5fc0ef          	jal	10a10 <_free_r>
   13f30:	64e2                	ld	s1,24(sp)
   13f32:	04043c23          	sd	zero,88(s0)
   13f36:	4501                	li	a0,0
   13f38:	70a2                	ld	ra,40(sp)
   13f3a:	7402                	ld	s0,32(sp)
   13f3c:	69a2                	ld	s3,8(sp)
   13f3e:	6145                	add	sp,sp,48
   13f40:	8082                	ret
   13f42:	e84a                	sd	s2,16(sp)
   13f44:	0185b903          	ld	s2,24(a1)
   13f48:	04090b63          	beqz	s2,13f9e <__sflush_r+0x13c>
   13f4c:	ec26                	sd	s1,24(sp)
   13f4e:	6184                	ld	s1,0(a1)
   13f50:	8b0d                	and	a4,a4,3
   13f52:	0125b023          	sd	s2,0(a1)
   13f56:	412484bb          	subw	s1,s1,s2
   13f5a:	4781                	li	a5,0
   13f5c:	e311                	bnez	a4,13f60 <__sflush_r+0xfe>
   13f5e:	519c                	lw	a5,32(a1)
   13f60:	c45c                	sw	a5,12(s0)
   13f62:	00904663          	bgtz	s1,13f6e <__sflush_r+0x10c>
   13f66:	a81d                	j	13f9c <__sflush_r+0x13a>
   13f68:	992a                	add	s2,s2,a0
   13f6a:	02905963          	blez	s1,13f9c <__sflush_r+0x13a>
   13f6e:	603c                	ld	a5,64(s0)
   13f70:	780c                	ld	a1,48(s0)
   13f72:	86a6                	mv	a3,s1
   13f74:	864a                	mv	a2,s2
   13f76:	854e                	mv	a0,s3
   13f78:	9782                	jalr	a5
   13f7a:	9c89                	subw	s1,s1,a0
   13f7c:	fea046e3          	bgtz	a0,13f68 <__sflush_r+0x106>
   13f80:	01041703          	lh	a4,16(s0)
   13f84:	6942                	ld	s2,16(sp)
   13f86:	04076713          	or	a4,a4,64
   13f8a:	64e2                	ld	s1,24(sp)
   13f8c:	00e41823          	sh	a4,16(s0)
   13f90:	557d                	li	a0,-1
   13f92:	b75d                	j	13f38 <__sflush_r+0xd6>
   13f94:	59b4                	lw	a3,112(a1)
   13f96:	eed04ae3          	bgtz	a3,13e8a <__sflush_r+0x28>
   13f9a:	bf71                	j	13f36 <__sflush_r+0xd4>
   13f9c:	64e2                	ld	s1,24(sp)
   13f9e:	6942                	ld	s2,16(sp)
   13fa0:	bf59                	j	13f36 <__sflush_r+0xd4>
   13fa2:	6850                	ld	a2,144(s0)
   13fa4:	bf31                	j	13ec0 <__sflush_r+0x5e>
   13fa6:	01041703          	lh	a4,16(s0)
   13faa:	6c14                	ld	a3,24(s0)
   13fac:	77fd                	lui	a5,0xfffff
   13fae:	7ff78793          	add	a5,a5,2047 # fffffffffffff7ff <__BSS_END__+0xfffffffffffe3dc7>
   13fb2:	8ff9                	and	a5,a5,a4
   13fb4:	00f41823          	sh	a5,16(s0)
   13fb8:	00042423          	sw	zero,8(s0)
   13fbc:	e014                	sd	a3,0(s0)
   13fbe:	03371793          	sll	a5,a4,0x33
   13fc2:	f407dce3          	bgez	a5,13f1a <__sflush_r+0xb8>
   13fc6:	6c2c                	ld	a1,88(s0)
   13fc8:	e848                	sd	a0,144(s0)
   13fca:	0099a023          	sw	s1,0(s3)
   13fce:	f9b1                	bnez	a1,13f22 <__sflush_r+0xc0>
   13fd0:	64e2                	ld	s1,24(sp)
   13fd2:	b795                	j	13f36 <__sflush_r+0xd4>
   13fd4:	0009a783          	lw	a5,0(s3)
   13fd8:	ec078fe3          	beqz	a5,13eb6 <__sflush_r+0x54>
   13fdc:	4775                	li	a4,29
   13fde:	00e78a63          	beq	a5,a4,13ff2 <__sflush_r+0x190>
   13fe2:	4759                	li	a4,22
   13fe4:	00e78763          	beq	a5,a4,13ff2 <__sflush_r+0x190>
   13fe8:	01041703          	lh	a4,16(s0)
   13fec:	04076713          	or	a4,a4,64
   13ff0:	bf69                	j	13f8a <__sflush_r+0x128>
   13ff2:	0099a023          	sw	s1,0(s3)
   13ff6:	64e2                	ld	s1,24(sp)
   13ff8:	bf3d                	j	13f36 <__sflush_r+0xd4>

0000000000013ffa <_fflush_r>:
   13ffa:	1101                	add	sp,sp,-32
   13ffc:	e822                	sd	s0,16(sp)
   13ffe:	ec06                	sd	ra,24(sp)
   14000:	842a                	mv	s0,a0
   14002:	c119                	beqz	a0,14008 <_fflush_r+0xe>
   14004:	653c                	ld	a5,72(a0)
   14006:	cf91                	beqz	a5,14022 <_fflush_r+0x28>
   14008:	01059783          	lh	a5,16(a1)
   1400c:	e791                	bnez	a5,14018 <_fflush_r+0x1e>
   1400e:	60e2                	ld	ra,24(sp)
   14010:	6442                	ld	s0,16(sp)
   14012:	4501                	li	a0,0
   14014:	6105                	add	sp,sp,32
   14016:	8082                	ret
   14018:	8522                	mv	a0,s0
   1401a:	6442                	ld	s0,16(sp)
   1401c:	60e2                	ld	ra,24(sp)
   1401e:	6105                	add	sp,sp,32
   14020:	b589                	j	13e62 <__sflush_r>
   14022:	e42e                	sd	a1,8(sp)
   14024:	be6fc0ef          	jal	1040a <__sinit>
   14028:	65a2                	ld	a1,8(sp)
   1402a:	bff9                	j	14008 <_fflush_r+0xe>

000000000001402c <fflush>:
   1402c:	cd05                	beqz	a0,14064 <fflush+0x38>
   1402e:	85aa                	mv	a1,a0
   14030:	2201b503          	ld	a0,544(gp) # 1b458 <_impure_ptr>
   14034:	c119                	beqz	a0,1403a <fflush+0xe>
   14036:	653c                	ld	a5,72(a0)
   14038:	c799                	beqz	a5,14046 <fflush+0x1a>
   1403a:	01059783          	lh	a5,16(a1)
   1403e:	e399                	bnez	a5,14044 <fflush+0x18>
   14040:	4501                	li	a0,0
   14042:	8082                	ret
   14044:	bd39                	j	13e62 <__sflush_r>
   14046:	1101                	add	sp,sp,-32
   14048:	e42e                	sd	a1,8(sp)
   1404a:	e02a                	sd	a0,0(sp)
   1404c:	ec06                	sd	ra,24(sp)
   1404e:	bbcfc0ef          	jal	1040a <__sinit>
   14052:	65a2                	ld	a1,8(sp)
   14054:	6502                	ld	a0,0(sp)
   14056:	01059783          	lh	a5,16(a1)
   1405a:	e39d                	bnez	a5,14080 <fflush+0x54>
   1405c:	60e2                	ld	ra,24(sp)
   1405e:	4501                	li	a0,0
   14060:	6105                	add	sp,sp,32
   14062:	8082                	ret
   14064:	00007617          	auipc	a2,0x7
   14068:	85460613          	add	a2,a2,-1964 # 1a8b8 <__sglue>
   1406c:	00000597          	auipc	a1,0x0
   14070:	f8e58593          	add	a1,a1,-114 # 13ffa <_fflush_r>
   14074:	00007517          	auipc	a0,0x7
   14078:	85c50513          	add	a0,a0,-1956 # 1a8d0 <_impure_data>
   1407c:	bd2fc06f          	j	1044e <_fwalk_sglue>
   14080:	60e2                	ld	ra,24(sp)
   14082:	6105                	add	sp,sp,32
   14084:	bbf9                	j	13e62 <__sflush_r>

0000000000014086 <__sfvwrite_r>:
   14086:	6a1c                	ld	a5,16(a2)
   14088:	1c078b63          	beqz	a5,1425e <__sfvwrite_r+0x1d8>
   1408c:	01059703          	lh	a4,16(a1)
   14090:	711d                	add	sp,sp,-96
   14092:	e8a2                	sd	s0,80(sp)
   14094:	f456                	sd	s5,40(sp)
   14096:	ec5e                	sd	s7,24(sp)
   14098:	ec86                	sd	ra,88(sp)
   1409a:	00877793          	and	a5,a4,8
   1409e:	8bb2                	mv	s7,a2
   140a0:	8aaa                	mv	s5,a0
   140a2:	842e                	mv	s0,a1
   140a4:	c7b5                	beqz	a5,14110 <__sfvwrite_r+0x8a>
   140a6:	6d9c                	ld	a5,24(a1)
   140a8:	c7a5                	beqz	a5,14110 <__sfvwrite_r+0x8a>
   140aa:	e4a6                	sd	s1,72(sp)
   140ac:	e0ca                	sd	s2,64(sp)
   140ae:	fc4e                	sd	s3,56(sp)
   140b0:	f852                	sd	s4,48(sp)
   140b2:	00277793          	and	a5,a4,2
   140b6:	000bb483          	ld	s1,0(s7)
   140ba:	cfa5                	beqz	a5,14132 <__sfvwrite_r+0xac>
   140bc:	603c                	ld	a5,64(s0)
   140be:	780c                	ld	a1,48(s0)
   140c0:	80000a37          	lui	s4,0x80000
   140c4:	4981                	li	s3,0
   140c6:	4901                	li	s2,0
   140c8:	c00a4a13          	xor	s4,s4,-1024
   140cc:	864e                	mv	a2,s3
   140ce:	8556                	mv	a0,s5
   140d0:	02090a63          	beqz	s2,14104 <__sfvwrite_r+0x7e>
   140d4:	86ca                	mv	a3,s2
   140d6:	012a7363          	bgeu	s4,s2,140dc <__sfvwrite_r+0x56>
   140da:	86d2                	mv	a3,s4
   140dc:	2681                	sext.w	a3,a3
   140de:	9782                	jalr	a5
   140e0:	2ea05863          	blez	a0,143d0 <__sfvwrite_r+0x34a>
   140e4:	010bb783          	ld	a5,16(s7)
   140e8:	99aa                	add	s3,s3,a0
   140ea:	40a90933          	sub	s2,s2,a0
   140ee:	8f89                	sub	a5,a5,a0
   140f0:	00fbb823          	sd	a5,16(s7)
   140f4:	12078163          	beqz	a5,14216 <__sfvwrite_r+0x190>
   140f8:	603c                	ld	a5,64(s0)
   140fa:	780c                	ld	a1,48(s0)
   140fc:	864e                	mv	a2,s3
   140fe:	8556                	mv	a0,s5
   14100:	fc091ae3          	bnez	s2,140d4 <__sfvwrite_r+0x4e>
   14104:	0004b983          	ld	s3,0(s1)
   14108:	0084b903          	ld	s2,8(s1)
   1410c:	04c1                	add	s1,s1,16
   1410e:	bf7d                	j	140cc <__sfvwrite_r+0x46>
   14110:	85a2                	mv	a1,s0
   14112:	8556                	mv	a0,s5
   14114:	2d4000ef          	jal	143e8 <__swsetup_r>
   14118:	12051c63          	bnez	a0,14250 <__sfvwrite_r+0x1ca>
   1411c:	01041703          	lh	a4,16(s0)
   14120:	e4a6                	sd	s1,72(sp)
   14122:	e0ca                	sd	s2,64(sp)
   14124:	fc4e                	sd	s3,56(sp)
   14126:	f852                	sd	s4,48(sp)
   14128:	00277793          	and	a5,a4,2
   1412c:	000bb483          	ld	s1,0(s7)
   14130:	f7d1                	bnez	a5,140bc <__sfvwrite_r+0x36>
   14132:	f05a                	sd	s6,32(sp)
   14134:	e862                	sd	s8,16(sp)
   14136:	e466                	sd	s9,8(sp)
   14138:	00177793          	and	a5,a4,1
   1413c:	ebad                	bnez	a5,141ae <__sfvwrite_r+0x128>
   1413e:	00c42a03          	lw	s4,12(s0)
   14142:	601c                	ld	a5,0(s0)
   14144:	80000b37          	lui	s6,0x80000
   14148:	4c01                	li	s8,0
   1414a:	4901                	li	s2,0
   1414c:	fffb4b13          	not	s6,s6
   14150:	853e                	mv	a0,a5
   14152:	04090863          	beqz	s2,141a2 <__sfvwrite_r+0x11c>
   14156:	20077693          	and	a3,a4,512
   1415a:	14068663          	beqz	a3,142a6 <__sfvwrite_r+0x220>
   1415e:	1b497563          	bgeu	s2,s4,14308 <__sfvwrite_r+0x282>
   14162:	8cca                	mv	s9,s2
   14164:	8a4a                	mv	s4,s2
   14166:	8652                	mv	a2,s4
   14168:	85e2                	mv	a1,s8
   1416a:	6e0000ef          	jal	1484a <memmove>
   1416e:	4458                	lw	a4,12(s0)
   14170:	601c                	ld	a5,0(s0)
   14172:	89ca                	mv	s3,s2
   14174:	4197073b          	subw	a4,a4,s9
   14178:	9a3e                	add	s4,s4,a5
   1417a:	c458                	sw	a4,12(s0)
   1417c:	01443023          	sd	s4,0(s0)
   14180:	4901                	li	s2,0
   14182:	010bb783          	ld	a5,16(s7)
   14186:	9c4e                	add	s8,s8,s3
   14188:	413787b3          	sub	a5,a5,s3
   1418c:	00fbb823          	sd	a5,16(s7)
   14190:	c3c1                	beqz	a5,14210 <__sfvwrite_r+0x18a>
   14192:	601c                	ld	a5,0(s0)
   14194:	01041703          	lh	a4,16(s0)
   14198:	00c42a03          	lw	s4,12(s0)
   1419c:	853e                	mv	a0,a5
   1419e:	fa091ce3          	bnez	s2,14156 <__sfvwrite_r+0xd0>
   141a2:	0004bc03          	ld	s8,0(s1)
   141a6:	0084b903          	ld	s2,8(s1)
   141aa:	04c1                	add	s1,s1,16
   141ac:	b755                	j	14150 <__sfvwrite_r+0xca>
   141ae:	4b01                	li	s6,0
   141b0:	4501                	li	a0,0
   141b2:	4c81                	li	s9,0
   141b4:	4c01                	li	s8,0
   141b6:	0a0c0663          	beqz	s8,14262 <__sfvwrite_r+0x1dc>
   141ba:	cd45                	beqz	a0,14272 <__sfvwrite_r+0x1ec>
   141bc:	8a5a                	mv	s4,s6
   141be:	016c7363          	bgeu	s8,s6,141c4 <__sfvwrite_r+0x13e>
   141c2:	8a62                	mv	s4,s8
   141c4:	6008                	ld	a0,0(s0)
   141c6:	6c18                	ld	a4,24(s0)
   141c8:	445c                	lw	a5,12(s0)
   141ca:	5014                	lw	a3,32(s0)
   141cc:	8952                	mv	s2,s4
   141ce:	00a77663          	bgeu	a4,a0,141da <__sfvwrite_r+0x154>
   141d2:	00d789bb          	addw	s3,a5,a3
   141d6:	0b49c963          	blt	s3,s4,14288 <__sfvwrite_r+0x202>
   141da:	1ada4363          	blt	s4,a3,14380 <__sfvwrite_r+0x2fa>
   141de:	603c                	ld	a5,64(s0)
   141e0:	780c                	ld	a1,48(s0)
   141e2:	8666                	mv	a2,s9
   141e4:	8556                	mv	a0,s5
   141e6:	9782                	jalr	a5
   141e8:	892a                	mv	s2,a0
   141ea:	04a05663          	blez	a0,14236 <__sfvwrite_r+0x1b0>
   141ee:	0005079b          	sext.w	a5,a0
   141f2:	40fb0b3b          	subw	s6,s6,a5
   141f6:	4505                	li	a0,1
   141f8:	020b0a63          	beqz	s6,1422c <__sfvwrite_r+0x1a6>
   141fc:	010bb783          	ld	a5,16(s7)
   14200:	9cca                	add	s9,s9,s2
   14202:	412c0c33          	sub	s8,s8,s2
   14206:	412787b3          	sub	a5,a5,s2
   1420a:	00fbb823          	sd	a5,16(s7)
   1420e:	f7c5                	bnez	a5,141b6 <__sfvwrite_r+0x130>
   14210:	7b02                	ld	s6,32(sp)
   14212:	6c42                	ld	s8,16(sp)
   14214:	6ca2                	ld	s9,8(sp)
   14216:	60e6                	ld	ra,88(sp)
   14218:	6446                	ld	s0,80(sp)
   1421a:	64a6                	ld	s1,72(sp)
   1421c:	6906                	ld	s2,64(sp)
   1421e:	79e2                	ld	s3,56(sp)
   14220:	7a42                	ld	s4,48(sp)
   14222:	7aa2                	ld	s5,40(sp)
   14224:	6be2                	ld	s7,24(sp)
   14226:	4501                	li	a0,0
   14228:	6125                	add	sp,sp,96
   1422a:	8082                	ret
   1422c:	85a2                	mv	a1,s0
   1422e:	8556                	mv	a0,s5
   14230:	dcbff0ef          	jal	13ffa <_fflush_r>
   14234:	d561                	beqz	a0,141fc <__sfvwrite_r+0x176>
   14236:	01041783          	lh	a5,16(s0)
   1423a:	7b02                	ld	s6,32(sp)
   1423c:	6c42                	ld	s8,16(sp)
   1423e:	6ca2                	ld	s9,8(sp)
   14240:	64a6                	ld	s1,72(sp)
   14242:	6906                	ld	s2,64(sp)
   14244:	79e2                	ld	s3,56(sp)
   14246:	7a42                	ld	s4,48(sp)
   14248:	0407e793          	or	a5,a5,64
   1424c:	00f41823          	sh	a5,16(s0)
   14250:	60e6                	ld	ra,88(sp)
   14252:	6446                	ld	s0,80(sp)
   14254:	7aa2                	ld	s5,40(sp)
   14256:	6be2                	ld	s7,24(sp)
   14258:	557d                	li	a0,-1
   1425a:	6125                	add	sp,sp,96
   1425c:	8082                	ret
   1425e:	4501                	li	a0,0
   14260:	8082                	ret
   14262:	0084bc03          	ld	s8,8(s1)
   14266:	87a6                	mv	a5,s1
   14268:	04c1                	add	s1,s1,16
   1426a:	fe0c0ce3          	beqz	s8,14262 <__sfvwrite_r+0x1dc>
   1426e:	0007bc83          	ld	s9,0(a5)
   14272:	8662                	mv	a2,s8
   14274:	45a9                	li	a1,10
   14276:	8566                	mv	a0,s9
   14278:	360000ef          	jal	145d8 <memchr>
   1427c:	14050763          	beqz	a0,143ca <__sfvwrite_r+0x344>
   14280:	0505                	add	a0,a0,1
   14282:	41950b3b          	subw	s6,a0,s9
   14286:	bf1d                	j	141bc <__sfvwrite_r+0x136>
   14288:	85e6                	mv	a1,s9
   1428a:	864e                	mv	a2,s3
   1428c:	5be000ef          	jal	1484a <memmove>
   14290:	601c                	ld	a5,0(s0)
   14292:	85a2                	mv	a1,s0
   14294:	8556                	mv	a0,s5
   14296:	97ce                	add	a5,a5,s3
   14298:	e01c                	sd	a5,0(s0)
   1429a:	d61ff0ef          	jal	13ffa <_fflush_r>
   1429e:	fd41                	bnez	a0,14236 <__sfvwrite_r+0x1b0>
   142a0:	87ce                	mv	a5,s3
   142a2:	894e                	mv	s2,s3
   142a4:	b7b9                	j	141f2 <__sfvwrite_r+0x16c>
   142a6:	6c18                	ld	a4,24(s0)
   142a8:	02f76763          	bltu	a4,a5,142d6 <__sfvwrite_r+0x250>
   142ac:	5018                	lw	a4,32(s0)
   142ae:	02e96463          	bltu	s2,a4,142d6 <__sfvwrite_r+0x250>
   142b2:	86ca                	mv	a3,s2
   142b4:	012b7363          	bgeu	s6,s2,142ba <__sfvwrite_r+0x234>
   142b8:	86da                	mv	a3,s6
   142ba:	02e6e73b          	remw	a4,a3,a4
   142be:	603c                	ld	a5,64(s0)
   142c0:	780c                	ld	a1,48(s0)
   142c2:	8662                	mv	a2,s8
   142c4:	8556                	mv	a0,s5
   142c6:	9e99                	subw	a3,a3,a4
   142c8:	9782                	jalr	a5
   142ca:	89aa                	mv	s3,a0
   142cc:	f6a055e3          	blez	a0,14236 <__sfvwrite_r+0x1b0>
   142d0:	41390933          	sub	s2,s2,s3
   142d4:	b57d                	j	14182 <__sfvwrite_r+0xfc>
   142d6:	89d2                	mv	s3,s4
   142d8:	01497363          	bgeu	s2,s4,142de <__sfvwrite_r+0x258>
   142dc:	89ca                	mv	s3,s2
   142de:	853e                	mv	a0,a5
   142e0:	864e                	mv	a2,s3
   142e2:	85e2                	mv	a1,s8
   142e4:	566000ef          	jal	1484a <memmove>
   142e8:	4458                	lw	a4,12(s0)
   142ea:	601c                	ld	a5,0(s0)
   142ec:	413706bb          	subw	a3,a4,s3
   142f0:	97ce                	add	a5,a5,s3
   142f2:	c454                	sw	a3,12(s0)
   142f4:	e01c                	sd	a5,0(s0)
   142f6:	fee9                	bnez	a3,142d0 <__sfvwrite_r+0x24a>
   142f8:	85a2                	mv	a1,s0
   142fa:	8556                	mv	a0,s5
   142fc:	cffff0ef          	jal	13ffa <_fflush_r>
   14300:	f91d                	bnez	a0,14236 <__sfvwrite_r+0x1b0>
   14302:	41390933          	sub	s2,s2,s3
   14306:	bdb5                	j	14182 <__sfvwrite_r+0xfc>
   14308:	48077693          	and	a3,a4,1152
   1430c:	cac1                	beqz	a3,1439c <__sfvwrite_r+0x316>
   1430e:	5010                	lw	a2,32(s0)
   14310:	6c0c                	ld	a1,24(s0)
   14312:	0016169b          	sllw	a3,a2,0x1
   14316:	9eb1                	addw	a3,a3,a2
   14318:	8f8d                	sub	a5,a5,a1
   1431a:	01f6d99b          	srlw	s3,a3,0x1f
   1431e:	00078c9b          	sext.w	s9,a5
   14322:	00d989bb          	addw	s3,s3,a3
   14326:	001c8693          	add	a3,s9,1
   1432a:	4019d99b          	sraw	s3,s3,0x1
   1432e:	96ca                	add	a3,a3,s2
   14330:	00d9f663          	bgeu	s3,a3,1433c <__sfvwrite_r+0x2b6>
   14334:	0017869b          	addw	a3,a5,1
   14338:	012689bb          	addw	s3,a3,s2
   1433c:	40077713          	and	a4,a4,1024
   14340:	c325                	beqz	a4,143a0 <__sfvwrite_r+0x31a>
   14342:	85ce                	mv	a1,s3
   14344:	8556                	mv	a0,s5
   14346:	917fc0ef          	jal	10c5c <_malloc_r>
   1434a:	8a2a                	mv	s4,a0
   1434c:	c549                	beqz	a0,143d6 <__sfvwrite_r+0x350>
   1434e:	6c0c                	ld	a1,24(s0)
   14350:	8666                	mv	a2,s9
   14352:	5ca000ef          	jal	1491c <memcpy>
   14356:	01045783          	lhu	a5,16(s0)
   1435a:	b7f7f793          	and	a5,a5,-1153
   1435e:	0807e793          	or	a5,a5,128
   14362:	00f41823          	sh	a5,16(s0)
   14366:	019a0533          	add	a0,s4,s9
   1436a:	419987bb          	subw	a5,s3,s9
   1436e:	01443c23          	sd	s4,24(s0)
   14372:	e008                	sd	a0,0(s0)
   14374:	03342023          	sw	s3,32(s0)
   14378:	8cca                	mv	s9,s2
   1437a:	c45c                	sw	a5,12(s0)
   1437c:	8a4a                	mv	s4,s2
   1437e:	b3e5                	j	14166 <__sfvwrite_r+0xe0>
   14380:	8652                	mv	a2,s4
   14382:	85e6                	mv	a1,s9
   14384:	4c6000ef          	jal	1484a <memmove>
   14388:	4454                	lw	a3,12(s0)
   1438a:	6018                	ld	a4,0(s0)
   1438c:	000a079b          	sext.w	a5,s4
   14390:	414686bb          	subw	a3,a3,s4
   14394:	9752                	add	a4,a4,s4
   14396:	c454                	sw	a3,12(s0)
   14398:	e018                	sd	a4,0(s0)
   1439a:	bda1                	j	141f2 <__sfvwrite_r+0x16c>
   1439c:	8cd2                	mv	s9,s4
   1439e:	b3e1                	j	14166 <__sfvwrite_r+0xe0>
   143a0:	864e                	mv	a2,s3
   143a2:	8556                	mv	a0,s5
   143a4:	43b020ef          	jal	16fde <_realloc_r>
   143a8:	8a2a                	mv	s4,a0
   143aa:	fd55                	bnez	a0,14366 <__sfvwrite_r+0x2e0>
   143ac:	6c0c                	ld	a1,24(s0)
   143ae:	8556                	mv	a0,s5
   143b0:	e60fc0ef          	jal	10a10 <_free_r>
   143b4:	01041783          	lh	a5,16(s0)
   143b8:	4731                	li	a4,12
   143ba:	7b02                	ld	s6,32(sp)
   143bc:	6c42                	ld	s8,16(sp)
   143be:	6ca2                	ld	s9,8(sp)
   143c0:	00eaa023          	sw	a4,0(s5)
   143c4:	f7f7f793          	and	a5,a5,-129
   143c8:	bda5                	j	14240 <__sfvwrite_r+0x1ba>
   143ca:	001c0b1b          	addw	s6,s8,1
   143ce:	b3fd                	j	141bc <__sfvwrite_r+0x136>
   143d0:	01041783          	lh	a5,16(s0)
   143d4:	b5b5                	j	14240 <__sfvwrite_r+0x1ba>
   143d6:	4731                	li	a4,12
   143d8:	01041783          	lh	a5,16(s0)
   143dc:	7b02                	ld	s6,32(sp)
   143de:	6c42                	ld	s8,16(sp)
   143e0:	6ca2                	ld	s9,8(sp)
   143e2:	00eaa023          	sw	a4,0(s5)
   143e6:	bda9                	j	14240 <__sfvwrite_r+0x1ba>

00000000000143e8 <__swsetup_r>:
   143e8:	1101                	add	sp,sp,-32
   143ea:	e822                	sd	s0,16(sp)
   143ec:	e426                	sd	s1,8(sp)
   143ee:	ec06                	sd	ra,24(sp)
   143f0:	2201b783          	ld	a5,544(gp) # 1b458 <_impure_ptr>
   143f4:	84aa                	mv	s1,a0
   143f6:	842e                	mv	s0,a1
   143f8:	c399                	beqz	a5,143fe <__swsetup_r+0x16>
   143fa:	67b8                	ld	a4,72(a5)
   143fc:	c75d                	beqz	a4,144aa <__swsetup_r+0xc2>
   143fe:	01041783          	lh	a5,16(s0)
   14402:	0087f713          	and	a4,a5,8
   14406:	c721                	beqz	a4,1444e <__swsetup_r+0x66>
   14408:	6c18                	ld	a4,24(s0)
   1440a:	cf31                	beqz	a4,14466 <__swsetup_r+0x7e>
   1440c:	0017f693          	and	a3,a5,1
   14410:	ce91                	beqz	a3,1442c <__swsetup_r+0x44>
   14412:	5014                	lw	a3,32(s0)
   14414:	00042623          	sw	zero,12(s0)
   14418:	4501                	li	a0,0
   1441a:	40d006bb          	negw	a3,a3
   1441e:	d414                	sw	a3,40(s0)
   14420:	cf11                	beqz	a4,1443c <__swsetup_r+0x54>
   14422:	60e2                	ld	ra,24(sp)
   14424:	6442                	ld	s0,16(sp)
   14426:	64a2                	ld	s1,8(sp)
   14428:	6105                	add	sp,sp,32
   1442a:	8082                	ret
   1442c:	0027f693          	and	a3,a5,2
   14430:	4601                	li	a2,0
   14432:	e291                	bnez	a3,14436 <__swsetup_r+0x4e>
   14434:	5010                	lw	a2,32(s0)
   14436:	c450                	sw	a2,12(s0)
   14438:	4501                	li	a0,0
   1443a:	f765                	bnez	a4,14422 <__swsetup_r+0x3a>
   1443c:	0807f713          	and	a4,a5,128
   14440:	d36d                	beqz	a4,14422 <__swsetup_r+0x3a>
   14442:	0407e793          	or	a5,a5,64
   14446:	00f41823          	sh	a5,16(s0)
   1444a:	557d                	li	a0,-1
   1444c:	bfd9                	j	14422 <__swsetup_r+0x3a>
   1444e:	0107f713          	and	a4,a5,16
   14452:	c325                	beqz	a4,144b2 <__swsetup_r+0xca>
   14454:	0047f713          	and	a4,a5,4
   14458:	e70d                	bnez	a4,14482 <__swsetup_r+0x9a>
   1445a:	6c18                	ld	a4,24(s0)
   1445c:	0087e793          	or	a5,a5,8
   14460:	00f41823          	sh	a5,16(s0)
   14464:	f745                	bnez	a4,1440c <__swsetup_r+0x24>
   14466:	2807f693          	and	a3,a5,640
   1446a:	20000613          	li	a2,512
   1446e:	f8c68fe3          	beq	a3,a2,1440c <__swsetup_r+0x24>
   14472:	85a2                	mv	a1,s0
   14474:	8526                	mv	a0,s1
   14476:	022030ef          	jal	17498 <__smakebuf_r>
   1447a:	01041783          	lh	a5,16(s0)
   1447e:	6c18                	ld	a4,24(s0)
   14480:	b771                	j	1440c <__swsetup_r+0x24>
   14482:	6c2c                	ld	a1,88(s0)
   14484:	cd81                	beqz	a1,1449c <__swsetup_r+0xb4>
   14486:	07440713          	add	a4,s0,116
   1448a:	00e58763          	beq	a1,a4,14498 <__swsetup_r+0xb0>
   1448e:	8526                	mv	a0,s1
   14490:	d80fc0ef          	jal	10a10 <_free_r>
   14494:	01041783          	lh	a5,16(s0)
   14498:	04043c23          	sd	zero,88(s0)
   1449c:	6c18                	ld	a4,24(s0)
   1449e:	fdb7f793          	and	a5,a5,-37
   144a2:	00042423          	sw	zero,8(s0)
   144a6:	e018                	sd	a4,0(s0)
   144a8:	bf55                	j	1445c <__swsetup_r+0x74>
   144aa:	853e                	mv	a0,a5
   144ac:	f5ffb0ef          	jal	1040a <__sinit>
   144b0:	b7b9                	j	143fe <__swsetup_r+0x16>
   144b2:	4725                	li	a4,9
   144b4:	c098                	sw	a4,0(s1)
   144b6:	0407e793          	or	a5,a5,64
   144ba:	00f41823          	sh	a5,16(s0)
   144be:	557d                	li	a0,-1
   144c0:	b78d                	j	14422 <__swsetup_r+0x3a>

00000000000144c2 <__fputwc>:
   144c2:	7179                	add	sp,sp,-48
   144c4:	f022                	sd	s0,32(sp)
   144c6:	ec26                	sd	s1,24(sp)
   144c8:	e84a                	sd	s2,16(sp)
   144ca:	f406                	sd	ra,40(sp)
   144cc:	892a                	mv	s2,a0
   144ce:	84ae                	mv	s1,a1
   144d0:	8432                	mv	s0,a2
   144d2:	2a0000ef          	jal	14772 <__locale_mb_cur_max>
   144d6:	4785                	li	a5,1
   144d8:	00f51b63          	bne	a0,a5,144ee <__fputwc+0x2c>
   144dc:	fff4879b          	addw	a5,s1,-1
   144e0:	0fe00713          	li	a4,254
   144e4:	00f76563          	bltu	a4,a5,144ee <__fputwc+0x2c>
   144e8:	00910423          	sb	s1,8(sp)
   144ec:	a821                	j	14504 <__fputwc+0x42>
   144ee:	0a440693          	add	a3,s0,164
   144f2:	8626                	mv	a2,s1
   144f4:	002c                	add	a1,sp,8
   144f6:	854a                	mv	a0,s2
   144f8:	70b020ef          	jal	17402 <_wcrtomb_r>
   144fc:	57fd                	li	a5,-1
   144fe:	04f50d63          	beq	a0,a5,14558 <__fputwc+0x96>
   14502:	c50d                	beqz	a0,1452c <__fputwc+0x6a>
   14504:	445c                	lw	a5,12(s0)
   14506:	00814583          	lbu	a1,8(sp)
   1450a:	fff7871b          	addw	a4,a5,-1
   1450e:	c458                	sw	a4,12(s0)
   14510:	00075863          	bgez	a4,14520 <__fputwc+0x5e>
   14514:	541c                	lw	a5,40(s0)
   14516:	02f74363          	blt	a4,a5,1453c <__fputwc+0x7a>
   1451a:	47a9                	li	a5,10
   1451c:	02f58063          	beq	a1,a5,1453c <__fputwc+0x7a>
   14520:	601c                	ld	a5,0(s0)
   14522:	00178713          	add	a4,a5,1
   14526:	e018                	sd	a4,0(s0)
   14528:	00b78023          	sb	a1,0(a5)
   1452c:	70a2                	ld	ra,40(sp)
   1452e:	7402                	ld	s0,32(sp)
   14530:	6942                	ld	s2,16(sp)
   14532:	0004851b          	sext.w	a0,s1
   14536:	64e2                	ld	s1,24(sp)
   14538:	6145                	add	sp,sp,48
   1453a:	8082                	ret
   1453c:	8622                	mv	a2,s0
   1453e:	854a                	mv	a0,s2
   14540:	0f6030ef          	jal	17636 <__swbuf_r>
   14544:	57fd                	li	a5,-1
   14546:	fef513e3          	bne	a0,a5,1452c <__fputwc+0x6a>
   1454a:	557d                	li	a0,-1
   1454c:	70a2                	ld	ra,40(sp)
   1454e:	7402                	ld	s0,32(sp)
   14550:	64e2                	ld	s1,24(sp)
   14552:	6942                	ld	s2,16(sp)
   14554:	6145                	add	sp,sp,48
   14556:	8082                	ret
   14558:	01045783          	lhu	a5,16(s0)
   1455c:	557d                	li	a0,-1
   1455e:	0407e793          	or	a5,a5,64
   14562:	00f41823          	sh	a5,16(s0)
   14566:	b7dd                	j	1454c <__fputwc+0x8a>

0000000000014568 <_fputwc_r>:
   14568:	01061783          	lh	a5,16(a2)
   1456c:	03279713          	sll	a4,a5,0x32
   14570:	00074c63          	bltz	a4,14588 <_fputwc_r+0x20>
   14574:	0ac62703          	lw	a4,172(a2)
   14578:	6689                	lui	a3,0x2
   1457a:	8fd5                	or	a5,a5,a3
   1457c:	6689                	lui	a3,0x2
   1457e:	8f55                	or	a4,a4,a3
   14580:	00f61823          	sh	a5,16(a2)
   14584:	0ae62623          	sw	a4,172(a2)
   14588:	bf2d                	j	144c2 <__fputwc>

000000000001458a <fputwc>:
   1458a:	1101                	add	sp,sp,-32
   1458c:	e822                	sd	s0,16(sp)
   1458e:	ec06                	sd	ra,24(sp)
   14590:	2201b403          	ld	s0,544(gp) # 1b458 <_impure_ptr>
   14594:	862e                	mv	a2,a1
   14596:	85aa                	mv	a1,a0
   14598:	c019                	beqz	s0,1459e <fputwc+0x14>
   1459a:	643c                	ld	a5,72(s0)
   1459c:	c795                	beqz	a5,145c8 <fputwc+0x3e>
   1459e:	01061783          	lh	a5,16(a2)
   145a2:	03279713          	sll	a4,a5,0x32
   145a6:	00074c63          	bltz	a4,145be <fputwc+0x34>
   145aa:	0ac62703          	lw	a4,172(a2)
   145ae:	6689                	lui	a3,0x2
   145b0:	8fd5                	or	a5,a5,a3
   145b2:	6689                	lui	a3,0x2
   145b4:	8f55                	or	a4,a4,a3
   145b6:	00f61823          	sh	a5,16(a2)
   145ba:	0ae62623          	sw	a4,172(a2)
   145be:	8522                	mv	a0,s0
   145c0:	6442                	ld	s0,16(sp)
   145c2:	60e2                	ld	ra,24(sp)
   145c4:	6105                	add	sp,sp,32
   145c6:	bdf5                	j	144c2 <__fputwc>
   145c8:	e02a                	sd	a0,0(sp)
   145ca:	8522                	mv	a0,s0
   145cc:	e432                	sd	a2,8(sp)
   145ce:	e3dfb0ef          	jal	1040a <__sinit>
   145d2:	6622                	ld	a2,8(sp)
   145d4:	6582                	ld	a1,0(sp)
   145d6:	b7e1                	j	1459e <fputwc+0x14>

00000000000145d8 <memchr>:
   145d8:	00757793          	and	a5,a0,7
   145dc:	0ff5f693          	zext.b	a3,a1
   145e0:	c395                	beqz	a5,14604 <memchr+0x2c>
   145e2:	fff60793          	add	a5,a2,-1
   145e6:	c605                	beqz	a2,1460e <memchr+0x36>
   145e8:	567d                	li	a2,-1
   145ea:	a801                	j	145fa <memchr+0x22>
   145ec:	0505                	add	a0,a0,1
   145ee:	00757713          	and	a4,a0,7
   145f2:	cb11                	beqz	a4,14606 <memchr+0x2e>
   145f4:	17fd                	add	a5,a5,-1
   145f6:	00c78c63          	beq	a5,a2,1460e <memchr+0x36>
   145fa:	00054703          	lbu	a4,0(a0)
   145fe:	fed717e3          	bne	a4,a3,145ec <memchr+0x14>
   14602:	8082                	ret
   14604:	87b2                	mv	a5,a2
   14606:	471d                	li	a4,7
   14608:	00f76563          	bltu	a4,a5,14612 <memchr+0x3a>
   1460c:	e3bd                	bnez	a5,14672 <memchr+0x9a>
   1460e:	4501                	li	a0,0
   14610:	8082                	ret
   14612:	0ff5f593          	zext.b	a1,a1
   14616:	f0101837          	lui	a6,0xf0101
   1461a:	00859713          	sll	a4,a1,0x8
   1461e:	feff08b7          	lui	a7,0xfeff0
   14622:	0812                	sll	a6,a6,0x4
   14624:	972e                	add	a4,a4,a1
   14626:	eff88893          	add	a7,a7,-257 # fffffffffefefeff <__BSS_END__+0xfffffffffefd44c7>
   1462a:	10180813          	add	a6,a6,257 # fffffffff0101101 <__BSS_END__+0xfffffffff00e56c9>
   1462e:	01071593          	sll	a1,a4,0x10
   14632:	08c2                	sll	a7,a7,0x10
   14634:	0842                	sll	a6,a6,0x10
   14636:	95ba                	add	a1,a1,a4
   14638:	eff88893          	add	a7,a7,-257
   1463c:	10180813          	add	a6,a6,257
   14640:	02059713          	sll	a4,a1,0x20
   14644:	08c2                	sll	a7,a7,0x10
   14646:	083e                	sll	a6,a6,0xf
   14648:	95ba                	add	a1,a1,a4
   1464a:	eff88893          	add	a7,a7,-257
   1464e:	08080813          	add	a6,a6,128
   14652:	431d                	li	t1,7
   14654:	a029                	j	1465e <memchr+0x86>
   14656:	17e1                	add	a5,a5,-8
   14658:	0521                	add	a0,a0,8
   1465a:	faf379e3          	bgeu	t1,a5,1460c <memchr+0x34>
   1465e:	6118                	ld	a4,0(a0)
   14660:	8f2d                	xor	a4,a4,a1
   14662:	01170633          	add	a2,a4,a7
   14666:	fff74713          	not	a4,a4
   1466a:	8f71                	and	a4,a4,a2
   1466c:	01077733          	and	a4,a4,a6
   14670:	d37d                	beqz	a4,14656 <memchr+0x7e>
   14672:	97aa                	add	a5,a5,a0
   14674:	a021                	j	1467c <memchr+0xa4>
   14676:	0505                	add	a0,a0,1
   14678:	f8a78be3          	beq	a5,a0,1460e <memchr+0x36>
   1467c:	00054703          	lbu	a4,0(a0)
   14680:	fed71be3          	bne	a4,a3,14676 <memchr+0x9e>
   14684:	8082                	ret

0000000000014686 <strncpy>:
   14686:	00a5e7b3          	or	a5,a1,a0
   1468a:	8b9d                	and	a5,a5,7
   1468c:	e781                	bnez	a5,14694 <strncpy+0xe>
   1468e:	479d                	li	a5,7
   14690:	02c7eb63          	bltu	a5,a2,146c6 <strncpy+0x40>
   14694:	872a                	mv	a4,a0
   14696:	a811                	j	146aa <strncpy+0x24>
   14698:	fff5c683          	lbu	a3,-1(a1)
   1469c:	fff60813          	add	a6,a2,-1
   146a0:	fed78fa3          	sb	a3,-1(a5)
   146a4:	ca81                	beqz	a3,146b4 <strncpy+0x2e>
   146a6:	873e                	mv	a4,a5
   146a8:	8642                	mv	a2,a6
   146aa:	0585                	add	a1,a1,1
   146ac:	00170793          	add	a5,a4,1
   146b0:	f665                	bnez	a2,14698 <strncpy+0x12>
   146b2:	8082                	ret
   146b4:	9732                	add	a4,a4,a2
   146b6:	06080163          	beqz	a6,14718 <strncpy+0x92>
   146ba:	0785                	add	a5,a5,1
   146bc:	fe078fa3          	sb	zero,-1(a5)
   146c0:	fee79de3          	bne	a5,a4,146ba <strncpy+0x34>
   146c4:	8082                	ret
   146c6:	f0101837          	lui	a6,0xf0101
   146ca:	feff08b7          	lui	a7,0xfeff0
   146ce:	0812                	sll	a6,a6,0x4
   146d0:	eff88893          	add	a7,a7,-257 # fffffffffefefeff <__BSS_END__+0xfffffffffefd44c7>
   146d4:	10180813          	add	a6,a6,257 # fffffffff0101101 <__BSS_END__+0xfffffffff00e56c9>
   146d8:	08c2                	sll	a7,a7,0x10
   146da:	0842                	sll	a6,a6,0x10
   146dc:	eff88893          	add	a7,a7,-257
   146e0:	10180813          	add	a6,a6,257
   146e4:	08c2                	sll	a7,a7,0x10
   146e6:	083e                	sll	a6,a6,0xf
   146e8:	872a                	mv	a4,a0
   146ea:	eff88893          	add	a7,a7,-257
   146ee:	08080813          	add	a6,a6,128
   146f2:	4e1d                	li	t3,7
   146f4:	a039                	j	14702 <strncpy+0x7c>
   146f6:	e314                	sd	a3,0(a4)
   146f8:	1661                	add	a2,a2,-8
   146fa:	0721                	add	a4,a4,8
   146fc:	05a1                	add	a1,a1,8
   146fe:	face76e3          	bgeu	t3,a2,146aa <strncpy+0x24>
   14702:	6194                	ld	a3,0(a1)
   14704:	011687b3          	add	a5,a3,a7
   14708:	fff6c313          	not	t1,a3
   1470c:	0067f7b3          	and	a5,a5,t1
   14710:	0107f7b3          	and	a5,a5,a6
   14714:	d3ed                	beqz	a5,146f6 <strncpy+0x70>
   14716:	bf51                	j	146aa <strncpy+0x24>
   14718:	8082                	ret

000000000001471a <_setlocale_r>:
   1471a:	c60d                	beqz	a2,14744 <_setlocale_r+0x2a>
   1471c:	1141                	add	sp,sp,-16
   1471e:	00005597          	auipc	a1,0x5
   14722:	9d258593          	add	a1,a1,-1582 # 190f0 <__clzdi2+0xcc>
   14726:	8532                	mv	a0,a2
   14728:	e022                	sd	s0,0(sp)
   1472a:	e406                	sd	ra,8(sp)
   1472c:	8432                	mv	s0,a2
   1472e:	3d6000ef          	jal	14b04 <strcmp>
   14732:	ed11                	bnez	a0,1474e <_setlocale_r+0x34>
   14734:	00005517          	auipc	a0,0x5
   14738:	9b450513          	add	a0,a0,-1612 # 190e8 <__clzdi2+0xc4>
   1473c:	60a2                	ld	ra,8(sp)
   1473e:	6402                	ld	s0,0(sp)
   14740:	0141                	add	sp,sp,16
   14742:	8082                	ret
   14744:	00005517          	auipc	a0,0x5
   14748:	9a450513          	add	a0,a0,-1628 # 190e8 <__clzdi2+0xc4>
   1474c:	8082                	ret
   1474e:	00005597          	auipc	a1,0x5
   14752:	99a58593          	add	a1,a1,-1638 # 190e8 <__clzdi2+0xc4>
   14756:	8522                	mv	a0,s0
   14758:	3ac000ef          	jal	14b04 <strcmp>
   1475c:	dd61                	beqz	a0,14734 <_setlocale_r+0x1a>
   1475e:	00005597          	auipc	a1,0x5
   14762:	97258593          	add	a1,a1,-1678 # 190d0 <__clzdi2+0xac>
   14766:	8522                	mv	a0,s0
   14768:	39c000ef          	jal	14b04 <strcmp>
   1476c:	d561                	beqz	a0,14734 <_setlocale_r+0x1a>
   1476e:	4501                	li	a0,0
   14770:	b7f1                	j	1473c <_setlocale_r+0x22>

0000000000014772 <__locale_mb_cur_max>:
   14772:	1601c503          	lbu	a0,352(gp) # 1b398 <__global_locale+0x160>
   14776:	8082                	ret

0000000000014778 <setlocale>:
   14778:	c58d                	beqz	a1,147a2 <setlocale+0x2a>
   1477a:	1141                	add	sp,sp,-16
   1477c:	e022                	sd	s0,0(sp)
   1477e:	842e                	mv	s0,a1
   14780:	8522                	mv	a0,s0
   14782:	00005597          	auipc	a1,0x5
   14786:	96e58593          	add	a1,a1,-1682 # 190f0 <__clzdi2+0xcc>
   1478a:	e406                	sd	ra,8(sp)
   1478c:	378000ef          	jal	14b04 <strcmp>
   14790:	ed11                	bnez	a0,147ac <setlocale+0x34>
   14792:	00005517          	auipc	a0,0x5
   14796:	95650513          	add	a0,a0,-1706 # 190e8 <__clzdi2+0xc4>
   1479a:	60a2                	ld	ra,8(sp)
   1479c:	6402                	ld	s0,0(sp)
   1479e:	0141                	add	sp,sp,16
   147a0:	8082                	ret
   147a2:	00005517          	auipc	a0,0x5
   147a6:	94650513          	add	a0,a0,-1722 # 190e8 <__clzdi2+0xc4>
   147aa:	8082                	ret
   147ac:	00005597          	auipc	a1,0x5
   147b0:	93c58593          	add	a1,a1,-1732 # 190e8 <__clzdi2+0xc4>
   147b4:	8522                	mv	a0,s0
   147b6:	34e000ef          	jal	14b04 <strcmp>
   147ba:	dd61                	beqz	a0,14792 <setlocale+0x1a>
   147bc:	00005597          	auipc	a1,0x5
   147c0:	91458593          	add	a1,a1,-1772 # 190d0 <__clzdi2+0xac>
   147c4:	8522                	mv	a0,s0
   147c6:	33e000ef          	jal	14b04 <strcmp>
   147ca:	d561                	beqz	a0,14792 <setlocale+0x1a>
   147cc:	4501                	li	a0,0
   147ce:	b7f1                	j	1479a <setlocale+0x22>

00000000000147d0 <__localeconv_l>:
   147d0:	10050513          	add	a0,a0,256
   147d4:	8082                	ret

00000000000147d6 <_localeconv_r>:
   147d6:	10018513          	add	a0,gp,256 # 1b338 <__global_locale+0x100>
   147da:	8082                	ret

00000000000147dc <localeconv>:
   147dc:	10018513          	add	a0,gp,256 # 1b338 <__global_locale+0x100>
   147e0:	8082                	ret

00000000000147e2 <_sbrk_r>:
   147e2:	1141                	add	sp,sp,-16
   147e4:	e022                	sd	s0,0(sp)
   147e6:	842a                	mv	s0,a0
   147e8:	852e                	mv	a0,a1
   147ea:	2401a023          	sw	zero,576(gp) # 1b478 <errno>
   147ee:	e406                	sd	ra,8(sp)
   147f0:	59c030ef          	jal	17d8c <_sbrk>
   147f4:	57fd                	li	a5,-1
   147f6:	00f50663          	beq	a0,a5,14802 <_sbrk_r+0x20>
   147fa:	60a2                	ld	ra,8(sp)
   147fc:	6402                	ld	s0,0(sp)
   147fe:	0141                	add	sp,sp,16
   14800:	8082                	ret
   14802:	2401a783          	lw	a5,576(gp) # 1b478 <errno>
   14806:	dbf5                	beqz	a5,147fa <_sbrk_r+0x18>
   14808:	60a2                	ld	ra,8(sp)
   1480a:	c01c                	sw	a5,0(s0)
   1480c:	6402                	ld	s0,0(sp)
   1480e:	0141                	add	sp,sp,16
   14810:	8082                	ret

0000000000014812 <__libc_fini_array>:
   14812:	1101                	add	sp,sp,-32
   14814:	e822                	sd	s0,16(sp)
   14816:	00006797          	auipc	a5,0x6
   1481a:	09a78793          	add	a5,a5,154 # 1a8b0 <__do_global_dtors_aux_fini_array_entry>
   1481e:	00006417          	auipc	s0,0x6
   14822:	09a40413          	add	s0,s0,154 # 1a8b8 <__sglue>
   14826:	8c1d                	sub	s0,s0,a5
   14828:	e426                	sd	s1,8(sp)
   1482a:	ec06                	sd	ra,24(sp)
   1482c:	40345493          	sra	s1,s0,0x3
   14830:	c881                	beqz	s1,14840 <__libc_fini_array+0x2e>
   14832:	1461                	add	s0,s0,-8
   14834:	943e                	add	s0,s0,a5
   14836:	601c                	ld	a5,0(s0)
   14838:	14fd                	add	s1,s1,-1
   1483a:	1461                	add	s0,s0,-8
   1483c:	9782                	jalr	a5
   1483e:	fce5                	bnez	s1,14836 <__libc_fini_array+0x24>
   14840:	60e2                	ld	ra,24(sp)
   14842:	6442                	ld	s0,16(sp)
   14844:	64a2                	ld	s1,8(sp)
   14846:	6105                	add	sp,sp,32
   14848:	8082                	ret

000000000001484a <memmove>:
   1484a:	02a5f263          	bgeu	a1,a0,1486e <memmove+0x24>
   1484e:	00c58733          	add	a4,a1,a2
   14852:	00e57e63          	bgeu	a0,a4,1486e <memmove+0x24>
   14856:	00c507b3          	add	a5,a0,a2
   1485a:	ca1d                	beqz	a2,14890 <memmove+0x46>
   1485c:	fff74683          	lbu	a3,-1(a4)
   14860:	17fd                	add	a5,a5,-1
   14862:	177d                	add	a4,a4,-1
   14864:	00d78023          	sb	a3,0(a5)
   14868:	fef51ae3          	bne	a0,a5,1485c <memmove+0x12>
   1486c:	8082                	ret
   1486e:	47fd                	li	a5,31
   14870:	02c7e163          	bltu	a5,a2,14892 <memmove+0x48>
   14874:	87aa                	mv	a5,a0
   14876:	fff60693          	add	a3,a2,-1
   1487a:	ce51                	beqz	a2,14916 <memmove+0xcc>
   1487c:	0685                	add	a3,a3,1 # 2001 <exit-0xe0e7>
   1487e:	96be                	add	a3,a3,a5
   14880:	0005c703          	lbu	a4,0(a1)
   14884:	0785                	add	a5,a5,1
   14886:	0585                	add	a1,a1,1
   14888:	fee78fa3          	sb	a4,-1(a5)
   1488c:	fed79ae3          	bne	a5,a3,14880 <memmove+0x36>
   14890:	8082                	ret
   14892:	00b567b3          	or	a5,a0,a1
   14896:	8b9d                	and	a5,a5,7
   14898:	ebbd                	bnez	a5,1490e <memmove+0xc4>
   1489a:	fe060893          	add	a7,a2,-32
   1489e:	fe08f893          	and	a7,a7,-32
   148a2:	02088893          	add	a7,a7,32
   148a6:	011506b3          	add	a3,a0,a7
   148aa:	872e                	mv	a4,a1
   148ac:	87aa                	mv	a5,a0
   148ae:	00073803          	ld	a6,0(a4)
   148b2:	02070713          	add	a4,a4,32
   148b6:	02078793          	add	a5,a5,32
   148ba:	ff07b023          	sd	a6,-32(a5)
   148be:	fe873803          	ld	a6,-24(a4)
   148c2:	ff07b423          	sd	a6,-24(a5)
   148c6:	ff073803          	ld	a6,-16(a4)
   148ca:	ff07b823          	sd	a6,-16(a5)
   148ce:	ff873803          	ld	a6,-8(a4)
   148d2:	ff07bc23          	sd	a6,-8(a5)
   148d6:	fcd79ce3          	bne	a5,a3,148ae <memmove+0x64>
   148da:	01867813          	and	a6,a2,24
   148de:	95c6                	add	a1,a1,a7
   148e0:	01f67713          	and	a4,a2,31
   148e4:	02080a63          	beqz	a6,14918 <memmove+0xce>
   148e8:	ff870813          	add	a6,a4,-8
   148ec:	ff887813          	and	a6,a6,-8
   148f0:	0821                	add	a6,a6,8
   148f2:	010687b3          	add	a5,a3,a6
   148f6:	872e                	mv	a4,a1
   148f8:	00073883          	ld	a7,0(a4)
   148fc:	06a1                	add	a3,a3,8
   148fe:	0721                	add	a4,a4,8
   14900:	ff16bc23          	sd	a7,-8(a3)
   14904:	fef69ae3          	bne	a3,a5,148f8 <memmove+0xae>
   14908:	8a1d                	and	a2,a2,7
   1490a:	95c2                	add	a1,a1,a6
   1490c:	b7ad                	j	14876 <memmove+0x2c>
   1490e:	fff60693          	add	a3,a2,-1
   14912:	87aa                	mv	a5,a0
   14914:	b7a5                	j	1487c <memmove+0x32>
   14916:	8082                	ret
   14918:	863a                	mv	a2,a4
   1491a:	bfb1                	j	14876 <memmove+0x2c>

000000000001491c <memcpy>:
   1491c:	00a5c7b3          	xor	a5,a1,a0
   14920:	8b9d                	and	a5,a5,7
   14922:	00c508b3          	add	a7,a0,a2
   14926:	e7b1                	bnez	a5,14972 <memcpy+0x56>
   14928:	479d                	li	a5,7
   1492a:	04c7f463          	bgeu	a5,a2,14972 <memcpy+0x56>
   1492e:	00757793          	and	a5,a0,7
   14932:	872a                	mv	a4,a0
   14934:	ebb9                	bnez	a5,1498a <memcpy+0x6e>
   14936:	ff88f613          	and	a2,a7,-8
   1493a:	40e606b3          	sub	a3,a2,a4
   1493e:	04000793          	li	a5,64
   14942:	06d7c863          	blt	a5,a3,149b2 <memcpy+0x96>
   14946:	86ae                	mv	a3,a1
   14948:	87ba                	mv	a5,a4
   1494a:	02c77163          	bgeu	a4,a2,1496c <memcpy+0x50>
   1494e:	0006b803          	ld	a6,0(a3)
   14952:	07a1                	add	a5,a5,8
   14954:	06a1                	add	a3,a3,8
   14956:	ff07bc23          	sd	a6,-8(a5)
   1495a:	fec7eae3          	bltu	a5,a2,1494e <memcpy+0x32>
   1495e:	fff60793          	add	a5,a2,-1
   14962:	8f99                	sub	a5,a5,a4
   14964:	9be1                	and	a5,a5,-8
   14966:	07a1                	add	a5,a5,8
   14968:	973e                	add	a4,a4,a5
   1496a:	95be                	add	a1,a1,a5
   1496c:	01176663          	bltu	a4,a7,14978 <memcpy+0x5c>
   14970:	8082                	ret
   14972:	872a                	mv	a4,a0
   14974:	03157e63          	bgeu	a0,a7,149b0 <memcpy+0x94>
   14978:	0005c783          	lbu	a5,0(a1)
   1497c:	0705                	add	a4,a4,1
   1497e:	0585                	add	a1,a1,1
   14980:	fef70fa3          	sb	a5,-1(a4)
   14984:	fee89ae3          	bne	a7,a4,14978 <memcpy+0x5c>
   14988:	8082                	ret
   1498a:	0005c683          	lbu	a3,0(a1)
   1498e:	0705                	add	a4,a4,1
   14990:	00777793          	and	a5,a4,7
   14994:	fed70fa3          	sb	a3,-1(a4)
   14998:	0585                	add	a1,a1,1
   1499a:	dfd1                	beqz	a5,14936 <memcpy+0x1a>
   1499c:	0005c683          	lbu	a3,0(a1)
   149a0:	0705                	add	a4,a4,1
   149a2:	00777793          	and	a5,a4,7
   149a6:	fed70fa3          	sb	a3,-1(a4)
   149aa:	0585                	add	a1,a1,1
   149ac:	fff9                	bnez	a5,1498a <memcpy+0x6e>
   149ae:	b761                	j	14936 <memcpy+0x1a>
   149b0:	8082                	ret
   149b2:	1141                	add	sp,sp,-16
   149b4:	e422                	sd	s0,8(sp)
   149b6:	04000413          	li	s0,64
   149ba:	0005b383          	ld	t2,0(a1)
   149be:	0085b283          	ld	t0,8(a1)
   149c2:	0105bf83          	ld	t6,16(a1)
   149c6:	0185bf03          	ld	t5,24(a1)
   149ca:	0205be83          	ld	t4,32(a1)
   149ce:	0285be03          	ld	t3,40(a1)
   149d2:	0305b303          	ld	t1,48(a1)
   149d6:	0385b803          	ld	a6,56(a1)
   149da:	61b4                	ld	a3,64(a1)
   149dc:	04870713          	add	a4,a4,72
   149e0:	40e607b3          	sub	a5,a2,a4
   149e4:	fa773c23          	sd	t2,-72(a4)
   149e8:	fc573023          	sd	t0,-64(a4)
   149ec:	fdf73423          	sd	t6,-56(a4)
   149f0:	fde73823          	sd	t5,-48(a4)
   149f4:	fdd73c23          	sd	t4,-40(a4)
   149f8:	ffc73023          	sd	t3,-32(a4)
   149fc:	fe673423          	sd	t1,-24(a4)
   14a00:	ff073823          	sd	a6,-16(a4)
   14a04:	fed73c23          	sd	a3,-8(a4)
   14a08:	04858593          	add	a1,a1,72
   14a0c:	faf447e3          	blt	s0,a5,149ba <memcpy+0x9e>
   14a10:	86ae                	mv	a3,a1
   14a12:	87ba                	mv	a5,a4
   14a14:	02c77163          	bgeu	a4,a2,14a36 <memcpy+0x11a>
   14a18:	0006b803          	ld	a6,0(a3)
   14a1c:	07a1                	add	a5,a5,8
   14a1e:	06a1                	add	a3,a3,8
   14a20:	ff07bc23          	sd	a6,-8(a5)
   14a24:	fec7eae3          	bltu	a5,a2,14a18 <memcpy+0xfc>
   14a28:	fff60793          	add	a5,a2,-1
   14a2c:	8f99                	sub	a5,a5,a4
   14a2e:	9be1                	and	a5,a5,-8
   14a30:	07a1                	add	a5,a5,8
   14a32:	973e                	add	a4,a4,a5
   14a34:	95be                	add	a1,a1,a5
   14a36:	01176563          	bltu	a4,a7,14a40 <memcpy+0x124>
   14a3a:	6422                	ld	s0,8(sp)
   14a3c:	0141                	add	sp,sp,16
   14a3e:	8082                	ret
   14a40:	0005c783          	lbu	a5,0(a1)
   14a44:	0705                	add	a4,a4,1
   14a46:	0585                	add	a1,a1,1
   14a48:	fef70fa3          	sb	a5,-1(a4)
   14a4c:	fee887e3          	beq	a7,a4,14a3a <memcpy+0x11e>
   14a50:	0005c783          	lbu	a5,0(a1)
   14a54:	0705                	add	a4,a4,1
   14a56:	0585                	add	a1,a1,1
   14a58:	fef70fa3          	sb	a5,-1(a4)
   14a5c:	fee892e3          	bne	a7,a4,14a40 <memcpy+0x124>
   14a60:	bfe9                	j	14a3a <memcpy+0x11e>

0000000000014a62 <strlen>:
   14a62:	00757793          	and	a5,a0,7
   14a66:	872a                	mv	a4,a0
   14a68:	e3b5                	bnez	a5,14acc <strlen+0x6a>
   14a6a:	0feff6b7          	lui	a3,0xfeff
   14a6e:	0692                	sll	a3,a3,0x4
   14a70:	eff68693          	add	a3,a3,-257 # fefeeff <__BSS_END__+0xfee34c7>
   14a74:	06c2                	sll	a3,a3,0x10
   14a76:	eff68693          	add	a3,a3,-257
   14a7a:	06be                	sll	a3,a3,0xf
   14a7c:	f7f68693          	add	a3,a3,-129
   14a80:	55fd                	li	a1,-1
   14a82:	6310                	ld	a2,0(a4)
   14a84:	0721                	add	a4,a4,8
   14a86:	00d677b3          	and	a5,a2,a3
   14a8a:	97b6                	add	a5,a5,a3
   14a8c:	8fd1                	or	a5,a5,a2
   14a8e:	8fd5                	or	a5,a5,a3
   14a90:	feb789e3          	beq	a5,a1,14a82 <strlen+0x20>
   14a94:	ff874683          	lbu	a3,-8(a4)
   14a98:	40a707b3          	sub	a5,a4,a0
   14a9c:	c6a9                	beqz	a3,14ae6 <strlen+0x84>
   14a9e:	ff974683          	lbu	a3,-7(a4)
   14aa2:	ce9d                	beqz	a3,14ae0 <strlen+0x7e>
   14aa4:	ffa74683          	lbu	a3,-6(a4)
   14aa8:	c6a9                	beqz	a3,14af2 <strlen+0x90>
   14aaa:	ffb74683          	lbu	a3,-5(a4)
   14aae:	ce9d                	beqz	a3,14aec <strlen+0x8a>
   14ab0:	ffc74683          	lbu	a3,-4(a4)
   14ab4:	c2b1                	beqz	a3,14af8 <strlen+0x96>
   14ab6:	ffd74683          	lbu	a3,-3(a4)
   14aba:	c2b1                	beqz	a3,14afe <strlen+0x9c>
   14abc:	ffe74503          	lbu	a0,-2(a4)
   14ac0:	00a03533          	snez	a0,a0
   14ac4:	953e                	add	a0,a0,a5
   14ac6:	1579                	add	a0,a0,-2
   14ac8:	8082                	ret
   14aca:	d2c5                	beqz	a3,14a6a <strlen+0x8>
   14acc:	00074783          	lbu	a5,0(a4)
   14ad0:	0705                	add	a4,a4,1
   14ad2:	00777693          	and	a3,a4,7
   14ad6:	fbf5                	bnez	a5,14aca <strlen+0x68>
   14ad8:	8f09                	sub	a4,a4,a0
   14ada:	fff70513          	add	a0,a4,-1
   14ade:	8082                	ret
   14ae0:	ff978513          	add	a0,a5,-7
   14ae4:	8082                	ret
   14ae6:	ff878513          	add	a0,a5,-8
   14aea:	8082                	ret
   14aec:	ffb78513          	add	a0,a5,-5
   14af0:	8082                	ret
   14af2:	ffa78513          	add	a0,a5,-6
   14af6:	8082                	ret
   14af8:	ffc78513          	add	a0,a5,-4
   14afc:	8082                	ret
   14afe:	ffd78513          	add	a0,a5,-3
   14b02:	8082                	ret

0000000000014b04 <strcmp>:
   14b04:	00b56733          	or	a4,a0,a1
   14b08:	53fd                	li	t2,-1
   14b0a:	8b1d                	and	a4,a4,7
   14b0c:	eb4d                	bnez	a4,14bbe <strcmp+0xba>
   14b0e:	00007797          	auipc	a5,0x7
   14b12:	8d27b783          	ld	a5,-1838(a5) # 1b3e0 <__SDATA_BEGIN__>
   14b16:	6110                	ld	a2,0(a0)
   14b18:	6194                	ld	a3,0(a1)
   14b1a:	00f672b3          	and	t0,a2,a5
   14b1e:	00f66333          	or	t1,a2,a5
   14b22:	92be                	add	t0,t0,a5
   14b24:	0062e2b3          	or	t0,t0,t1
   14b28:	0a729963          	bne	t0,t2,14bda <strcmp+0xd6>
   14b2c:	02d61e63          	bne	a2,a3,14b68 <strcmp+0x64>
   14b30:	6510                	ld	a2,8(a0)
   14b32:	6594                	ld	a3,8(a1)
   14b34:	00f672b3          	and	t0,a2,a5
   14b38:	00f66333          	or	t1,a2,a5
   14b3c:	92be                	add	t0,t0,a5
   14b3e:	0062e2b3          	or	t0,t0,t1
   14b42:	08729a63          	bne	t0,t2,14bd6 <strcmp+0xd2>
   14b46:	02d61163          	bne	a2,a3,14b68 <strcmp+0x64>
   14b4a:	6910                	ld	a2,16(a0)
   14b4c:	6994                	ld	a3,16(a1)
   14b4e:	00f672b3          	and	t0,a2,a5
   14b52:	00f66333          	or	t1,a2,a5
   14b56:	92be                	add	t0,t0,a5
   14b58:	0062e2b3          	or	t0,t0,t1
   14b5c:	08729363          	bne	t0,t2,14be2 <strcmp+0xde>
   14b60:	0561                	add	a0,a0,24
   14b62:	05e1                	add	a1,a1,24
   14b64:	fad609e3          	beq	a2,a3,14b16 <strcmp+0x12>
   14b68:	03061713          	sll	a4,a2,0x30
   14b6c:	03069793          	sll	a5,a3,0x30
   14b70:	02f71863          	bne	a4,a5,14ba0 <strcmp+0x9c>
   14b74:	02061713          	sll	a4,a2,0x20
   14b78:	02069793          	sll	a5,a3,0x20
   14b7c:	02f71263          	bne	a4,a5,14ba0 <strcmp+0x9c>
   14b80:	01061713          	sll	a4,a2,0x10
   14b84:	01069793          	sll	a5,a3,0x10
   14b88:	00f71c63          	bne	a4,a5,14ba0 <strcmp+0x9c>
   14b8c:	03065713          	srl	a4,a2,0x30
   14b90:	0306d793          	srl	a5,a3,0x30
   14b94:	40f70533          	sub	a0,a4,a5
   14b98:	0ff57593          	zext.b	a1,a0
   14b9c:	e991                	bnez	a1,14bb0 <strcmp+0xac>
   14b9e:	8082                	ret
   14ba0:	9341                	srl	a4,a4,0x30
   14ba2:	93c1                	srl	a5,a5,0x30
   14ba4:	40f70533          	sub	a0,a4,a5
   14ba8:	0ff57593          	zext.b	a1,a0
   14bac:	e191                	bnez	a1,14bb0 <strcmp+0xac>
   14bae:	8082                	ret
   14bb0:	0ff77713          	zext.b	a4,a4
   14bb4:	0ff7f793          	zext.b	a5,a5
   14bb8:	40f70533          	sub	a0,a4,a5
   14bbc:	8082                	ret
   14bbe:	00054603          	lbu	a2,0(a0)
   14bc2:	0005c683          	lbu	a3,0(a1)
   14bc6:	0505                	add	a0,a0,1
   14bc8:	0585                	add	a1,a1,1
   14bca:	00d61363          	bne	a2,a3,14bd0 <strcmp+0xcc>
   14bce:	fa65                	bnez	a2,14bbe <strcmp+0xba>
   14bd0:	40d60533          	sub	a0,a2,a3
   14bd4:	8082                	ret
   14bd6:	0521                	add	a0,a0,8
   14bd8:	05a1                	add	a1,a1,8
   14bda:	fed612e3          	bne	a2,a3,14bbe <strcmp+0xba>
   14bde:	4501                	li	a0,0
   14be0:	8082                	ret
   14be2:	0541                	add	a0,a0,16
   14be4:	05c1                	add	a1,a1,16
   14be6:	fcd61ce3          	bne	a2,a3,14bbe <strcmp+0xba>
   14bea:	4501                	li	a0,0
   14bec:	8082                	ret

0000000000014bee <frexpl>:
   14bee:	7139                	add	sp,sp,-64
   14bf0:	f04a                	sd	s2,32(sp)
   14bf2:	6921                	lui	s2,0x8
   14bf4:	f822                	sd	s0,48(sp)
   14bf6:	f426                	sd	s1,40(sp)
   14bf8:	e05a                	sd	s6,0(sp)
   14bfa:	fc06                	sd	ra,56(sp)
   14bfc:	0305d493          	srl	s1,a1,0x30
   14c00:	197d                	add	s2,s2,-1 # 7fff <exit-0x80e9>
   14c02:	0124f4b3          	and	s1,s1,s2
   14c06:	00062023          	sw	zero,0(a2)
   14c0a:	842e                	mv	s0,a1
   14c0c:	8b2a                	mv	s6,a0
   14c0e:	05248463          	beq	s1,s2,14c56 <frexpl+0x68>
   14c12:	e456                	sd	s5,8(sp)
   14c14:	4681                	li	a3,0
   14c16:	8ab2                	mv	s5,a2
   14c18:	4601                	li	a2,0
   14c1a:	ec4e                	sd	s3,24(sp)
   14c1c:	e852                	sd	s4,16(sp)
   14c1e:	89ae                	mv	s3,a1
   14c20:	8a2a                	mv	s4,a0
   14c22:	234030ef          	jal	17e56 <__eqtf2>
   14c26:	c135                	beqz	a0,14c8a <frexpl+0x9c>
   14c28:	4681                	li	a3,0
   14c2a:	cc8d                	beqz	s1,14c64 <frexpl+0x76>
   14c2c:	7771                	lui	a4,0xffffc
   14c2e:	f80017b7          	lui	a5,0xf8001
   14c32:	2709                	addw	a4,a4,2 # ffffffffffffc002 <__BSS_END__+0xfffffffffffe05ca>
   14c34:	1792                	sll	a5,a5,0x24
   14c36:	9cb9                	addw	s1,s1,a4
   14c38:	17fd                	add	a5,a5,-1 # fffffffff8000fff <__BSS_END__+0xfffffffff7fe55c7>
   14c3a:	01fff437          	lui	s0,0x1fff
   14c3e:	00f9f9b3          	and	s3,s3,a5
   14c42:	9cb5                	addw	s1,s1,a3
   14c44:	1416                	sll	s0,s0,0x25
   14c46:	009aa023          	sw	s1,0(s5)
   14c4a:	8552                	mv	a0,s4
   14c4c:	0089e5b3          	or	a1,s3,s0
   14c50:	6a42                	ld	s4,16(sp)
   14c52:	69e2                	ld	s3,24(sp)
   14c54:	6aa2                	ld	s5,8(sp)
   14c56:	70e2                	ld	ra,56(sp)
   14c58:	7442                	ld	s0,48(sp)
   14c5a:	74a2                	ld	s1,40(sp)
   14c5c:	7902                	ld	s2,32(sp)
   14c5e:	6b02                	ld	s6,0(sp)
   14c60:	6121                	add	sp,sp,64
   14c62:	8082                	ret
   14c64:	00004797          	auipc	a5,0x4
   14c68:	72c78793          	add	a5,a5,1836 # 19390 <blanks.1+0x40>
   14c6c:	6794                	ld	a3,8(a5)
   14c6e:	6390                	ld	a2,0(a5)
   14c70:	855a                	mv	a0,s6
   14c72:	85a2                	mv	a1,s0
   14c74:	3c6030ef          	jal	1803a <__multf3>
   14c78:	0305d493          	srl	s1,a1,0x30
   14c7c:	89ae                	mv	s3,a1
   14c7e:	8a2a                	mv	s4,a0
   14c80:	0124f4b3          	and	s1,s1,s2
   14c84:	f8e00693          	li	a3,-114
   14c88:	b755                	j	14c2c <frexpl+0x3e>
   14c8a:	70e2                	ld	ra,56(sp)
   14c8c:	85a2                	mv	a1,s0
   14c8e:	7442                	ld	s0,48(sp)
   14c90:	69e2                	ld	s3,24(sp)
   14c92:	6a42                	ld	s4,16(sp)
   14c94:	6aa2                	ld	s5,8(sp)
   14c96:	74a2                	ld	s1,40(sp)
   14c98:	7902                	ld	s2,32(sp)
   14c9a:	855a                	mv	a0,s6
   14c9c:	6b02                	ld	s6,0(sp)
   14c9e:	6121                	add	sp,sp,64
   14ca0:	8082                	ret

0000000000014ca2 <__register_exitproc>:
   14ca2:	24818713          	add	a4,gp,584 # 1b480 <__atexit>
   14ca6:	631c                	ld	a5,0(a4)
   14ca8:	c3b1                	beqz	a5,14cec <__register_exitproc+0x4a>
   14caa:	4798                	lw	a4,8(a5)
   14cac:	487d                	li	a6,31
   14cae:	06e84363          	blt	a6,a4,14d14 <__register_exitproc+0x72>
   14cb2:	c505                	beqz	a0,14cda <__register_exitproc+0x38>
   14cb4:	00371813          	sll	a6,a4,0x3
   14cb8:	983e                	add	a6,a6,a5
   14cba:	10c83823          	sd	a2,272(a6)
   14cbe:	3107a883          	lw	a7,784(a5)
   14cc2:	4605                	li	a2,1
   14cc4:	00e6163b          	sllw	a2,a2,a4
   14cc8:	00c8e8b3          	or	a7,a7,a2
   14ccc:	3117a823          	sw	a7,784(a5)
   14cd0:	20d83823          	sd	a3,528(a6)
   14cd4:	4689                	li	a3,2
   14cd6:	02d50163          	beq	a0,a3,14cf8 <__register_exitproc+0x56>
   14cda:	00270693          	add	a3,a4,2
   14cde:	068e                	sll	a3,a3,0x3
   14ce0:	2705                	addw	a4,a4,1
   14ce2:	c798                	sw	a4,8(a5)
   14ce4:	97b6                	add	a5,a5,a3
   14ce6:	e38c                	sd	a1,0(a5)
   14ce8:	4501                	li	a0,0
   14cea:	8082                	ret
   14cec:	00007797          	auipc	a5,0x7
   14cf0:	a3478793          	add	a5,a5,-1484 # 1b720 <__atexit0>
   14cf4:	e31c                	sd	a5,0(a4)
   14cf6:	bf55                	j	14caa <__register_exitproc+0x8>
   14cf8:	3147a683          	lw	a3,788(a5)
   14cfc:	4501                	li	a0,0
   14cfe:	8ed1                	or	a3,a3,a2
   14d00:	30d7aa23          	sw	a3,788(a5)
   14d04:	00270693          	add	a3,a4,2
   14d08:	068e                	sll	a3,a3,0x3
   14d0a:	2705                	addw	a4,a4,1
   14d0c:	c798                	sw	a4,8(a5)
   14d0e:	97b6                	add	a5,a5,a3
   14d10:	e38c                	sd	a1,0(a5)
   14d12:	8082                	ret
   14d14:	557d                	li	a0,-1
   14d16:	8082                	ret

0000000000014d18 <_ldtoa_r>:
   14d18:	00005317          	auipc	t1,0x5
   14d1c:	83830313          	add	t1,t1,-1992 # 19550 <blanks.1+0x10>
   14d20:	00033f03          	ld	t5,0(t1)
   14d24:	00833e83          	ld	t4,8(t1)
   14d28:	01032e03          	lw	t3,16(t1)
   14d2c:	05053303          	ld	t1,80(a0)
   14d30:	7131                	add	sp,sp,-192
   14d32:	f526                	sd	s1,168(sp)
   14d34:	f14a                	sd	s2,160(sp)
   14d36:	e952                	sd	s4,144(sp)
   14d38:	e556                	sd	s5,136(sp)
   14d3a:	e15a                	sd	s6,128(sp)
   14d3c:	fcde                	sd	s7,120(sp)
   14d3e:	f8e2                	sd	s8,112(sp)
   14d40:	f0ea                	sd	s10,96(sp)
   14d42:	fd06                	sd	ra,184(sp)
   14d44:	f922                	sd	s0,176(sp)
   14d46:	ed4e                	sd	s3,152(sp)
   14d48:	f4e6                	sd	s9,104(sp)
   14d4a:	fc7a                	sd	t5,56(sp)
   14d4c:	e0f6                	sd	t4,64(sp)
   14d4e:	c4f2                	sw	t3,72(sp)
   14d50:	8a2a                	mv	s4,a0
   14d52:	892e                	mv	s2,a1
   14d54:	84b2                	mv	s1,a2
   14d56:	8b36                	mv	s6,a3
   14d58:	8bba                	mv	s7,a4
   14d5a:	8abe                	mv	s5,a5
   14d5c:	8d42                	mv	s10,a6
   14d5e:	8c46                	mv	s8,a7
   14d60:	02030163          	beqz	t1,14d82 <_ldtoa_r+0x6a>
   14d64:	4d3c                	lw	a5,88(a0)
   14d66:	4705                	li	a4,1
   14d68:	859a                	mv	a1,t1
   14d6a:	00f7173b          	sllw	a4,a4,a5
   14d6e:	1782                	sll	a5,a5,0x20
   14d70:	1702                	sll	a4,a4,0x20
   14d72:	9381                	srl	a5,a5,0x20
   14d74:	8fd9                	or	a5,a5,a4
   14d76:	00f33423          	sd	a5,8(t1)
   14d7a:	5e4010ef          	jal	1635e <_Bfree>
   14d7e:	040a3823          	sd	zero,80(s4) # ffffffff80000050 <__BSS_END__+0xffffffff7ffe4618>
   14d82:	4796                	lw	a5,68(sp)
   14d84:	0004a593          	slti	a1,s1,0
   14d88:	00149413          	sll	s0,s1,0x1
   14d8c:	4017d71b          	sraw	a4,a5,0x1
   14d90:	0204d993          	srl	s3,s1,0x20
   14d94:	8df9                	and	a1,a1,a4
   14d96:	8005                	srl	s0,s0,0x1
   14d98:	0004a693          	slti	a3,s1,0
   14d9c:	00149c93          	sll	s9,s1,0x1
   14da0:	7771                	lui	a4,0xffffc
   14da2:	0109999b          	sllw	s3,s3,0x10
   14da6:	8fad                	xor	a5,a5,a1
   14da8:	00dd2023          	sw	a3,0(s10)
   14dac:	031cdc93          	srl	s9,s9,0x31
   14db0:	f917071b          	addw	a4,a4,-111 # ffffffffffffbf91 <__BSS_END__+0xfffffffffffe0559>
   14db4:	0109d99b          	srlw	s3,s3,0x10
   14db8:	864a                	mv	a2,s2
   14dba:	86a2                	mv	a3,s0
   14dbc:	854a                	mv	a0,s2
   14dbe:	85a2                	mv	a1,s0
   14dc0:	c2be                	sw	a5,68(sp)
   14dc2:	00ec8d3b          	addw	s10,s9,a4
   14dc6:	f44a                	sd	s2,40(sp)
   14dc8:	d826                	sw	s1,48(sp)
   14dca:	da4e                	sw	s3,52(sp)
   14dcc:	036040ef          	jal	18e02 <__unordtf2>
   14dd0:	e569                	bnez	a0,14e9a <_ldtoa_r+0x182>
   14dd2:	00004797          	auipc	a5,0x4
   14dd6:	5ce78793          	add	a5,a5,1486 # 193a0 <blanks.1+0x50>
   14dda:	ecee                	sd	s11,88(sp)
   14ddc:	0087bd83          	ld	s11,8(a5)
   14de0:	6390                	ld	a2,0(a5)
   14de2:	854a                	mv	a0,s2
   14de4:	86ee                	mv	a3,s11
   14de6:	85a2                	mv	a1,s0
   14de8:	ec32                	sd	a2,24(sp)
   14dea:	018040ef          	jal	18e02 <__unordtf2>
   14dee:	ed39                	bnez	a0,14e4c <_ldtoa_r+0x134>
   14df0:	6662                	ld	a2,24(sp)
   14df2:	86ee                	mv	a3,s11
   14df4:	854a                	mv	a0,s2
   14df6:	85a2                	mv	a1,s0
   14df8:	1a4030ef          	jal	17f9c <__letf2>
   14dfc:	04a05863          	blez	a0,14e4c <_ldtoa_r+0x134>
   14e00:	6de6                	ld	s11,88(sp)
   14e02:	478d                	li	a5,3
   14e04:	d23e                	sw	a5,36(sp)
   14e06:	87da                	mv	a5,s6
   14e08:	1058                	add	a4,sp,36
   14e0a:	e062                	sd	s8,0(sp)
   14e0c:	88d6                	mv	a7,s5
   14e0e:	885e                	mv	a6,s7
   14e10:	1034                	add	a3,sp,40
   14e12:	866a                	mv	a2,s10
   14e14:	182c                	add	a1,sp,56
   14e16:	8552                	mv	a0,s4
   14e18:	104000ef          	jal	14f1c <__gdtoa>
   14e1c:	000aa703          	lw	a4,0(s5)
   14e20:	77e1                	lui	a5,0xffff8
   14e22:	00f71763          	bne	a4,a5,14e30 <_ldtoa_r+0x118>
   14e26:	800007b7          	lui	a5,0x80000
   14e2a:	17fd                	add	a5,a5,-1 # ffffffff7fffffff <__BSS_END__+0xffffffff7ffe45c7>
   14e2c:	00faa023          	sw	a5,0(s5)
   14e30:	70ea                	ld	ra,184(sp)
   14e32:	744a                	ld	s0,176(sp)
   14e34:	74aa                	ld	s1,168(sp)
   14e36:	790a                	ld	s2,160(sp)
   14e38:	69ea                	ld	s3,152(sp)
   14e3a:	6a4a                	ld	s4,144(sp)
   14e3c:	6aaa                	ld	s5,136(sp)
   14e3e:	6b0a                	ld	s6,128(sp)
   14e40:	7be6                	ld	s7,120(sp)
   14e42:	7c46                	ld	s8,112(sp)
   14e44:	7ca6                	ld	s9,104(sp)
   14e46:	7d06                	ld	s10,96(sp)
   14e48:	6129                	add	sp,sp,192
   14e4a:	8082                	ret
   14e4c:	00004797          	auipc	a5,0x4
   14e50:	56478793          	add	a5,a5,1380 # 193b0 <blanks.1+0x60>
   14e54:	6390                	ld	a2,0(a5)
   14e56:	6794                	ld	a3,8(a5)
   14e58:	854a                	mv	a0,s2
   14e5a:	85a2                	mv	a1,s0
   14e5c:	0a2030ef          	jal	17efe <__getf2>
   14e60:	00054a63          	bltz	a0,14e74 <_ldtoa_r+0x15c>
   14e64:	67c1                	lui	a5,0x10
   14e66:	00f9e9b3          	or	s3,s3,a5
   14e6a:	4785                	li	a5,1
   14e6c:	6de6                	ld	s11,88(sp)
   14e6e:	d23e                	sw	a5,36(sp)
   14e70:	da4e                	sw	s3,52(sp)
   14e72:	bf51                	j	14e06 <_ldtoa_r+0xee>
   14e74:	4601                	li	a2,0
   14e76:	4681                	li	a3,0
   14e78:	854a                	mv	a0,s2
   14e7a:	85a6                	mv	a1,s1
   14e7c:	7db020ef          	jal	17e56 <__eqtf2>
   14e80:	e501                	bnez	a0,14e88 <_ldtoa_r+0x170>
   14e82:	6de6                	ld	s11,88(sp)
   14e84:	d202                	sw	zero,36(sp)
   14e86:	b741                	j	14e06 <_ldtoa_r+0xee>
   14e88:	7771                	lui	a4,0xffffc
   14e8a:	f927071b          	addw	a4,a4,-110 # ffffffffffffbf92 <__BSS_END__+0xfffffffffffe055a>
   14e8e:	4789                	li	a5,2
   14e90:	6de6                	ld	s11,88(sp)
   14e92:	d23e                	sw	a5,36(sp)
   14e94:	00ec8d3b          	addw	s10,s9,a4
   14e98:	b7bd                	j	14e06 <_ldtoa_r+0xee>
   14e9a:	4791                	li	a5,4
   14e9c:	d23e                	sw	a5,36(sp)
   14e9e:	b7a5                	j	14e06 <_ldtoa_r+0xee>

0000000000014ea0 <_ldcheck>:
   14ea0:	7179                	add	sp,sp,-48
   14ea2:	ec26                	sd	s1,24(sp)
   14ea4:	6504                	ld	s1,8(a0)
   14ea6:	e84a                	sd	s2,16(sp)
   14ea8:	00053903          	ld	s2,0(a0)
   14eac:	0486                	sll	s1,s1,0x1
   14eae:	8085                	srl	s1,s1,0x1
   14eb0:	864a                	mv	a2,s2
   14eb2:	86a6                	mv	a3,s1
   14eb4:	854a                	mv	a0,s2
   14eb6:	85a6                	mv	a1,s1
   14eb8:	f406                	sd	ra,40(sp)
   14eba:	749030ef          	jal	18e02 <__unordtf2>
   14ebe:	e929                	bnez	a0,14f10 <_ldcheck+0x70>
   14ec0:	00004797          	auipc	a5,0x4
   14ec4:	4e078793          	add	a5,a5,1248 # 193a0 <blanks.1+0x50>
   14ec8:	e44e                	sd	s3,8(sp)
   14eca:	e052                	sd	s4,0(sp)
   14ecc:	0087b983          	ld	s3,8(a5)
   14ed0:	0007ba03          	ld	s4,0(a5)
   14ed4:	854a                	mv	a0,s2
   14ed6:	86ce                	mv	a3,s3
   14ed8:	8652                	mv	a2,s4
   14eda:	85a6                	mv	a1,s1
   14edc:	f022                	sd	s0,32(sp)
   14ede:	4405                	li	s0,1
   14ee0:	723030ef          	jal	18e02 <__unordtf2>
   14ee4:	cd09                	beqz	a0,14efe <_ldcheck+0x5e>
   14ee6:	70a2                	ld	ra,40(sp)
   14ee8:	00144513          	xor	a0,s0,1
   14eec:	7402                	ld	s0,32(sp)
   14eee:	0506                	sll	a0,a0,0x1
   14ef0:	69a2                	ld	s3,8(sp)
   14ef2:	6a02                	ld	s4,0(sp)
   14ef4:	64e2                	ld	s1,24(sp)
   14ef6:	6942                	ld	s2,16(sp)
   14ef8:	8909                	and	a0,a0,2
   14efa:	6145                	add	sp,sp,48
   14efc:	8082                	ret
   14efe:	8652                	mv	a2,s4
   14f00:	86ce                	mv	a3,s3
   14f02:	854a                	mv	a0,s2
   14f04:	85a6                	mv	a1,s1
   14f06:	096030ef          	jal	17f9c <__letf2>
   14f0a:	00152413          	slti	s0,a0,1
   14f0e:	bfe1                	j	14ee6 <_ldcheck+0x46>
   14f10:	70a2                	ld	ra,40(sp)
   14f12:	64e2                	ld	s1,24(sp)
   14f14:	6942                	ld	s2,16(sp)
   14f16:	4505                	li	a0,1
   14f18:	6145                	add	sp,sp,48
   14f1a:	8082                	ret

0000000000014f1c <__gdtoa>:
   14f1c:	7111                	add	sp,sp,-256
   14f1e:	f566                	sd	s9,168(sp)
   14f20:	00072c83          	lw	s9,0(a4)
   14f24:	f5a6                	sd	s1,232(sp)
   14f26:	e9d2                	sd	s4,208(sp)
   14f28:	fcfcf313          	and	t1,s9,-49
   14f2c:	fd86                	sd	ra,248(sp)
   14f2e:	00672023          	sw	t1,0(a4)
   14f32:	8a3a                	mv	s4,a4
   14f34:	6712                	ld	a4,256(sp)
   14f36:	00fcf313          	and	t1,s9,15
   14f3a:	4e0d                	li	t3,3
   14f3c:	e43a                	sd	a4,8(sp)
   14f3e:	e832                	sd	a2,16(sp)
   14f40:	84c6                	mv	s1,a7
   14f42:	55c30163          	beq	t1,t3,15484 <__gdtoa+0x568>
   14f46:	edce                	sd	s3,216(sp)
   14f48:	00ccf993          	and	s3,s9,12
   14f4c:	4c099863          	bnez	s3,1541c <__gdtoa+0x500>
   14f50:	f9a2                	sd	s0,240(sp)
   14f52:	842a                	mv	s0,a0
   14f54:	50030363          	beqz	t1,1545a <__gdtoa+0x53e>
   14f58:	f16a                	sd	s10,160(sp)
   14f5a:	0005ad03          	lw	s10,0(a1)
   14f5e:	f1ca                	sd	s2,224(sp)
   14f60:	e1da                	sd	s6,192(sp)
   14f62:	fd5e                	sd	s7,184(sp)
   14f64:	ed6e                	sd	s11,152(sp)
   14f66:	f962                	sd	s8,176(sp)
   14f68:	8db6                	mv	s11,a3
   14f6a:	02000693          	li	a3,32
   14f6e:	8b2e                	mv	s6,a1
   14f70:	893e                	mv	s2,a5
   14f72:	8bc2                	mv	s7,a6
   14f74:	4581                	li	a1,0
   14f76:	02000793          	li	a5,32
   14f7a:	01a6d763          	bge	a3,s10,14f88 <__gdtoa+0x6c>
   14f7e:	0017979b          	sllw	a5,a5,0x1
   14f82:	2585                	addw	a1,a1,1
   14f84:	ffa7cde3          	blt	a5,s10,14f7e <__gdtoa+0x62>
   14f88:	8522                	mv	a0,s0
   14f8a:	370010ef          	jal	162fa <_Balloc>
   14f8e:	8c2a                	mv	s8,a0
   14f90:	70050163          	beqz	a0,15692 <__gdtoa+0x776>
   14f94:	fffd051b          	addw	a0,s10,-1
   14f98:	4055551b          	sraw	a0,a0,0x5
   14f9c:	00251593          	sll	a1,a0,0x2
   14fa0:	e5d6                	sd	s5,200(sp)
   14fa2:	95ee                	add	a1,a1,s11
   14fa4:	018c0693          	add	a3,s8,24
   14fa8:	87ee                	mv	a5,s11
   14faa:	4398                	lw	a4,0(a5)
   14fac:	0791                	add	a5,a5,4
   14fae:	0691                	add	a3,a3,4
   14fb0:	fee6ae23          	sw	a4,-4(a3)
   14fb4:	fef5fbe3          	bgeu	a1,a5,14faa <__gdtoa+0x8e>
   14fb8:	0585                	add	a1,a1,1
   14fba:	001d8793          	add	a5,s11,1
   14fbe:	4691                	li	a3,4
   14fc0:	00f5e563          	bltu	a1,a5,14fca <__gdtoa+0xae>
   14fc4:	050a                	sll	a0,a0,0x2
   14fc6:	00450693          	add	a3,a0,4
   14fca:	4026d793          	sra	a5,a3,0x2
   14fce:	2781                	sext.w	a5,a5
   14fd0:	96e2                	add	a3,a3,s8
   14fd2:	a021                	j	14fda <__gdtoa+0xbe>
   14fd4:	16f1                	add	a3,a3,-4
   14fd6:	4e078c63          	beqz	a5,154ce <__gdtoa+0x5b2>
   14fda:	4ad8                	lw	a4,20(a3)
   14fdc:	8abe                	mv	s5,a5
   14fde:	37fd                	addw	a5,a5,-1
   14fe0:	db75                	beqz	a4,14fd4 <__gdtoa+0xb8>
   14fe2:	0791                	add	a5,a5,4
   14fe4:	078a                	sll	a5,a5,0x2
   14fe6:	97e2                	add	a5,a5,s8
   14fe8:	4788                	lw	a0,8(a5)
   14fea:	015c2a23          	sw	s5,20(s8)
   14fee:	005a9a9b          	sllw	s5,s5,0x5
   14ff2:	552010ef          	jal	16544 <__hi0bits>
   14ff6:	40aa87bb          	subw	a5,s5,a0
   14ffa:	8562                	mv	a0,s8
   14ffc:	ec3e                	sd	a5,24(sp)
   14ffe:	27a010ef          	jal	16278 <__trailz_D2A>
   15002:	c72a                	sw	a0,140(sp)
   15004:	6e42                	ld	t3,16(sp)
   15006:	67e2                	ld	a5,24(sp)
   15008:	4e051763          	bnez	a0,154f6 <__gdtoa+0x5da>
   1500c:	014c2683          	lw	a3,20(s8)
   15010:	42068a63          	beqz	a3,15444 <__gdtoa+0x528>
   15014:	016c                	add	a1,sp,140
   15016:	8562                	mv	a0,s8
   15018:	f03e                	sd	a5,32(sp)
   1501a:	ec72                	sd	t3,24(sp)
   1501c:	4a9010ef          	jal	16cc4 <__b2d>
   15020:	e2050653          	fmv.x.d	a2,fa0
   15024:	3ff008b7          	lui	a7,0x3ff00
   15028:	56fd                	li	a3,-1
   1502a:	00c61593          	sll	a1,a2,0xc
   1502e:	91b1                	srl	a1,a1,0x2c
   15030:	0115e533          	or	a0,a1,a7
   15034:	9281                	srl	a3,a3,0x20
   15036:	1502                	sll	a0,a0,0x20
   15038:	8ef1                	and	a3,a3,a2
   1503a:	8ec9                	or	a3,a3,a0
   1503c:	f20687d3          	fmv.d.x	fa5,a3
   15040:	00006797          	auipc	a5,0x6
   15044:	3a87b707          	fld	fa4,936(a5) # 1b3e8 <__SDATA_BEGIN__+0x8>
   15048:	00006797          	auipc	a5,0x6
   1504c:	3a87b587          	fld	fa1,936(a5) # 1b3f0 <__SDATA_BEGIN__+0x10>
   15050:	0ae7f753          	fsub.d	fa4,fa5,fa4
   15054:	00006797          	auipc	a5,0x6
   15058:	3a47b607          	fld	fa2,932(a5) # 1b3f8 <__SDATA_BEGIN__+0x18>
   1505c:	6e62                	ld	t3,24(sp)
   1505e:	7782                	ld	a5,32(sp)
   15060:	00006717          	auipc	a4,0x6
   15064:	3a073687          	fld	fa3,928(a4) # 1b400 <__SDATA_BEGIN__+0x20>
   15068:	0115e5b3          	or	a1,a1,a7
   1506c:	00fe0abb          	addw	s5,t3,a5
   15070:	62b77743          	fmadd.d	fa4,fa4,fa1,fa2
   15074:	fffa851b          	addw	a0,s5,-1
   15078:	d20507d3          	fcvt.d.w	fa5,a0
   1507c:	862a                	mv	a2,a0
   1507e:	72d7f7c3          	fmadd.d	fa5,fa5,fa3,fa4
   15082:	00055563          	bgez	a0,1508c <__gdtoa+0x170>
   15086:	4505                	li	a0,1
   15088:	4155053b          	subw	a0,a0,s5
   1508c:	bcb5089b          	addw	a7,a0,-1077
   15090:	01105a63          	blez	a7,150a4 <__gdtoa+0x188>
   15094:	d20886d3          	fcvt.d.w	fa3,a7
   15098:	00006717          	auipc	a4,0x6
   1509c:	37073707          	fld	fa4,880(a4) # 1b408 <__SDATA_BEGIN__+0x28>
   150a0:	7ae6f7c3          	fmadd.d	fa5,fa3,fa4,fa5
   150a4:	f2000753          	fmv.d.x	fa4,zero
   150a8:	c2079553          	fcvt.w.d	a0,fa5,rtz
   150ac:	a2e798d3          	flt.d	a7,fa5,fa4
   150b0:	0005031b          	sext.w	t1,a0
   150b4:	70089c63          	bnez	a7,157cc <__gdtoa+0x8b0>
   150b8:	0146151b          	sllw	a0,a2,0x14
   150bc:	9da9                	addw	a1,a1,a0
   150be:	1682                	sll	a3,a3,0x20
   150c0:	40c78f3b          	subw	t5,a5,a2
   150c4:	1582                	sll	a1,a1,0x20
   150c6:	9281                	srl	a3,a3,0x20
   150c8:	0003051b          	sext.w	a0,t1
   150cc:	48d9                	li	a7,22
   150ce:	867a                	mv	a2,t5
   150d0:	8ecd                	or	a3,a3,a1
   150d2:	ffff0e9b          	addw	t4,t5,-1
   150d6:	3ea8ef63          	bltu	a7,a0,154d4 <__gdtoa+0x5b8>
   150da:	00004517          	auipc	a0,0x4
   150de:	4ee50513          	add	a0,a0,1262 # 195c8 <__mprec_tens>
   150e2:	00331593          	sll	a1,t1,0x3
   150e6:	95aa                	add	a1,a1,a0
   150e8:	219c                	fld	fa5,0(a1)
   150ea:	f2068753          	fmv.d.x	fa4,a3
   150ee:	a2f715d3          	flt.d	a1,fa4,fa5
   150f2:	5c059f63          	bnez	a1,156d0 <__gdtoa+0x7b4>
   150f6:	f882                	sd	zero,112(sp)
   150f8:	ec02                	sd	zero,24(sp)
   150fa:	01e04763          	bgtz	t5,15108 <__gdtoa+0x1ec>
   150fe:	4585                	li	a1,1
   15100:	41e5873b          	subw	a4,a1,t5
   15104:	ec3a                	sd	a4,24(sp)
   15106:	4e81                	li	t4,0
   15108:	01d30ebb          	addw	t4,t1,t4
   1510c:	fc1a                	sd	t1,56(sp)
   1510e:	f802                	sd	zero,48(sp)
   15110:	4625                	li	a2,9
   15112:	3f266d63          	bltu	a2,s2,1550c <__gdtoa+0x5f0>
   15116:	4615                	li	a2,5
   15118:	59264f63          	blt	a2,s2,156b6 <__gdtoa+0x79a>
   1511c:	3fda8a9b          	addw	s5,s5,1021
   15120:	4591                	li	a1,4
   15122:	7f8aba93          	sltiu	s5,s5,2040
   15126:	24b90be3          	beq	s2,a1,15b7c <__gdtoa+0xc60>
   1512a:	24c905e3          	beq	s2,a2,15b74 <__gdtoa+0xc58>
   1512e:	4609                	li	a2,2
   15130:	24c909e3          	beq	s2,a2,15b82 <__gdtoa+0xc66>
   15134:	460d                	li	a2,3
   15136:	e082                	sd	zero,64(sp)
   15138:	3cc91f63          	bne	s2,a2,15516 <__gdtoa+0x5fa>
   1513c:	7762                	ld	a4,56(sp)
   1513e:	0177063b          	addw	a2,a4,s7
   15142:	0016071b          	addw	a4,a2,1
   15146:	f43a                	sd	a4,40(sp)
   15148:	fcb2                	sd	a2,120(sp)
   1514a:	06e055e3          	blez	a4,159b4 <__gdtoa+0xa98>
   1514e:	863a                	mv	a2,a4
   15150:	85ba                	mv	a1,a4
   15152:	8522                	mv	a0,s0
   15154:	f4b6                	sd	a3,104(sp)
   15156:	f0be                	sd	a5,96(sp)
   15158:	ecf6                	sd	t4,88(sp)
   1515a:	e89a                	sd	t1,80(sp)
   1515c:	e4f2                	sd	t3,72(sp)
   1515e:	c732                	sw	a2,140(sp)
   15160:	64d000ef          	jal	15fac <__rv_alloc_D2A>
   15164:	882a                	mv	a6,a0
   15166:	34050a63          	beqz	a0,154ba <__gdtoa+0x59e>
   1516a:	00cb2703          	lw	a4,12(s6) # ffffffff8000000c <__BSS_END__+0xffffffff7ffe45d4>
   1516e:	6e26                	ld	t3,72(sp)
   15170:	6346                	ld	t1,80(sp)
   15172:	377d                	addw	a4,a4,-1
   15174:	f03a                	sd	a4,32(sp)
   15176:	6ee6                	ld	t4,88(sp)
   15178:	7786                	ld	a5,96(sp)
   1517a:	76a6                	ld	a3,104(sp)
   1517c:	3c070563          	beqz	a4,15546 <__gdtoa+0x62a>
   15180:	52074863          	bltz	a4,156b0 <__gdtoa+0x794>
   15184:	100cfc93          	and	s9,s9,256
   15188:	3a0c9a63          	bnez	s9,1553c <__gdtoa+0x620>
   1518c:	000e4663          	bltz	t3,15198 <__gdtoa+0x27c>
   15190:	7762                	ld	a4,56(sp)
   15192:	4639                	li	a2,14
   15194:	54e65163          	bge	a2,a4,156d6 <__gdtoa+0x7ba>
   15198:	6706                	ld	a4,64(sp)
   1519a:	50070763          	beqz	a4,156a8 <__gdtoa+0x78c>
   1519e:	40fd0d3b          	subw	s10,s10,a5
   151a2:	004b2683          	lw	a3,4(s6)
   151a6:	001d061b          	addw	a2,s10,1
   151aa:	c732                	sw	a2,140(sp)
   151ac:	41ae0d3b          	subw	s10,t3,s10
   151b0:	04dd54e3          	bge	s10,a3,159f8 <__gdtoa+0xadc>
   151b4:	ffd9061b          	addw	a2,s2,-3
   151b8:	9a75                	and	a2,a2,-3
   151ba:	2601                	sext.w	a2,a2
   151bc:	76060f63          	beqz	a2,1593a <__gdtoa+0xa1e>
   151c0:	40de06bb          	subw	a3,t3,a3
   151c4:	0016859b          	addw	a1,a3,1
   151c8:	c72e                	sw	a1,140(sp)
   151ca:	4605                	li	a2,1
   151cc:	86ae                	mv	a3,a1
   151ce:	01265863          	bge	a2,s2,151de <__gdtoa+0x2c2>
   151d2:	7722                	ld	a4,40(sp)
   151d4:	00e05563          	blez	a4,151de <__gdtoa+0x2c2>
   151d8:	7722                	ld	a4,40(sp)
   151da:	48b74de3          	blt	a4,a1,15e74 <__gdtoa+0xf58>
   151de:	6762                	ld	a4,24(sp)
   151e0:	7d42                	ld	s10,48(sp)
   151e2:	01d68ebb          	addw	t4,a3,t4
   151e6:	8cba                	mv	s9,a4
   151e8:	9f35                	addw	a4,a4,a3
   151ea:	ec3a                	sd	a4,24(sp)
   151ec:	4585                	li	a1,1
   151ee:	8522                	mv	a0,s0
   151f0:	f0c2                	sd	a6,96(sp)
   151f2:	ecbe                	sd	a5,88(sp)
   151f4:	e8f6                	sd	t4,80(sp)
   151f6:	e49a                	sd	t1,72(sp)
   151f8:	442010ef          	jal	1663a <__i2b>
   151fc:	6326                	ld	t1,72(sp)
   151fe:	6ec6                	ld	t4,80(sp)
   15200:	67e6                	ld	a5,88(sp)
   15202:	7806                	ld	a6,96(sp)
   15204:	8aaa                	mv	s5,a0
   15206:	2a050a63          	beqz	a0,154ba <__gdtoa+0x59e>
   1520a:	020c8063          	beqz	s9,1522a <__gdtoa+0x30e>
   1520e:	01d05e63          	blez	t4,1522a <__gdtoa+0x30e>
   15212:	86e6                	mv	a3,s9
   15214:	019ed363          	bge	t4,s9,1521a <__gdtoa+0x2fe>
   15218:	86f6                	mv	a3,t4
   1521a:	6762                	ld	a4,24(sp)
   1521c:	c736                	sw	a3,140(sp)
   1521e:	40dc8cbb          	subw	s9,s9,a3
   15222:	9f15                	subw	a4,a4,a3
   15224:	ec3a                	sd	a4,24(sp)
   15226:	40de8ebb          	subw	t4,t4,a3
   1522a:	7742                	ld	a4,48(sp)
   1522c:	c70d                	beqz	a4,15256 <__gdtoa+0x33a>
   1522e:	6706                	ld	a4,64(sp)
   15230:	c319                	beqz	a4,15236 <__gdtoa+0x31a>
   15232:	080d1fe3          	bnez	s10,15ad0 <__gdtoa+0xbb4>
   15236:	7642                	ld	a2,48(sp)
   15238:	85e2                	mv	a1,s8
   1523a:	8522                	mv	a0,s0
   1523c:	f0c2                	sd	a6,96(sp)
   1523e:	ecbe                	sd	a5,88(sp)
   15240:	e8f6                	sd	t4,80(sp)
   15242:	e49a                	sd	t1,72(sp)
   15244:	60e010ef          	jal	16852 <__pow5mult>
   15248:	6326                	ld	t1,72(sp)
   1524a:	6ec6                	ld	t4,80(sp)
   1524c:	67e6                	ld	a5,88(sp)
   1524e:	7806                	ld	a6,96(sp)
   15250:	8c2a                	mv	s8,a0
   15252:	26050463          	beqz	a0,154ba <__gdtoa+0x59e>
   15256:	4585                	li	a1,1
   15258:	8522                	mv	a0,s0
   1525a:	ecc2                	sd	a6,88(sp)
   1525c:	e8be                	sd	a5,80(sp)
   1525e:	e4f6                	sd	t4,72(sp)
   15260:	f81a                	sd	t1,48(sp)
   15262:	3d8010ef          	jal	1663a <__i2b>
   15266:	8d2a                	mv	s10,a0
   15268:	24050963          	beqz	a0,154ba <__gdtoa+0x59e>
   1526c:	7342                	ld	t1,48(sp)
   1526e:	6ea6                	ld	t4,72(sp)
   15270:	67c6                	ld	a5,80(sp)
   15272:	6866                	ld	a6,88(sp)
   15274:	74031463          	bnez	t1,159bc <__gdtoa+0xaa0>
   15278:	4685                	li	a3,1
   1527a:	5326db63          	bge	a3,s2,157b0 <__gdtoa+0x894>
   1527e:	457d                	li	a0,31
   15280:	67e2                	ld	a5,24(sp)
   15282:	41d509bb          	subw	s3,a0,t4
   15286:	39f1                	addw	s3,s3,-4
   15288:	01f9f993          	and	s3,s3,31
   1528c:	00f9863b          	addw	a2,s3,a5
   15290:	c74e                	sw	s3,140(sp)
   15292:	87ce                	mv	a5,s3
   15294:	5cc04b63          	bgtz	a2,1586a <__gdtoa+0x94e>
   15298:	00fe863b          	addw	a2,t4,a5
   1529c:	20c04463          	bgtz	a2,154a4 <__gdtoa+0x588>
   152a0:	77c6                	ld	a5,112(sp)
   152a2:	5e079363          	bnez	a5,15888 <__gdtoa+0x96c>
   152a6:	77a2                	ld	a5,40(sp)
   152a8:	6af05963          	blez	a5,1595a <__gdtoa+0xa3e>
   152ac:	6786                	ld	a5,64(sp)
   152ae:	60078b63          	beqz	a5,158c4 <__gdtoa+0x9a8>
   152b2:	0199863b          	addw	a2,s3,s9
   152b6:	08c04ee3          	bgtz	a2,15b52 <__gdtoa+0xc36>
   152ba:	ec56                	sd	s5,24(sp)
   152bc:	0e0314e3          	bnez	t1,15ba4 <__gdtoa+0xc88>
   152c0:	e86e                	sd	s11,16(sp)
   152c2:	e0a6                	sd	s1,64(sp)
   152c4:	7da2                	ld	s11,40(sp)
   152c6:	64e2                	ld	s1,24(sp)
   152c8:	8bc2                	mv	s7,a6
   152ca:	4685                	li	a3,1
   152cc:	f842                	sd	a6,48(sp)
   152ce:	f452                	sd	s4,40(sp)
   152d0:	a88d                	j	15342 <__gdtoa+0x426>
   152d2:	8522                	mv	a0,s0
   152d4:	08a010ef          	jal	1635e <_Bfree>
   152d8:	140b4be3          	bltz	s6,15c2e <__gdtoa+0xd12>
   152dc:	01696b33          	or	s6,s2,s6
   152e0:	2b01                	sext.w	s6,s6
   152e2:	000b1763          	bnez	s6,152f0 <__gdtoa+0x3d4>
   152e6:	67c2                	ld	a5,16(sp)
   152e8:	439c                	lw	a5,0(a5)
   152ea:	8b85                	and	a5,a5,1
   152ec:	140781e3          	beqz	a5,15c2e <__gdtoa+0xd12>
   152f0:	7782                	ld	a5,32(sp)
   152f2:	4709                	li	a4,2
   152f4:	30e791e3          	bne	a5,a4,15df6 <__gdtoa+0xeda>
   152f8:	014b8023          	sb	s4,0(s7)
   152fc:	47ba                	lw	a5,140(sp)
   152fe:	0b85                	add	s7,s7,1
   15300:	25b78be3          	beq	a5,s11,15d56 <__gdtoa+0xe3a>
   15304:	85e2                	mv	a1,s8
   15306:	4681                	li	a3,0
   15308:	4629                	li	a2,10
   1530a:	8522                	mv	a0,s0
   1530c:	064010ef          	jal	16370 <__multadd>
   15310:	8c2a                	mv	s8,a0
   15312:	1a050463          	beqz	a0,154ba <__gdtoa+0x59e>
   15316:	4681                	li	a3,0
   15318:	4629                	li	a2,10
   1531a:	85d6                	mv	a1,s5
   1531c:	8522                	mv	a0,s0
   1531e:	4c9a8d63          	beq	s5,s1,157f8 <__gdtoa+0x8dc>
   15322:	04e010ef          	jal	16370 <__multadd>
   15326:	8aaa                	mv	s5,a0
   15328:	18050963          	beqz	a0,154ba <__gdtoa+0x59e>
   1532c:	85a6                	mv	a1,s1
   1532e:	4681                	li	a3,0
   15330:	4629                	li	a2,10
   15332:	8522                	mv	a0,s0
   15334:	03c010ef          	jal	16370 <__multadd>
   15338:	84aa                	mv	s1,a0
   1533a:	18050063          	beqz	a0,154ba <__gdtoa+0x59e>
   1533e:	46ba                	lw	a3,140(sp)
   15340:	2685                	addw	a3,a3,1
   15342:	85ea                	mv	a1,s10
   15344:	8562                	mv	a0,s8
   15346:	c736                	sw	a3,140(sp)
   15348:	521000ef          	jal	16068 <__quorem_D2A>
   1534c:	03050a1b          	addw	s4,a0,48
   15350:	85d6                	mv	a1,s5
   15352:	8caa                	mv	s9,a0
   15354:	8562                	mv	a0,s8
   15356:	6fe010ef          	jal	16a54 <__mcmp>
   1535a:	85ea                	mv	a1,s10
   1535c:	8b2a                	mv	s6,a0
   1535e:	8626                	mv	a2,s1
   15360:	8522                	mv	a0,s0
   15362:	72a010ef          	jal	16a8c <__mdiff>
   15366:	89d2                	mv	s3,s4
   15368:	85aa                	mv	a1,a0
   1536a:	14050863          	beqz	a0,154ba <__gdtoa+0x59e>
   1536e:	491c                	lw	a5,16(a0)
   15370:	f3ad                	bnez	a5,152d2 <__gdtoa+0x3b6>
   15372:	ec2a                	sd	a0,24(sp)
   15374:	8562                	mv	a0,s8
   15376:	6de010ef          	jal	16a54 <__mcmp>
   1537a:	65e2                	ld	a1,24(sp)
   1537c:	86aa                	mv	a3,a0
   1537e:	8522                	mv	a0,s0
   15380:	ec36                	sd	a3,24(sp)
   15382:	7dd000ef          	jal	1635e <_Bfree>
   15386:	66e2                	ld	a3,24(sp)
   15388:	00d96733          	or	a4,s2,a3
   1538c:	2701                	sext.w	a4,a4
   1538e:	3c0718e3          	bnez	a4,15f5e <__gdtoa+0x1042>
   15392:	67c2                	ld	a5,16(sp)
   15394:	439c                	lw	a5,0(a5)
   15396:	8b85                	and	a5,a5,1
   15398:	46079763          	bnez	a5,15806 <__gdtoa+0x8ea>
   1539c:	7782                	ld	a5,32(sp)
   1539e:	300787e3          	beqz	a5,15eac <__gdtoa+0xf90>
   153a2:	f5604be3          	bgtz	s6,152f8 <__gdtoa+0x3dc>
   153a6:	014c2603          	lw	a2,20(s8)
   153aa:	ec26                	sd	s1,24(sp)
   153ac:	4685                	li	a3,1
   153ae:	8352                	mv	t1,s4
   153b0:	7842                	ld	a6,48(sp)
   153b2:	7a22                	ld	s4,40(sp)
   153b4:	6486                	ld	s1,64(sp)
   153b6:	89ba                	mv	s3,a4
   153b8:	38c6dce3          	bge	a3,a2,15f50 <__gdtoa+0x1034>
   153bc:	7782                	ld	a5,32(sp)
   153be:	4689                	li	a3,2
   153c0:	34d78fe3          	beq	a5,a3,15f1e <__gdtoa+0x1002>
   153c4:	6b62                	ld	s6,24(sp)
   153c6:	899a                	mv	s3,t1
   153c8:	8dc2                	mv	s11,a6
   153ca:	a829                	j	153e4 <__gdtoa+0x4c8>
   153cc:	7a5000ef          	jal	16370 <__multadd>
   153d0:	85ea                	mv	a1,s10
   153d2:	8c2a                	mv	s8,a0
   153d4:	0e050363          	beqz	a0,154ba <__gdtoa+0x59e>
   153d8:	491000ef          	jal	16068 <__quorem_D2A>
   153dc:	0305099b          	addw	s3,a0,48
   153e0:	8be6                	mv	s7,s9
   153e2:	8b4a                	mv	s6,s2
   153e4:	85da                	mv	a1,s6
   153e6:	856a                	mv	a0,s10
   153e8:	66c010ef          	jal	16a54 <__mcmp>
   153ec:	87aa                	mv	a5,a0
   153ee:	4681                	li	a3,0
   153f0:	4629                	li	a2,10
   153f2:	85da                	mv	a1,s6
   153f4:	8522                	mv	a0,s0
   153f6:	001b8c93          	add	s9,s7,1
   153fa:	30f057e3          	blez	a5,15f08 <__gdtoa+0xfec>
   153fe:	ff3c8fa3          	sb	s3,-1(s9)
   15402:	76f000ef          	jal	16370 <__multadd>
   15406:	892a                	mv	s2,a0
   15408:	4681                	li	a3,0
   1540a:	4629                	li	a2,10
   1540c:	85e2                	mv	a1,s8
   1540e:	8522                	mv	a0,s0
   15410:	0a090563          	beqz	s2,154ba <__gdtoa+0x59e>
   15414:	fb6a9ce3          	bne	s5,s6,153cc <__gdtoa+0x4b0>
   15418:	8aca                	mv	s5,s2
   1541a:	bf4d                	j	153cc <__gdtoa+0x4b0>
   1541c:	4791                	li	a5,4
   1541e:	0af31663          	bne	t1,a5,154ca <__gdtoa+0x5ae>
   15422:	6622                	ld	a2,8(sp)
   15424:	69ee                	ld	s3,216(sp)
   15426:	70ee                	ld	ra,248(sp)
   15428:	74ae                	ld	s1,232(sp)
   1542a:	6a4e                	ld	s4,208(sp)
   1542c:	7caa                	ld	s9,168(sp)
   1542e:	77e1                	lui	a5,0xffff8
   15430:	00f8a023          	sw	a5,0(a7) # 3ff00000 <__BSS_END__+0x3fee45c8>
   15434:	468d                	li	a3,3
   15436:	00004597          	auipc	a1,0x4
   1543a:	cda58593          	add	a1,a1,-806 # 19110 <__clzdi2+0xec>
   1543e:	6111                	add	sp,sp,256
   15440:	39f0006f          	j	15fde <__nrv_alloc_D2A>
   15444:	85e2                	mv	a1,s8
   15446:	8522                	mv	a0,s0
   15448:	717000ef          	jal	1635e <_Bfree>
   1544c:	790e                	ld	s2,224(sp)
   1544e:	6aae                	ld	s5,200(sp)
   15450:	6b0e                	ld	s6,192(sp)
   15452:	7bea                	ld	s7,184(sp)
   15454:	7c4a                	ld	s8,176(sp)
   15456:	7d0a                	ld	s10,160(sp)
   15458:	6dea                	ld	s11,152(sp)
   1545a:	6622                	ld	a2,8(sp)
   1545c:	4785                	li	a5,1
   1545e:	8522                	mv	a0,s0
   15460:	c09c                	sw	a5,0(s1)
   15462:	4685                	li	a3,1
   15464:	00004597          	auipc	a1,0x4
   15468:	c7c58593          	add	a1,a1,-900 # 190e0 <__clzdi2+0xbc>
   1546c:	373000ef          	jal	15fde <__nrv_alloc_D2A>
   15470:	744e                	ld	s0,240(sp)
   15472:	882a                	mv	a6,a0
   15474:	70ee                	ld	ra,248(sp)
   15476:	69ee                	ld	s3,216(sp)
   15478:	74ae                	ld	s1,232(sp)
   1547a:	6a4e                	ld	s4,208(sp)
   1547c:	7caa                	ld	s9,168(sp)
   1547e:	8542                	mv	a0,a6
   15480:	6111                	add	sp,sp,256
   15482:	8082                	ret
   15484:	6622                	ld	a2,8(sp)
   15486:	70ee                	ld	ra,248(sp)
   15488:	74ae                	ld	s1,232(sp)
   1548a:	6a4e                	ld	s4,208(sp)
   1548c:	7caa                	ld	s9,168(sp)
   1548e:	77e1                	lui	a5,0xffff8
   15490:	00f8a023          	sw	a5,0(a7)
   15494:	46a1                	li	a3,8
   15496:	00004597          	auipc	a1,0x4
   1549a:	c6a58593          	add	a1,a1,-918 # 19100 <__clzdi2+0xdc>
   1549e:	6111                	add	sp,sp,256
   154a0:	33f0006f          	j	15fde <__nrv_alloc_D2A>
   154a4:	85ea                	mv	a1,s10
   154a6:	8522                	mv	a0,s0
   154a8:	ec42                	sd	a6,24(sp)
   154aa:	e81a                	sd	t1,16(sp)
   154ac:	480010ef          	jal	1692c <__lshift>
   154b0:	6342                	ld	t1,16(sp)
   154b2:	6862                	ld	a6,24(sp)
   154b4:	8d2a                	mv	s10,a0
   154b6:	de0515e3          	bnez	a0,152a0 <__gdtoa+0x384>
   154ba:	744e                	ld	s0,240(sp)
   154bc:	790e                	ld	s2,224(sp)
   154be:	6aae                	ld	s5,200(sp)
   154c0:	6b0e                	ld	s6,192(sp)
   154c2:	7bea                	ld	s7,184(sp)
   154c4:	7c4a                	ld	s8,176(sp)
   154c6:	7d0a                	ld	s10,160(sp)
   154c8:	6dea                	ld	s11,152(sp)
   154ca:	4801                	li	a6,0
   154cc:	b765                	j	15474 <__gdtoa+0x558>
   154ce:	000c2a23          	sw	zero,20(s8)
   154d2:	b625                	j	14ffa <__gdtoa+0xde>
   154d4:	4705                	li	a4,1
   154d6:	f8ba                	sd	a4,112(sp)
   154d8:	ec02                	sd	zero,24(sp)
   154da:	1a0ecf63          	bltz	t4,15698 <__gdtoa+0x77c>
   154de:	c20355e3          	bgez	t1,15108 <__gdtoa+0x1ec>
   154e2:	6762                	ld	a4,24(sp)
   154e4:	fc1a                	sd	t1,56(sp)
   154e6:	4067073b          	subw	a4,a4,t1
   154ea:	ec3a                	sd	a4,24(sp)
   154ec:	4060073b          	negw	a4,t1
   154f0:	f83a                	sd	a4,48(sp)
   154f2:	4301                	li	t1,0
   154f4:	b931                	j	15110 <__gdtoa+0x1f4>
   154f6:	85aa                	mv	a1,a0
   154f8:	8562                	mv	a0,s8
   154fa:	4df000ef          	jal	161d8 <__rshift_D2A>
   154fe:	46ba                	lw	a3,140(sp)
   15500:	67c2                	ld	a5,16(sp)
   15502:	00f68e3b          	addw	t3,a3,a5
   15506:	67e2                	ld	a5,24(sp)
   15508:	9f95                	subw	a5,a5,a3
   1550a:	b609                	j	1500c <__gdtoa+0xf0>
   1550c:	3fda8a9b          	addw	s5,s5,1021
   15510:	7f8aba93          	sltiu	s5,s5,2040
   15514:	4901                	li	s2,0
   15516:	d20d07d3          	fcvt.d.w	fa5,s10
   1551a:	00006717          	auipc	a4,0x6
   1551e:	ef673707          	fld	fa4,-266(a4) # 1b410 <__SDATA_BEGIN__+0x30>
   15522:	4705                	li	a4,1
   15524:	12e7f7d3          	fmul.d	fa5,fa5,fa4
   15528:	e0ba                	sd	a4,64(sp)
   1552a:	577d                	li	a4,-1
   1552c:	4b81                	li	s7,0
   1552e:	fcba                	sd	a4,120(sp)
   15530:	f43a                	sd	a4,40(sp)
   15532:	c20795d3          	fcvt.w.d	a1,fa5,rtz
   15536:	258d                	addw	a1,a1,3
   15538:	862e                	mv	a2,a1
   1553a:	b921                	j	15152 <__gdtoa+0x236>
   1553c:	7702                	ld	a4,32(sp)
   1553e:	460d                	li	a2,3
   15540:	40e6073b          	subw	a4,a2,a4
   15544:	f03a                	sd	a4,32(sp)
   15546:	7722                	ld	a4,40(sp)
   15548:	45b9                	li	a1,14
   1554a:	0007061b          	sext.w	a2,a4
   1554e:	c2c5efe3          	bltu	a1,a2,1518c <__gdtoa+0x270>
   15552:	c20a8de3          	beqz	s5,1518c <__gdtoa+0x270>
   15556:	7662                	ld	a2,56(sp)
   15558:	7582                	ld	a1,32(sp)
   1555a:	8e4d                	or	a2,a2,a1
   1555c:	2601                	sext.w	a2,a2
   1555e:	c20617e3          	bnez	a2,1518c <__gdtoa+0x270>
   15562:	7646                	ld	a2,112(sp)
   15564:	c702                	sw	zero,140(sp)
   15566:	85b6                	mv	a1,a3
   15568:	ca19                	beqz	a2,1557e <__gdtoa+0x662>
   1556a:	f20687d3          	fmv.d.x	fa5,a3
   1556e:	00006617          	auipc	a2,0x6
   15572:	eaa63587          	fld	fa1,-342(a2) # 1b418 <__SDATA_BEGIN__+0x38>
   15576:	a2b79653          	flt.d	a2,fa5,fa1
   1557a:	7e061663          	bnez	a2,15d66 <__gdtoa+0xe4a>
   1557e:	f20586d3          	fmv.d.x	fa3,a1
   15582:	00006717          	auipc	a4,0x6
   15586:	eb673707          	fld	fa4,-330(a4) # 1b438 <__SDATA_BEGIN__+0x58>
   1558a:	00006717          	auipc	a4,0x6
   1558e:	ea673787          	fld	fa5,-346(a4) # 1b430 <__SDATA_BEGIN__+0x50>
   15592:	7ae6f7c3          	fmadd.d	fa5,fa3,fa4,fa5
   15596:	fcc00637          	lui	a2,0xfcc00
   1559a:	7722                	ld	a4,40(sp)
   1559c:	e2078f53          	fmv.x.d	t5,fa5
   155a0:	020f5513          	srl	a0,t5,0x20
   155a4:	9e29                	addw	a2,a2,a0
   155a6:	557d                	li	a0,-1
   155a8:	9101                	srl	a0,a0,0x20
   155aa:	1602                	sll	a2,a2,0x20
   155ac:	01e57533          	and	a0,a0,t5
   155b0:	00c563b3          	or	t2,a0,a2
   155b4:	4e070363          	beqz	a4,15a9a <__gdtoa+0xb7e>
   155b8:	7fa2                	ld	t6,40(sp)
   155ba:	862e                	mv	a2,a1
   155bc:	4f01                	li	t5,0
   155be:	ffff829b          	addw	t0,t6,-1
   155c2:	6706                	ld	a4,64(sp)
   155c4:	00004517          	auipc	a0,0x4
   155c8:	00450513          	add	a0,a0,4 # 195c8 <__mprec_tens>
   155cc:	028e                	sll	t0,t0,0x3
   155ce:	92aa                	add	t0,t0,a0
   155d0:	0002b787          	fld	fa5,0(t0) # 10844 <memset+0x90>
   155d4:	6e070763          	beqz	a4,15cc2 <__gdtoa+0xda6>
   155d8:	00006717          	auipc	a4,0x6
   155dc:	e7073707          	fld	fa4,-400(a4) # 1b448 <__SDATA_BEGIN__+0x68>
   155e0:	1af77753          	fdiv.d	fa4,fa4,fa5
   155e4:	f20607d3          	fmv.d.x	fa5,a2
   155e8:	f20606d3          	fmv.d.x	fa3,a2
   155ec:	00180c93          	add	s9,a6,1
   155f0:	c20796d3          	fcvt.w.d	a3,fa5,rtz
   155f4:	d20687d3          	fcvt.d.w	fa5,a3
   155f8:	0306869b          	addw	a3,a3,48
   155fc:	00d80023          	sb	a3,0(a6)
   15600:	0af6f7d3          	fsub.d	fa5,fa3,fa5
   15604:	f20386d3          	fmv.d.x	fa3,t2
   15608:	0ad77753          	fsub.d	fa4,fa4,fa3
   1560c:	a2e796d3          	flt.d	a3,fa5,fa4
   15610:	02069fe3          	bnez	a3,15e4e <__gdtoa+0xf32>
   15614:	00006717          	auipc	a4,0x6
   15618:	e0473587          	fld	fa1,-508(a4) # 1b418 <__SDATA_BEGIN__+0x38>
   1561c:	00006717          	auipc	a4,0x6
   15620:	e0473607          	fld	fa2,-508(a4) # 1b420 <__SDATA_BEGIN__+0x40>
   15624:	a80d                	j	15656 <__gdtoa+0x73a>
   15626:	473a                	lw	a4,140(sp)
   15628:	0c85                	add	s9,s9,1
   1562a:	2705                	addw	a4,a4,1
   1562c:	c73a                	sw	a4,140(sp)
   1562e:	03f75de3          	bge	a4,t6,15e68 <__gdtoa+0xf4c>
   15632:	12c7f7d3          	fmul.d	fa5,fa5,fa2
   15636:	12c77753          	fmul.d	fa4,fa4,fa2
   1563a:	c2079753          	fcvt.w.d	a4,fa5,rtz
   1563e:	d20706d3          	fcvt.d.w	fa3,a4
   15642:	0307071b          	addw	a4,a4,48
   15646:	feec8fa3          	sb	a4,-1(s9)
   1564a:	0ad7f7d3          	fsub.d	fa5,fa5,fa3
   1564e:	a2e79753          	flt.d	a4,fa5,fa4
   15652:	7e071e63          	bnez	a4,15e4e <__gdtoa+0xf32>
   15656:	0af5f6d3          	fsub.d	fa3,fa1,fa5
   1565a:	a2e69753          	flt.d	a4,fa3,fa4
   1565e:	d761                	beqz	a4,15626 <__gdtoa+0x70a>
   15660:	fffcc683          	lbu	a3,-1(s9)
   15664:	2f05                	addw	t5,t5,1
   15666:	03900613          	li	a2,57
   1566a:	a031                	j	15676 <__gdtoa+0x75a>
   1566c:	64f80763          	beq	a6,a5,15cba <__gdtoa+0xd9e>
   15670:	fff7c683          	lbu	a3,-1(a5) # ffffffffffff7fff <__BSS_END__+0xfffffffffffdc5c7>
   15674:	8cbe                	mv	s9,a5
   15676:	fffc8793          	add	a5,s9,-1
   1567a:	fec689e3          	beq	a3,a2,1566c <__gdtoa+0x750>
   1567e:	2685                	addw	a3,a3,1
   15680:	0ff6f693          	zext.b	a3,a3
   15684:	00d78023          	sb	a3,0(a5)
   15688:	000f091b          	sext.w	s2,t5
   1568c:	02000993          	li	s3,32
   15690:	a0dd                	j	15776 <__gdtoa+0x85a>
   15692:	744e                	ld	s0,240(sp)
   15694:	790e                	ld	s2,224(sp)
   15696:	b52d                	j	154c0 <__gdtoa+0x5a4>
   15698:	4585                	li	a1,1
   1569a:	40c5873b          	subw	a4,a1,a2
   1569e:	ec3a                	sd	a4,24(sp)
   156a0:	4e81                	li	t4,0
   156a2:	e40340e3          	bltz	t1,154e2 <__gdtoa+0x5c6>
   156a6:	b48d                	j	15108 <__gdtoa+0x1ec>
   156a8:	7d42                	ld	s10,48(sp)
   156aa:	6ce2                	ld	s9,24(sp)
   156ac:	4a81                	li	s5,0
   156ae:	beb1                	j	1520a <__gdtoa+0x2ee>
   156b0:	4709                	li	a4,2
   156b2:	f03a                	sd	a4,32(sp)
   156b4:	bcc1                	j	15184 <__gdtoa+0x268>
   156b6:	3971                	addw	s2,s2,-4
   156b8:	4591                	li	a1,4
   156ba:	12b90263          	beq	s2,a1,157de <__gdtoa+0x8c2>
   156be:	4ac90663          	beq	s2,a2,15b6a <__gdtoa+0xc4e>
   156c2:	4609                	li	a2,2
   156c4:	e082                	sd	zero,64(sp)
   156c6:	4a81                	li	s5,0
   156c8:	10c90e63          	beq	s2,a2,157e4 <__gdtoa+0x8c8>
   156cc:	490d                	li	s2,3
   156ce:	b4bd                	j	1513c <__gdtoa+0x220>
   156d0:	337d                	addw	t1,t1,-1
   156d2:	f882                	sd	zero,112(sp)
   156d4:	b511                	j	154d8 <__gdtoa+0x5bc>
   156d6:	00371613          	sll	a2,a4,0x3
   156da:	00004797          	auipc	a5,0x4
   156de:	eee78793          	add	a5,a5,-274 # 195c8 <__mprec_tens>
   156e2:	97b2                	add	a5,a5,a2
   156e4:	2398                	fld	fa4,0(a5)
   156e6:	320bcb63          	bltz	s7,15a1c <__gdtoa+0xb00>
   156ea:	f20687d3          	fmv.d.x	fa5,a3
   156ee:	4785                	li	a5,1
   156f0:	c73e                	sw	a5,140(sp)
   156f2:	1ae7f7d3          	fdiv.d	fa5,fa5,fa4
   156f6:	77e2                	ld	a5,56(sp)
   156f8:	f20686d3          	fmv.d.x	fa3,a3
   156fc:	00180c93          	add	s9,a6,1
   15700:	0017891b          	addw	s2,a5,1
   15704:	8f4a                	mv	t5,s2
   15706:	c20797d3          	fcvt.w.d	a5,fa5,rtz
   1570a:	d20787d3          	fcvt.d.w	fa5,a5
   1570e:	0307861b          	addw	a2,a5,48
   15712:	00c80023          	sb	a2,0(a6)
   15716:	6af777cb          	fnmsub.d	fa5,fa4,fa5,fa3
   1571a:	f20006d3          	fmv.d.x	fa3,zero
   1571e:	2781                	sext.w	a5,a5
   15720:	a2d7a6d3          	feq.d	a3,fa5,fa3
   15724:	eaa9                	bnez	a3,15776 <__gdtoa+0x85a>
   15726:	22d685d3          	fmv.d	fa1,fa3
   1572a:	7622                	ld	a2,40(sp)
   1572c:	00006717          	auipc	a4,0x6
   15730:	cf473607          	fld	fa2,-780(a4) # 1b420 <__SDATA_BEGIN__+0x40>
   15734:	a02d                	j	1575e <__gdtoa+0x842>
   15736:	12c7f7d3          	fmul.d	fa5,fa5,fa2
   1573a:	c736                	sw	a3,140(sp)
   1573c:	0c85                	add	s9,s9,1
   1573e:	1ae7f6d3          	fdiv.d	fa3,fa5,fa4
   15742:	c20697d3          	fcvt.w.d	a5,fa3,rtz
   15746:	d20786d3          	fcvt.d.w	fa3,a5
   1574a:	0307871b          	addw	a4,a5,48
   1574e:	feec8fa3          	sb	a4,-1(s9)
   15752:	7ae6f7cb          	fnmsub.d	fa5,fa3,fa4,fa5
   15756:	2781                	sext.w	a5,a5
   15758:	a2b7a753          	feq.d	a4,fa5,fa1
   1575c:	ef09                	bnez	a4,15776 <__gdtoa+0x85a>
   1575e:	473a                	lw	a4,140(sp)
   15760:	0017069b          	addw	a3,a4,1
   15764:	fcc719e3          	bne	a4,a2,15736 <__gdtoa+0x81a>
   15768:	7702                	ld	a4,32(sp)
   1576a:	50070d63          	beqz	a4,15c84 <__gdtoa+0xd68>
   1576e:	4785                	li	a5,1
   15770:	49c1                	li	s3,16
   15772:	64f70863          	beq	a4,a5,15dc2 <__gdtoa+0xea6>
   15776:	85e2                	mv	a1,s8
   15778:	8522                	mv	a0,s0
   1577a:	e842                	sd	a6,16(sp)
   1577c:	3e3000ef          	jal	1635e <_Bfree>
   15780:	67a2                	ld	a5,8(sp)
   15782:	000c8023          	sb	zero,0(s9)
   15786:	0124a023          	sw	s2,0(s1)
   1578a:	6842                	ld	a6,16(sp)
   1578c:	c399                	beqz	a5,15792 <__gdtoa+0x876>
   1578e:	0197b023          	sd	s9,0(a5)
   15792:	000a2783          	lw	a5,0(s4)
   15796:	744e                	ld	s0,240(sp)
   15798:	790e                	ld	s2,224(sp)
   1579a:	00f9e7b3          	or	a5,s3,a5
   1579e:	6aae                	ld	s5,200(sp)
   157a0:	6b0e                	ld	s6,192(sp)
   157a2:	7bea                	ld	s7,184(sp)
   157a4:	7c4a                	ld	s8,176(sp)
   157a6:	7d0a                	ld	s10,160(sp)
   157a8:	6dea                	ld	s11,152(sp)
   157aa:	00fa2023          	sw	a5,0(s4)
   157ae:	b1d9                	j	15474 <__gdtoa+0x558>
   157b0:	acd797e3          	bne	a5,a3,1527e <__gdtoa+0x362>
   157b4:	004b2783          	lw	a5,4(s6)
   157b8:	6742                	ld	a4,16(sp)
   157ba:	2785                	addw	a5,a5,1
   157bc:	ace7d1e3          	bge	a5,a4,1527e <__gdtoa+0x362>
   157c0:	67e2                	ld	a5,24(sp)
   157c2:	2e85                	addw	t4,t4,1
   157c4:	4305                	li	t1,1
   157c6:	2785                	addw	a5,a5,1
   157c8:	ec3e                	sd	a5,24(sp)
   157ca:	bc55                	j	1527e <__gdtoa+0x362>
   157cc:	d2050753          	fcvt.d.w	fa4,a0
   157d0:	a2f728d3          	feq.d	a7,fa4,fa5
   157d4:	8e0892e3          	bnez	a7,150b8 <__gdtoa+0x19c>
   157d8:	fff5031b          	addw	t1,a0,-1
   157dc:	b8f1                	j	150b8 <__gdtoa+0x19c>
   157de:	4705                	li	a4,1
   157e0:	4a81                	li	s5,0
   157e2:	e0ba                	sd	a4,64(sp)
   157e4:	000b859b          	sext.w	a1,s7
   157e8:	01704363          	bgtz	s7,157ee <__gdtoa+0x8d2>
   157ec:	4585                	li	a1,1
   157ee:	862e                	mv	a2,a1
   157f0:	fcae                	sd	a1,120(sp)
   157f2:	f42e                	sd	a1,40(sp)
   157f4:	8bae                	mv	s7,a1
   157f6:	bab1                	j	15152 <__gdtoa+0x236>
   157f8:	379000ef          	jal	16370 <__multadd>
   157fc:	8aaa                	mv	s5,a0
   157fe:	ca050ee3          	beqz	a0,154ba <__gdtoa+0x59e>
   15802:	84aa                	mv	s1,a0
   15804:	be2d                	j	1533e <__gdtoa+0x422>
   15806:	ae0b59e3          	bgez	s6,152f8 <__gdtoa+0x3dc>
   1580a:	7782                	ld	a5,32(sp)
   1580c:	ec26                	sd	s1,24(sp)
   1580e:	8352                	mv	t1,s4
   15810:	7842                	ld	a6,48(sp)
   15812:	7a22                	ld	s4,40(sp)
   15814:	6486                	ld	s1,64(sp)
   15816:	89ba                	mv	s3,a4
   15818:	72079763          	bnez	a5,15f46 <__gdtoa+0x102a>
   1581c:	014c2603          	lw	a2,20(s8)
   15820:	4685                	li	a3,1
   15822:	49c1                	li	s3,16
   15824:	001b8c93          	add	s9,s7,1
   15828:	6cc6d763          	bge	a3,a2,15ef6 <__gdtoa+0xfda>
   1582c:	006b8023          	sb	t1,0(s7)
   15830:	8b56                	mv	s6,s5
   15832:	6ae2                	ld	s5,24(sp)
   15834:	85ea                	mv	a1,s10
   15836:	8522                	mv	a0,s0
   15838:	e842                	sd	a6,16(sp)
   1583a:	325000ef          	jal	1635e <_Bfree>
   1583e:	77e2                	ld	a5,56(sp)
   15840:	6842                	ld	a6,16(sp)
   15842:	0017891b          	addw	s2,a5,1
   15846:	f20a88e3          	beqz	s5,15776 <__gdtoa+0x85a>
   1584a:	000b0963          	beqz	s6,1585c <__gdtoa+0x940>
   1584e:	015b0763          	beq	s6,s5,1585c <__gdtoa+0x940>
   15852:	85da                	mv	a1,s6
   15854:	8522                	mv	a0,s0
   15856:	309000ef          	jal	1635e <_Bfree>
   1585a:	6842                	ld	a6,16(sp)
   1585c:	85d6                	mv	a1,s5
   1585e:	8522                	mv	a0,s0
   15860:	e842                	sd	a6,16(sp)
   15862:	2fd000ef          	jal	1635e <_Bfree>
   15866:	6842                	ld	a6,16(sp)
   15868:	b739                	j	15776 <__gdtoa+0x85a>
   1586a:	85e2                	mv	a1,s8
   1586c:	8522                	mv	a0,s0
   1586e:	f842                	sd	a6,48(sp)
   15870:	ec76                	sd	t4,24(sp)
   15872:	e81a                	sd	t1,16(sp)
   15874:	0b8010ef          	jal	1692c <__lshift>
   15878:	8c2a                	mv	s8,a0
   1587a:	c40500e3          	beqz	a0,154ba <__gdtoa+0x59e>
   1587e:	47ba                	lw	a5,140(sp)
   15880:	7842                	ld	a6,48(sp)
   15882:	6ee2                	ld	t4,24(sp)
   15884:	6342                	ld	t1,16(sp)
   15886:	bc09                	j	15298 <__gdtoa+0x37c>
   15888:	85ea                	mv	a1,s10
   1588a:	8562                	mv	a0,s8
   1588c:	ec42                	sd	a6,24(sp)
   1588e:	e81a                	sd	t1,16(sp)
   15890:	1c4010ef          	jal	16a54 <__mcmp>
   15894:	6342                	ld	t1,16(sp)
   15896:	6862                	ld	a6,24(sp)
   15898:	a00557e3          	bgez	a0,152a6 <__gdtoa+0x38a>
   1589c:	77e2                	ld	a5,56(sp)
   1589e:	85e2                	mv	a1,s8
   158a0:	4681                	li	a3,0
   158a2:	37fd                	addw	a5,a5,-1
   158a4:	4629                	li	a2,10
   158a6:	8522                	mv	a0,s0
   158a8:	fc3e                	sd	a5,56(sp)
   158aa:	2c7000ef          	jal	16370 <__multadd>
   158ae:	8c2a                	mv	s8,a0
   158b0:	c00505e3          	beqz	a0,154ba <__gdtoa+0x59e>
   158b4:	6786                	ld	a5,64(sp)
   158b6:	6862                	ld	a6,24(sp)
   158b8:	56079363          	bnez	a5,15e1e <__gdtoa+0xf02>
   158bc:	77e6                	ld	a5,120(sp)
   158be:	14f05963          	blez	a5,15a10 <__gdtoa+0xaf4>
   158c2:	f43e                	sd	a5,40(sp)
   158c4:	7922                	ld	s2,40(sp)
   158c6:	8bc2                	mv	s7,a6
   158c8:	4685                	li	a3,1
   158ca:	89c2                	mv	s3,a6
   158cc:	a801                	j	158dc <__gdtoa+0x9c0>
   158ce:	2a3000ef          	jal	16370 <__multadd>
   158d2:	8c2a                	mv	s8,a0
   158d4:	be0503e3          	beqz	a0,154ba <__gdtoa+0x59e>
   158d8:	46ba                	lw	a3,140(sp)
   158da:	2685                	addw	a3,a3,1
   158dc:	85ea                	mv	a1,s10
   158de:	8562                	mv	a0,s8
   158e0:	c736                	sw	a3,140(sp)
   158e2:	786000ef          	jal	16068 <__quorem_D2A>
   158e6:	0305031b          	addw	t1,a0,48
   158ea:	006b8023          	sb	t1,0(s7)
   158ee:	47ba                	lw	a5,140(sp)
   158f0:	4681                	li	a3,0
   158f2:	4629                	li	a2,10
   158f4:	85e2                	mv	a1,s8
   158f6:	8522                	mv	a0,s0
   158f8:	0b85                	add	s7,s7,1
   158fa:	fd27cae3          	blt	a5,s2,158ce <__gdtoa+0x9b2>
   158fe:	884e                	mv	a6,s3
   15900:	4b01                	li	s6,0
   15902:	7782                	ld	a5,32(sp)
   15904:	2c078c63          	beqz	a5,15bdc <__gdtoa+0xcc0>
   15908:	4689                	li	a3,2
   1590a:	014c2603          	lw	a2,20(s8)
   1590e:	2ed78d63          	beq	a5,a3,15c08 <__gdtoa+0xcec>
   15912:	4685                	li	a3,1
   15914:	20c6ce63          	blt	a3,a2,15b30 <__gdtoa+0xc14>
   15918:	018c2683          	lw	a3,24(s8)
   1591c:	20069a63          	bnez	a3,15b30 <__gdtoa+0xc14>
   15920:	00d036b3          	snez	a3,a3
   15924:	00469993          	sll	s3,a3,0x4
   15928:	03000613          	li	a2,48
   1592c:	fffbc783          	lbu	a5,-1(s7)
   15930:	8cde                	mv	s9,s7
   15932:	1bfd                	add	s7,s7,-1
   15934:	fec78ce3          	beq	a5,a2,1592c <__gdtoa+0xa10>
   15938:	bdf5                	j	15834 <__gdtoa+0x918>
   1593a:	7722                	ld	a4,40(sp)
   1593c:	7642                	ld	a2,48(sp)
   1593e:	fff7069b          	addw	a3,a4,-1
   15942:	10d64263          	blt	a2,a3,15a46 <__gdtoa+0xb2a>
   15946:	40d60d3b          	subw	s10,a2,a3
   1594a:	48075d63          	bgez	a4,15de4 <__gdtoa+0xec8>
   1594e:	6762                	ld	a4,24(sp)
   15950:	76a2                	ld	a3,40(sp)
   15952:	c702                	sw	zero,140(sp)
   15954:	40d70cbb          	subw	s9,a4,a3
   15958:	b851                	j	151ec <__gdtoa+0x2d0>
   1595a:	4789                	li	a5,2
   1595c:	9527d8e3          	bge	a5,s2,152ac <__gdtoa+0x390>
   15960:	85ea                	mv	a1,s10
   15962:	4681                	li	a3,0
   15964:	4615                	li	a2,5
   15966:	8522                	mv	a0,s0
   15968:	e842                	sd	a6,16(sp)
   1596a:	207000ef          	jal	16370 <__multadd>
   1596e:	85aa                	mv	a1,a0
   15970:	b40505e3          	beqz	a0,154ba <__gdtoa+0x59e>
   15974:	77a2                	ld	a5,40(sp)
   15976:	6842                	ld	a6,16(sp)
   15978:	14079763          	bnez	a5,15ac6 <__gdtoa+0xbaa>
   1597c:	e82a                	sd	a0,16(sp)
   1597e:	8562                	mv	a0,s8
   15980:	ec42                	sd	a6,24(sp)
   15982:	0d2010ef          	jal	16a54 <__mcmp>
   15986:	77e2                	ld	a5,56(sp)
   15988:	65c2                	ld	a1,16(sp)
   1598a:	6862                	ld	a6,24(sp)
   1598c:	0027891b          	addw	s2,a5,2
   15990:	12a05b63          	blez	a0,15ac6 <__gdtoa+0xbaa>
   15994:	03100793          	li	a5,49
   15998:	00180c93          	add	s9,a6,1
   1599c:	00f80023          	sb	a5,0(a6)
   159a0:	02000993          	li	s3,32
   159a4:	8522                	mv	a0,s0
   159a6:	e842                	sd	a6,16(sp)
   159a8:	1b7000ef          	jal	1635e <_Bfree>
   159ac:	6842                	ld	a6,16(sp)
   159ae:	dc0a84e3          	beqz	s5,15776 <__gdtoa+0x85a>
   159b2:	b56d                	j	1585c <__gdtoa+0x940>
   159b4:	4605                	li	a2,1
   159b6:	4585                	li	a1,1
   159b8:	f9aff06f          	j	15152 <__gdtoa+0x236>
   159bc:	85aa                	mv	a1,a0
   159be:	861a                	mv	a2,t1
   159c0:	8522                	mv	a0,s0
   159c2:	e4c2                	sd	a6,72(sp)
   159c4:	f876                	sd	t4,48(sp)
   159c6:	68d000ef          	jal	16852 <__pow5mult>
   159ca:	8d2a                	mv	s10,a0
   159cc:	ae0507e3          	beqz	a0,154ba <__gdtoa+0x59e>
   159d0:	4685                	li	a3,1
   159d2:	7ec2                	ld	t4,48(sp)
   159d4:	6826                	ld	a6,72(sp)
   159d6:	1b26d863          	bge	a3,s2,15b86 <__gdtoa+0xc6a>
   159da:	014d2783          	lw	a5,20(s10)
   159de:	f842                	sd	a6,48(sp)
   159e0:	e876                	sd	t4,16(sp)
   159e2:	37fd                	addw	a5,a5,-1
   159e4:	0791                	add	a5,a5,4
   159e6:	078a                	sll	a5,a5,0x2
   159e8:	97ea                	add	a5,a5,s10
   159ea:	4788                	lw	a0,8(a5)
   159ec:	359000ef          	jal	16544 <__hi0bits>
   159f0:	7842                	ld	a6,48(sp)
   159f2:	6ec2                	ld	t4,16(sp)
   159f4:	834e                	mv	t1,s3
   159f6:	b069                	j	15280 <__gdtoa+0x364>
   159f8:	4685                	li	a3,1
   159fa:	f526c0e3          	blt	a3,s2,1593a <__gdtoa+0xa1e>
   159fe:	6762                	ld	a4,24(sp)
   15a00:	7d42                	ld	s10,48(sp)
   15a02:	01d60ebb          	addw	t4,a2,t4
   15a06:	8cba                	mv	s9,a4
   15a08:	9f31                	addw	a4,a4,a2
   15a0a:	ec3a                	sd	a4,24(sp)
   15a0c:	fe0ff06f          	j	151ec <__gdtoa+0x2d0>
   15a10:	4789                	li	a5,2
   15a12:	4f27c863          	blt	a5,s2,15f02 <__gdtoa+0xfe6>
   15a16:	77e6                	ld	a5,120(sp)
   15a18:	f43e                	sd	a5,40(sp)
   15a1a:	b56d                	j	158c4 <__gdtoa+0x9a8>
   15a1c:	77a2                	ld	a5,40(sp)
   15a1e:	ccf046e3          	bgtz	a5,156ea <__gdtoa+0x7ce>
   15a22:	e3c5                	bnez	a5,15ac2 <__gdtoa+0xba6>
   15a24:	00006797          	auipc	a5,0x6
   15a28:	a1c7b787          	fld	fa5,-1508(a5) # 1b440 <__SDATA_BEGIN__+0x60>
   15a2c:	12f77753          	fmul.d	fa4,fa4,fa5
   15a30:	f20687d3          	fmv.d.x	fa5,a3
   15a34:	a2e787d3          	fle.d	a5,fa5,fa4
   15a38:	e7c9                	bnez	a5,15ac2 <__gdtoa+0xba6>
   15a3a:	77e2                	ld	a5,56(sp)
   15a3c:	4581                	li	a1,0
   15a3e:	4a81                	li	s5,0
   15a40:	0027891b          	addw	s2,a5,2
   15a44:	bf81                	j	15994 <__gdtoa+0xa78>
   15a46:	7742                	ld	a4,48(sp)
   15a48:	65e2                	ld	a1,24(sp)
   15a4a:	4d01                	li	s10,0
   15a4c:	40e6863b          	subw	a2,a3,a4
   15a50:	7722                	ld	a4,40(sp)
   15a52:	8cae                	mv	s9,a1
   15a54:	0066033b          	addw	t1,a2,t1
   15a58:	c73a                	sw	a4,140(sp)
   15a5a:	01d70ebb          	addw	t4,a4,t4
   15a5e:	9f2d                	addw	a4,a4,a1
   15a60:	ec3a                	sd	a4,24(sp)
   15a62:	f836                	sd	a3,48(sp)
   15a64:	f88ff06f          	j	151ec <__gdtoa+0x2d0>
   15a68:	f20686d3          	fmv.d.x	fa3,a3
   15a6c:	00006717          	auipc	a4,0x6
   15a70:	9cc73787          	fld	fa5,-1588(a4) # 1b438 <__SDATA_BEGIN__+0x58>
   15a74:	00006717          	auipc	a4,0x6
   15a78:	9bc73707          	fld	fa4,-1604(a4) # 1b430 <__SDATA_BEGIN__+0x50>
   15a7c:	72f6f7c3          	fmadd.d	fa5,fa3,fa5,fa4
   15a80:	fcc006b7          	lui	a3,0xfcc00
   15a84:	e2078653          	fmv.x.d	a2,fa5
   15a88:	02065513          	srl	a0,a2,0x20
   15a8c:	9ea9                	addw	a3,a3,a0
   15a8e:	557d                	li	a0,-1
   15a90:	9101                	srl	a0,a0,0x20
   15a92:	1682                	sll	a3,a3,0x20
   15a94:	8d71                	and	a0,a0,a2
   15a96:	00d563b3          	or	t2,a0,a3
   15a9a:	f2058753          	fmv.d.x	fa4,a1
   15a9e:	00006717          	auipc	a4,0x6
   15aa2:	9a273787          	fld	fa5,-1630(a4) # 1b440 <__SDATA_BEGIN__+0x60>
   15aa6:	0af777d3          	fsub.d	fa5,fa4,fa5
   15aaa:	f2038753          	fmv.d.x	fa4,t2
   15aae:	a2f716d3          	flt.d	a3,fa4,fa5
   15ab2:	32069563          	bnez	a3,15ddc <__gdtoa+0xec0>
   15ab6:	22e71753          	fneg.d	fa4,fa4
   15aba:	a2e796d3          	flt.d	a3,fa5,fa4
   15abe:	30068563          	beqz	a3,15dc8 <__gdtoa+0xeac>
   15ac2:	4581                	li	a1,0
   15ac4:	4a81                	li	s5,0
   15ac6:	4170093b          	negw	s2,s7
   15aca:	8cc2                	mv	s9,a6
   15acc:	49c1                	li	s3,16
   15ace:	bdd9                	j	159a4 <__gdtoa+0xa88>
   15ad0:	85d6                	mv	a1,s5
   15ad2:	866a                	mv	a2,s10
   15ad4:	8522                	mv	a0,s0
   15ad6:	f0c2                	sd	a6,96(sp)
   15ad8:	ecbe                	sd	a5,88(sp)
   15ada:	e8f6                	sd	t4,80(sp)
   15adc:	e49a                	sd	t1,72(sp)
   15ade:	575000ef          	jal	16852 <__pow5mult>
   15ae2:	8aaa                	mv	s5,a0
   15ae4:	9c050be3          	beqz	a0,154ba <__gdtoa+0x59e>
   15ae8:	85aa                	mv	a1,a0
   15aea:	8662                	mv	a2,s8
   15aec:	8522                	mv	a0,s0
   15aee:	3b9000ef          	jal	166a6 <__multiply>
   15af2:	f4aa                	sd	a0,104(sp)
   15af4:	9c0503e3          	beqz	a0,154ba <__gdtoa+0x59e>
   15af8:	85e2                	mv	a1,s8
   15afa:	8522                	mv	a0,s0
   15afc:	063000ef          	jal	1635e <_Bfree>
   15b00:	77c2                	ld	a5,48(sp)
   15b02:	76a6                	ld	a3,104(sp)
   15b04:	6326                	ld	t1,72(sp)
   15b06:	41a7873b          	subw	a4,a5,s10
   15b0a:	f83a                	sd	a4,48(sp)
   15b0c:	6ec6                	ld	t4,80(sp)
   15b0e:	67e6                	ld	a5,88(sp)
   15b10:	7806                	ld	a6,96(sp)
   15b12:	8c36                	mv	s8,a3
   15b14:	f4070163          	beqz	a4,15256 <__gdtoa+0x33a>
   15b18:	f1eff06f          	j	15236 <__gdtoa+0x31a>
   15b1c:	8b56                	mv	s6,s5
   15b1e:	6ae2                	ld	s5,24(sp)
   15b20:	86de                	mv	a3,s7
   15b22:	001b8c93          	add	s9,s7,1
   15b26:	03900613          	li	a2,57
   15b2a:	8be6                	mv	s7,s9
   15b2c:	00c68023          	sb	a2,0(a3) # fffffffffcc00000 <__BSS_END__+0xfffffffffcbe45c8>
   15b30:	03900613          	li	a2,57
   15b34:	a019                	j	15b3a <__gdtoa+0xc1e>
   15b36:	0f780263          	beq	a6,s7,15c1a <__gdtoa+0xcfe>
   15b3a:	fffbc683          	lbu	a3,-1(s7)
   15b3e:	8cde                	mv	s9,s7
   15b40:	1bfd                	add	s7,s7,-1
   15b42:	fec68ae3          	beq	a3,a2,15b36 <__gdtoa+0xc1a>
   15b46:	2685                	addw	a3,a3,1
   15b48:	00db8023          	sb	a3,0(s7)
   15b4c:	02000993          	li	s3,32
   15b50:	b1d5                	j	15834 <__gdtoa+0x918>
   15b52:	85d6                	mv	a1,s5
   15b54:	8522                	mv	a0,s0
   15b56:	ec42                	sd	a6,24(sp)
   15b58:	e81a                	sd	t1,16(sp)
   15b5a:	5d3000ef          	jal	1692c <__lshift>
   15b5e:	6342                	ld	t1,16(sp)
   15b60:	6862                	ld	a6,24(sp)
   15b62:	8aaa                	mv	s5,a0
   15b64:	f4051b63          	bnez	a0,152ba <__gdtoa+0x39e>
   15b68:	ba89                	j	154ba <__gdtoa+0x59e>
   15b6a:	4705                	li	a4,1
   15b6c:	4a81                	li	s5,0
   15b6e:	e0ba                	sd	a4,64(sp)
   15b70:	dccff06f          	j	1513c <__gdtoa+0x220>
   15b74:	4705                	li	a4,1
   15b76:	e0ba                	sd	a4,64(sp)
   15b78:	dc4ff06f          	j	1513c <__gdtoa+0x220>
   15b7c:	4705                	li	a4,1
   15b7e:	e0ba                	sd	a4,64(sp)
   15b80:	b195                	j	157e4 <__gdtoa+0x8c8>
   15b82:	e082                	sd	zero,64(sp)
   15b84:	b185                	j	157e4 <__gdtoa+0x8c8>
   15b86:	67c6                	ld	a5,80(sp)
   15b88:	e4d799e3          	bne	a5,a3,159da <__gdtoa+0xabe>
   15b8c:	004b2783          	lw	a5,4(s6)
   15b90:	6742                	ld	a4,16(sp)
   15b92:	2785                	addw	a5,a5,1
   15b94:	e4e7d3e3          	bge	a5,a4,159da <__gdtoa+0xabe>
   15b98:	67e2                	ld	a5,24(sp)
   15b9a:	2e85                	addw	t4,t4,1
   15b9c:	4985                	li	s3,1
   15b9e:	2785                	addw	a5,a5,1
   15ba0:	ec3e                	sd	a5,24(sp)
   15ba2:	bd25                	j	159da <__gdtoa+0xabe>
   15ba4:	008aa583          	lw	a1,8(s5)
   15ba8:	8522                	mv	a0,s0
   15baa:	e842                	sd	a6,16(sp)
   15bac:	74e000ef          	jal	162fa <_Balloc>
   15bb0:	89aa                	mv	s3,a0
   15bb2:	900504e3          	beqz	a0,154ba <__gdtoa+0x59e>
   15bb6:	014aa603          	lw	a2,20(s5)
   15bba:	010a8593          	add	a1,s5,16
   15bbe:	0541                	add	a0,a0,16
   15bc0:	0609                	add	a2,a2,2 # fffffffffcc00002 <__BSS_END__+0xfffffffffcbe45ca>
   15bc2:	060a                	sll	a2,a2,0x2
   15bc4:	d59fe0ef          	jal	1491c <memcpy>
   15bc8:	4605                	li	a2,1
   15bca:	85ce                	mv	a1,s3
   15bcc:	8522                	mv	a0,s0
   15bce:	55f000ef          	jal	1692c <__lshift>
   15bd2:	ec2a                	sd	a0,24(sp)
   15bd4:	6842                	ld	a6,16(sp)
   15bd6:	ee051563          	bnez	a0,152c0 <__gdtoa+0x3a4>
   15bda:	b0c5                	j	154ba <__gdtoa+0x59e>
   15bdc:	85e2                	mv	a1,s8
   15bde:	4605                	li	a2,1
   15be0:	8522                	mv	a0,s0
   15be2:	e842                	sd	a6,16(sp)
   15be4:	ec1a                	sd	t1,24(sp)
   15be6:	547000ef          	jal	1692c <__lshift>
   15bea:	8c2a                	mv	s8,a0
   15bec:	8c0507e3          	beqz	a0,154ba <__gdtoa+0x59e>
   15bf0:	85ea                	mv	a1,s10
   15bf2:	663000ef          	jal	16a54 <__mcmp>
   15bf6:	6842                	ld	a6,16(sp)
   15bf8:	f2a04ce3          	bgtz	a0,15b30 <__gdtoa+0xc14>
   15bfc:	e511                	bnez	a0,15c08 <__gdtoa+0xcec>
   15bfe:	6362                	ld	t1,24(sp)
   15c00:	00137313          	and	t1,t1,1
   15c04:	f20316e3          	bnez	t1,15b30 <__gdtoa+0xc14>
   15c08:	014c2603          	lw	a2,20(s8)
   15c0c:	4685                	li	a3,1
   15c0e:	49c1                	li	s3,16
   15c10:	d0c6cce3          	blt	a3,a2,15928 <__gdtoa+0xa0c>
   15c14:	018c2683          	lw	a3,24(s8)
   15c18:	b321                	j	15920 <__gdtoa+0xa04>
   15c1a:	77e2                	ld	a5,56(sp)
   15c1c:	02000993          	li	s3,32
   15c20:	2785                	addw	a5,a5,1
   15c22:	fc3e                	sd	a5,56(sp)
   15c24:	03100793          	li	a5,49
   15c28:	00f80023          	sb	a5,0(a6)
   15c2c:	b121                	j	15834 <__gdtoa+0x918>
   15c2e:	7782                	ld	a5,32(sp)
   15c30:	ec26                	sd	s1,24(sp)
   15c32:	8352                	mv	t1,s4
   15c34:	7842                	ld	a6,48(sp)
   15c36:	7a22                	ld	s4,40(sp)
   15c38:	6486                	ld	s1,64(sp)
   15c3a:	cb91                	beqz	a5,15c4e <__gdtoa+0xd32>
   15c3c:	014c2603          	lw	a2,20(s8)
   15c40:	4685                	li	a3,1
   15c42:	f6c6cd63          	blt	a3,a2,153bc <__gdtoa+0x4a0>
   15c46:	018c2683          	lw	a3,24(s8)
   15c4a:	f6069963          	bnez	a3,153bc <__gdtoa+0x4a0>
   15c4e:	85e2                	mv	a1,s8
   15c50:	4605                	li	a2,1
   15c52:	8522                	mv	a0,s0
   15c54:	f042                	sd	a6,32(sp)
   15c56:	e81a                	sd	t1,16(sp)
   15c58:	4d5000ef          	jal	1692c <__lshift>
   15c5c:	8c2a                	mv	s8,a0
   15c5e:	84050ee3          	beqz	a0,154ba <__gdtoa+0x59e>
   15c62:	85ea                	mv	a1,s10
   15c64:	5f1000ef          	jal	16a54 <__mcmp>
   15c68:	6342                	ld	t1,16(sp)
   15c6a:	7802                	ld	a6,32(sp)
   15c6c:	26a05663          	blez	a0,15ed8 <__gdtoa+0xfbc>
   15c70:	03900693          	li	a3,57
   15c74:	ead304e3          	beq	t1,a3,15b1c <__gdtoa+0xc00>
   15c78:	02000793          	li	a5,32
   15c7c:	031c831b          	addw	t1,s9,49
   15c80:	f03e                	sd	a5,32(sp)
   15c82:	be69                	j	1581c <__gdtoa+0x900>
   15c84:	02f7f7d3          	fadd.d	fa5,fa5,fa5
   15c88:	fffcc683          	lbu	a3,-1(s9)
   15c8c:	a2f71653          	flt.d	a2,fa4,fa5
   15c90:	9c061be3          	bnez	a2,15666 <__gdtoa+0x74a>
   15c94:	a2e7a653          	feq.d	a2,fa5,fa4
   15c98:	c601                	beqz	a2,15ca0 <__gdtoa+0xd84>
   15c9a:	8b85                	and	a5,a5,1
   15c9c:	9c0795e3          	bnez	a5,15666 <__gdtoa+0x74a>
   15ca0:	87e6                	mv	a5,s9
   15ca2:	49c1                	li	s3,16
   15ca4:	03000613          	li	a2,48
   15ca8:	fff7c703          	lbu	a4,-1(a5)
   15cac:	8cbe                	mv	s9,a5
   15cae:	17fd                	add	a5,a5,-1
   15cb0:	fec70ce3          	beq	a4,a2,15ca8 <__gdtoa+0xd8c>
   15cb4:	000f091b          	sext.w	s2,t5
   15cb8:	bc7d                	j	15776 <__gdtoa+0x85a>
   15cba:	03100693          	li	a3,49
   15cbe:	2f05                	addw	t5,t5,1
   15cc0:	b2d1                	j	15684 <__gdtoa+0x768>
   15cc2:	f2038753          	fmv.d.x	fa4,t2
   15cc6:	f20685d3          	fmv.d.x	fa1,a3
   15cca:	8cc2                	mv	s9,a6
   15ccc:	12e7f653          	fmul.d	fa2,fa5,fa4
   15cd0:	f20687d3          	fmv.d.x	fa5,a3
   15cd4:	4685                	li	a3,1
   15cd6:	c736                	sw	a3,140(sp)
   15cd8:	4281                	li	t0,0
   15cda:	00005717          	auipc	a4,0x5
   15cde:	74673707          	fld	fa4,1862(a4) # 1b420 <__SDATA_BEGIN__+0x40>
   15ce2:	a029                	j	15cec <__gdtoa+0xdd0>
   15ce4:	12e7f7d3          	fmul.d	fa5,fa5,fa4
   15ce8:	c732                	sw	a2,140(sp)
   15cea:	4285                	li	t0,1
   15cec:	c2079753          	fcvt.w.d	a4,fa5,rtz
   15cf0:	0c85                	add	s9,s9,1
   15cf2:	0307069b          	addw	a3,a4,48
   15cf6:	0007061b          	sext.w	a2,a4
   15cfa:	0ff6f693          	zext.b	a3,a3
   15cfe:	c611                	beqz	a2,15d0a <__gdtoa+0xdee>
   15d00:	d20706d3          	fcvt.d.w	fa3,a4
   15d04:	4285                	li	t0,1
   15d06:	0ad7f7d3          	fsub.d	fa5,fa5,fa3
   15d0a:	fedc8fa3          	sb	a3,-1(s9)
   15d0e:	473a                	lw	a4,140(sp)
   15d10:	0017061b          	addw	a2,a4,1
   15d14:	fdf718e3          	bne	a4,t6,15ce4 <__gdtoa+0xdc8>
   15d18:	00028463          	beqz	t0,15d20 <__gdtoa+0xe04>
   15d1c:	22f785d3          	fmv.d	fa1,fa5
   15d20:	00005717          	auipc	a4,0x5
   15d24:	72873787          	fld	fa5,1832(a4) # 1b448 <__SDATA_BEGIN__+0x68>
   15d28:	02f67753          	fadd.d	fa4,fa2,fa5
   15d2c:	a2b71653          	flt.d	a2,fa4,fa1
   15d30:	12061963          	bnez	a2,15e62 <__gdtoa+0xf46>
   15d34:	0ac7f7d3          	fsub.d	fa5,fa5,fa2
   15d38:	a2f596d3          	flt.d	a3,fa1,fa5
   15d3c:	14069e63          	bnez	a3,15e98 <__gdtoa+0xf7c>
   15d40:	86ae                	mv	a3,a1
   15d42:	1a0e4463          	bltz	t3,15eea <__gdtoa+0xfce>
   15d46:	f002                	sd	zero,32(sp)
   15d48:	2118                	fld	fa4,0(a0)
   15d4a:	9a0bd0e3          	bgez	s7,156ea <__gdtoa+0x7ce>
   15d4e:	77a2                	ld	a5,40(sp)
   15d50:	98079de3          	bnez	a5,156ea <__gdtoa+0x7ce>
   15d54:	b9c1                	j	15a24 <__gdtoa+0xb08>
   15d56:	87a6                	mv	a5,s1
   15d58:	8352                	mv	t1,s4
   15d5a:	8b56                	mv	s6,s5
   15d5c:	7842                	ld	a6,48(sp)
   15d5e:	7a22                	ld	s4,40(sp)
   15d60:	6486                	ld	s1,64(sp)
   15d62:	8abe                	mv	s5,a5
   15d64:	be79                	j	15902 <__gdtoa+0x9e6>
   15d66:	d00701e3          	beqz	a4,15a68 <__gdtoa+0xb4c>
   15d6a:	7fe6                	ld	t6,120(sp)
   15d6c:	05f05e63          	blez	t6,15dc8 <__gdtoa+0xeac>
   15d70:	f2068753          	fmv.d.x	fa4,a3
   15d74:	00005717          	auipc	a4,0x5
   15d78:	6ac73787          	fld	fa5,1708(a4) # 1b420 <__SDATA_BEGIN__+0x40>
   15d7c:	fcc002b7          	lui	t0,0xfcc00
   15d80:	12f777d3          	fmul.d	fa5,fa4,fa5
   15d84:	00005717          	auipc	a4,0x5
   15d88:	6a473707          	fld	fa4,1700(a4) # 1b428 <__SDATA_BEGIN__+0x48>
   15d8c:	5f7d                	li	t5,-1
   15d8e:	e2078653          	fmv.x.d	a2,fa5
   15d92:	00005717          	auipc	a4,0x5
   15d96:	69e73787          	fld	fa5,1694(a4) # 1b430 <__SDATA_BEGIN__+0x50>
   15d9a:	f20606d3          	fmv.d.x	fa3,a2
   15d9e:	86b2                	mv	a3,a2
   15da0:	7ae6f7c3          	fmadd.d	fa5,fa3,fa4,fa5
   15da4:	e20783d3          	fmv.x.d	t2,fa5
   15da8:	0203d513          	srl	a0,t2,0x20
   15dac:	00a282bb          	addw	t0,t0,a0
   15db0:	557d                	li	a0,-1
   15db2:	9101                	srl	a0,a0,0x20
   15db4:	1282                	sll	t0,t0,0x20
   15db6:	00757533          	and	a0,a0,t2
   15dba:	005563b3          	or	t2,a0,t0
   15dbe:	801ff06f          	j	155be <__gdtoa+0x6a2>
   15dc2:	fffcc683          	lbu	a3,-1(s9)
   15dc6:	b045                	j	15666 <__gdtoa+0x74a>
   15dc8:	86ae                	mv	a3,a1
   15dca:	00003517          	auipc	a0,0x3
   15dce:	7fe50513          	add	a0,a0,2046 # 195c8 <__mprec_tens>
   15dd2:	f60e5ae3          	bgez	t3,15d46 <__gdtoa+0xe2a>
   15dd6:	f002                	sd	zero,32(sp)
   15dd8:	bc0ff06f          	j	15198 <__gdtoa+0x27c>
   15ddc:	4909                	li	s2,2
   15dde:	4581                	li	a1,0
   15de0:	4a81                	li	s5,0
   15de2:	be4d                	j	15994 <__gdtoa+0xa78>
   15de4:	66e2                	ld	a3,24(sp)
   15de6:	c73a                	sw	a4,140(sp)
   15de8:	01d70ebb          	addw	t4,a4,t4
   15dec:	9f35                	addw	a4,a4,a3
   15dee:	8cb6                	mv	s9,a3
   15df0:	ec3a                	sd	a4,24(sp)
   15df2:	bfaff06f          	j	151ec <__gdtoa+0x2d0>
   15df6:	8352                	mv	t1,s4
   15df8:	ec26                	sd	s1,24(sp)
   15dfa:	03900693          	li	a3,57
   15dfe:	7842                	ld	a6,48(sp)
   15e00:	7a22                	ld	s4,40(sp)
   15e02:	6486                	ld	s1,64(sp)
   15e04:	d0d30ce3          	beq	t1,a3,15b1c <__gdtoa+0xc00>
   15e08:	0019879b          	addw	a5,s3,1
   15e0c:	8b56                	mv	s6,s5
   15e0e:	001b8c93          	add	s9,s7,1
   15e12:	6ae2                	ld	s5,24(sp)
   15e14:	00fb8023          	sb	a5,0(s7)
   15e18:	02000993          	li	s3,32
   15e1c:	bc21                	j	15834 <__gdtoa+0x918>
   15e1e:	85d6                	mv	a1,s5
   15e20:	4681                	li	a3,0
   15e22:	4629                	li	a2,10
   15e24:	8522                	mv	a0,s0
   15e26:	54a000ef          	jal	16370 <__multadd>
   15e2a:	8aaa                	mv	s5,a0
   15e2c:	e8050763          	beqz	a0,154ba <__gdtoa+0x59e>
   15e30:	77e6                	ld	a5,120(sp)
   15e32:	6342                	ld	t1,16(sp)
   15e34:	6862                	ld	a6,24(sp)
   15e36:	00f05563          	blez	a5,15e40 <__gdtoa+0xf24>
   15e3a:	f43e                	sd	a5,40(sp)
   15e3c:	c76ff06f          	j	152b2 <__gdtoa+0x396>
   15e40:	4789                	li	a5,2
   15e42:	0d27c063          	blt	a5,s2,15f02 <__gdtoa+0xfe6>
   15e46:	77e6                	ld	a5,120(sp)
   15e48:	f43e                	sd	a5,40(sp)
   15e4a:	c68ff06f          	j	152b2 <__gdtoa+0x396>
   15e4e:	f2000753          	fmv.d.x	fa4,zero
   15e52:	001f0913          	add	s2,t5,1
   15e56:	a2e7a9d3          	feq.d	s3,fa5,fa4
   15e5a:	0019b993          	seqz	s3,s3
   15e5e:	0992                	sll	s3,s3,0x4
   15e60:	ba19                	j	15776 <__gdtoa+0x85a>
   15e62:	2f05                	addw	t5,t5,1
   15e64:	803ff06f          	j	15666 <__gdtoa+0x74a>
   15e68:	86ae                	mv	a3,a1
   15e6a:	ec0e5ee3          	bgez	t3,15d46 <__gdtoa+0xe2a>
   15e6e:	f002                	sd	zero,32(sp)
   15e70:	b2eff06f          	j	1519e <__gdtoa+0x282>
   15e74:	7722                	ld	a4,40(sp)
   15e76:	7642                	ld	a2,48(sp)
   15e78:	fff7069b          	addw	a3,a4,-1
   15e7c:	8d36                	mv	s10,a3
   15e7e:	bcd644e3          	blt	a2,a3,15a46 <__gdtoa+0xb2a>
   15e82:	66e2                	ld	a3,24(sp)
   15e84:	01d70ebb          	addw	t4,a4,t4
   15e88:	c73a                	sw	a4,140(sp)
   15e8a:	9f35                	addw	a4,a4,a3
   15e8c:	8cb6                	mv	s9,a3
   15e8e:	41a60d3b          	subw	s10,a2,s10
   15e92:	ec3a                	sd	a4,24(sp)
   15e94:	b58ff06f          	j	151ec <__gdtoa+0x2d0>
   15e98:	f20007d3          	fmv.d.x	fa5,zero
   15e9c:	87e6                	mv	a5,s9
   15e9e:	2f05                	addw	t5,t5,1
   15ea0:	a2f5a9d3          	feq.d	s3,fa1,fa5
   15ea4:	0019b993          	seqz	s3,s3
   15ea8:	0992                	sll	s3,s3,0x4
   15eaa:	bbed                	j	15ca4 <__gdtoa+0xd88>
   15eac:	ec26                	sd	s1,24(sp)
   15eae:	03900693          	li	a3,57
   15eb2:	8352                	mv	t1,s4
   15eb4:	7842                	ld	a6,48(sp)
   15eb6:	7a22                	ld	s4,40(sp)
   15eb8:	6486                	ld	s1,64(sp)
   15eba:	c6d981e3          	beq	s3,a3,15b1c <__gdtoa+0xc00>
   15ebe:	07605863          	blez	s6,15f2e <__gdtoa+0x1012>
   15ec2:	031c831b          	addw	t1,s9,49
   15ec6:	02000993          	li	s3,32
   15eca:	006b8023          	sb	t1,0(s7)
   15ece:	8b56                	mv	s6,s5
   15ed0:	001b8c93          	add	s9,s7,1
   15ed4:	6ae2                	ld	s5,24(sp)
   15ed6:	bab9                	j	15834 <__gdtoa+0x918>
   15ed8:	e509                	bnez	a0,15ee2 <__gdtoa+0xfc6>
   15eda:	00137693          	and	a3,t1,1
   15ede:	d80699e3          	bnez	a3,15c70 <__gdtoa+0xd54>
   15ee2:	02000793          	li	a5,32
   15ee6:	f03e                	sd	a5,32(sp)
   15ee8:	ba15                	j	1581c <__gdtoa+0x900>
   15eea:	7d42                	ld	s10,48(sp)
   15eec:	6ce2                	ld	s9,24(sp)
   15eee:	f002                	sd	zero,32(sp)
   15ef0:	4a81                	li	s5,0
   15ef2:	b18ff06f          	j	1520a <__gdtoa+0x2ee>
   15ef6:	018c2683          	lw	a3,24(s8)
   15efa:	920699e3          	bnez	a3,1582c <__gdtoa+0x910>
   15efe:	7982                	ld	s3,32(sp)
   15f00:	b235                	j	1582c <__gdtoa+0x910>
   15f02:	77e6                	ld	a5,120(sp)
   15f04:	f43e                	sd	a5,40(sp)
   15f06:	bca9                	j	15960 <__gdtoa+0xa44>
   15f08:	ec5a                	sd	s6,24(sp)
   15f0a:	03900693          	li	a3,57
   15f0e:	886e                	mv	a6,s11
   15f10:	00d98b63          	beq	s3,a3,15f26 <__gdtoa+0x100a>
   15f14:	0019831b          	addw	t1,s3,1
   15f18:	02000993          	li	s3,32
   15f1c:	ba01                	j	1582c <__gdtoa+0x910>
   15f1e:	49c1                	li	s3,16
   15f20:	001b8c93          	add	s9,s7,1
   15f24:	b221                	j	1582c <__gdtoa+0x910>
   15f26:	8b56                	mv	s6,s5
   15f28:	86de                	mv	a3,s7
   15f2a:	6ae2                	ld	s5,24(sp)
   15f2c:	beed                	j	15b26 <__gdtoa+0xc0a>
   15f2e:	014c2603          	lw	a2,20(s8)
   15f32:	4685                	li	a3,1
   15f34:	49c1                	li	s3,16
   15f36:	f8c6cae3          	blt	a3,a2,15eca <__gdtoa+0xfae>
   15f3a:	018c2983          	lw	s3,24(s8)
   15f3e:	013039b3          	snez	s3,s3
   15f42:	0992                	sll	s3,s3,0x4
   15f44:	b759                	j	15eca <__gdtoa+0xfae>
   15f46:	014c2603          	lw	a2,20(s8)
   15f4a:	4685                	li	a3,1
   15f4c:	c6c6c863          	blt	a3,a2,153bc <__gdtoa+0x4a0>
   15f50:	018c2683          	lw	a3,24(s8)
   15f54:	c6069463          	bnez	a3,153bc <__gdtoa+0x4a0>
   15f58:	001b8c93          	add	s9,s7,1
   15f5c:	b8c1                	j	1582c <__gdtoa+0x910>
   15f5e:	000b4e63          	bltz	s6,15f7a <__gdtoa+0x105e>
   15f62:	016967b3          	or	a5,s2,s6
   15f66:	2781                	sext.w	a5,a5
   15f68:	e789                	bnez	a5,15f72 <__gdtoa+0x1056>
   15f6a:	67c2                	ld	a5,16(sp)
   15f6c:	439c                	lw	a5,0(a5)
   15f6e:	8b85                	and	a5,a5,1
   15f70:	c789                	beqz	a5,15f7a <__gdtoa+0x105e>
   15f72:	b8d05363          	blez	a3,152f8 <__gdtoa+0x3dc>
   15f76:	b7aff06f          	j	152f0 <__gdtoa+0x3d4>
   15f7a:	7782                	ld	a5,32(sp)
   15f7c:	ec26                	sd	s1,24(sp)
   15f7e:	8352                	mv	t1,s4
   15f80:	7842                	ld	a6,48(sp)
   15f82:	7a22                	ld	s4,40(sp)
   15f84:	6486                	ld	s1,64(sp)
   15f86:	c385                	beqz	a5,15fa6 <__gdtoa+0x108a>
   15f88:	014c2583          	lw	a1,20(s8)
   15f8c:	4605                	li	a2,1
   15f8e:	c2b64763          	blt	a2,a1,153bc <__gdtoa+0x4a0>
   15f92:	018c2603          	lw	a2,24(s8)
   15f96:	c2061363          	bnez	a2,153bc <__gdtoa+0x4a0>
   15f9a:	cad04ae3          	bgtz	a3,15c4e <__gdtoa+0xd32>
   15f9e:	4981                	li	s3,0
   15fa0:	001b8c93          	add	s9,s7,1
   15fa4:	b061                	j	1582c <__gdtoa+0x910>
   15fa6:	86d05be3          	blez	a3,1581c <__gdtoa+0x900>
   15faa:	b155                	j	15c4e <__gdtoa+0xd32>

0000000000015fac <__rv_alloc_D2A>:
   15fac:	1141                	add	sp,sp,-16
   15fae:	e022                	sd	s0,0(sp)
   15fb0:	e406                	sd	ra,8(sp)
   15fb2:	47ed                	li	a5,27
   15fb4:	4401                	li	s0,0
   15fb6:	00b7fa63          	bgeu	a5,a1,15fca <__rv_alloc_D2A+0x1e>
   15fba:	4791                	li	a5,4
   15fbc:	0017979b          	sllw	a5,a5,0x1
   15fc0:	01878713          	add	a4,a5,24
   15fc4:	2405                	addw	s0,s0,1 # 1fff001 <__BSS_END__+0x1fe35c9>
   15fc6:	fee5fbe3          	bgeu	a1,a4,15fbc <__rv_alloc_D2A+0x10>
   15fca:	85a2                	mv	a1,s0
   15fcc:	32e000ef          	jal	162fa <_Balloc>
   15fd0:	c119                	beqz	a0,15fd6 <__rv_alloc_D2A+0x2a>
   15fd2:	c100                	sw	s0,0(a0)
   15fd4:	0511                	add	a0,a0,4
   15fd6:	60a2                	ld	ra,8(sp)
   15fd8:	6402                	ld	s0,0(sp)
   15fda:	0141                	add	sp,sp,16
   15fdc:	8082                	ret

0000000000015fde <__nrv_alloc_D2A>:
   15fde:	1101                	add	sp,sp,-32
   15fe0:	e822                	sd	s0,16(sp)
   15fe2:	e04a                	sd	s2,0(sp)
   15fe4:	ec06                	sd	ra,24(sp)
   15fe6:	e426                	sd	s1,8(sp)
   15fe8:	47ed                	li	a5,27
   15fea:	842e                	mv	s0,a1
   15fec:	8932                	mv	s2,a2
   15fee:	04d7fb63          	bgeu	a5,a3,16044 <__nrv_alloc_D2A+0x66>
   15ff2:	4791                	li	a5,4
   15ff4:	4481                	li	s1,0
   15ff6:	0017979b          	sllw	a5,a5,0x1
   15ffa:	01878713          	add	a4,a5,24
   15ffe:	2485                	addw	s1,s1,1
   16000:	fee6fbe3          	bgeu	a3,a4,15ff6 <__nrv_alloc_D2A+0x18>
   16004:	85a6                	mv	a1,s1
   16006:	2f4000ef          	jal	162fa <_Balloc>
   1600a:	87aa                	mv	a5,a0
   1600c:	cd15                	beqz	a0,16048 <__nrv_alloc_D2A+0x6a>
   1600e:	c104                	sw	s1,0(a0)
   16010:	00044703          	lbu	a4,0(s0)
   16014:	0511                	add	a0,a0,4
   16016:	00140593          	add	a1,s0,1
   1601a:	00e78223          	sb	a4,4(a5)
   1601e:	87aa                	mv	a5,a0
   16020:	cb01                	beqz	a4,16030 <__nrv_alloc_D2A+0x52>
   16022:	0005c703          	lbu	a4,0(a1)
   16026:	0785                	add	a5,a5,1
   16028:	0585                	add	a1,a1,1
   1602a:	00e78023          	sb	a4,0(a5)
   1602e:	fb75                	bnez	a4,16022 <__nrv_alloc_D2A+0x44>
   16030:	00090463          	beqz	s2,16038 <__nrv_alloc_D2A+0x5a>
   16034:	00f93023          	sd	a5,0(s2)
   16038:	60e2                	ld	ra,24(sp)
   1603a:	6442                	ld	s0,16(sp)
   1603c:	64a2                	ld	s1,8(sp)
   1603e:	6902                	ld	s2,0(sp)
   16040:	6105                	add	sp,sp,32
   16042:	8082                	ret
   16044:	4481                	li	s1,0
   16046:	bf7d                	j	16004 <__nrv_alloc_D2A+0x26>
   16048:	4501                	li	a0,0
   1604a:	b7fd                	j	16038 <__nrv_alloc_D2A+0x5a>

000000000001604c <__freedtoa>:
   1604c:	ffc5a783          	lw	a5,-4(a1)
   16050:	4685                	li	a3,1
   16052:	872e                	mv	a4,a1
   16054:	00f696bb          	sllw	a3,a3,a5
   16058:	1782                	sll	a5,a5,0x20
   1605a:	1682                	sll	a3,a3,0x20
   1605c:	9381                	srl	a5,a5,0x20
   1605e:	8fd5                	or	a5,a5,a3
   16060:	15f1                	add	a1,a1,-4
   16062:	00f73223          	sd	a5,4(a4)
   16066:	ace5                	j	1635e <_Bfree>

0000000000016068 <__quorem_D2A>:
   16068:	7139                	add	sp,sp,-64
   1606a:	f426                	sd	s1,40(sp)
   1606c:	495c                	lw	a5,20(a0)
   1606e:	49c4                	lw	s1,20(a1)
   16070:	fc06                	sd	ra,56(sp)
   16072:	1497ce63          	blt	a5,s1,161ce <__quorem_D2A+0x166>
   16076:	34fd                	addw	s1,s1,-1
   16078:	00249313          	sll	t1,s1,0x2
   1607c:	f822                	sd	s0,48(sp)
   1607e:	01858413          	add	s0,a1,24
   16082:	f04a                	sd	s2,32(sp)
   16084:	ec4e                	sd	s3,24(sp)
   16086:	00640933          	add	s2,s0,t1
   1608a:	01850993          	add	s3,a0,24
   1608e:	e456                	sd	s5,8(sp)
   16090:	934e                	add	t1,t1,s3
   16092:	00092a83          	lw	s5,0(s2)
   16096:	00032783          	lw	a5,0(t1)
   1609a:	e05a                	sd	s6,0(sp)
   1609c:	001a871b          	addw	a4,s5,1
   160a0:	02e7db3b          	divuw	s6,a5,a4
   160a4:	e852                	sd	s4,16(sp)
   160a6:	8a2a                	mv	s4,a0
   160a8:	8ada                	mv	s5,s6
   160aa:	08e7ea63          	bltu	a5,a4,1613e <__quorem_D2A+0xd6>
   160ae:	6841                	lui	a6,0x10
   160b0:	8522                	mv	a0,s0
   160b2:	88ce                	mv	a7,s3
   160b4:	4f01                	li	t5,0
   160b6:	4e81                	li	t4,0
   160b8:	187d                	add	a6,a6,-1 # ffff <exit-0xe9>
   160ba:	4118                	lw	a4,0(a0)
   160bc:	0008a603          	lw	a2,0(a7)
   160c0:	0891                	add	a7,a7,4
   160c2:	010776b3          	and	a3,a4,a6
   160c6:	036686bb          	mulw	a3,a3,s6
   160ca:	0107571b          	srlw	a4,a4,0x10
   160ce:	010677b3          	and	a5,a2,a6
   160d2:	01065e1b          	srlw	t3,a2,0x10
   160d6:	0511                	add	a0,a0,4
   160d8:	0367073b          	mulw	a4,a4,s6
   160dc:	01e686bb          	addw	a3,a3,t5
   160e0:	00d87633          	and	a2,a6,a3
   160e4:	9f91                	subw	a5,a5,a2
   160e6:	41d787bb          	subw	a5,a5,t4
   160ea:	0106d69b          	srlw	a3,a3,0x10
   160ee:	0107d61b          	srlw	a2,a5,0x10
   160f2:	8a05                	and	a2,a2,1
   160f4:	00f877b3          	and	a5,a6,a5
   160f8:	9f35                	addw	a4,a4,a3
   160fa:	00e876b3          	and	a3,a6,a4
   160fe:	9e35                	addw	a2,a2,a3
   16100:	40ce06bb          	subw	a3,t3,a2
   16104:	0106961b          	sllw	a2,a3,0x10
   16108:	8fd1                	or	a5,a5,a2
   1610a:	0106d69b          	srlw	a3,a3,0x10
   1610e:	fef8ae23          	sw	a5,-4(a7)
   16112:	01075f1b          	srlw	t5,a4,0x10
   16116:	0016fe93          	and	t4,a3,1
   1611a:	faa970e3          	bgeu	s2,a0,160ba <__quorem_D2A+0x52>
   1611e:	00032783          	lw	a5,0(t1)
   16122:	ef91                	bnez	a5,1613e <__quorem_D2A+0xd6>
   16124:	1371                	add	t1,t1,-4
   16126:	0069e663          	bltu	s3,t1,16132 <__quorem_D2A+0xca>
   1612a:	a801                	j	1613a <__quorem_D2A+0xd2>
   1612c:	34fd                	addw	s1,s1,-1
   1612e:	0069f663          	bgeu	s3,t1,1613a <__quorem_D2A+0xd2>
   16132:	00032783          	lw	a5,0(t1)
   16136:	1371                	add	t1,t1,-4
   16138:	dbf5                	beqz	a5,1612c <__quorem_D2A+0xc4>
   1613a:	009a2a23          	sw	s1,20(s4)
   1613e:	8552                	mv	a0,s4
   16140:	115000ef          	jal	16a54 <__mcmp>
   16144:	06054963          	bltz	a0,161b6 <__quorem_D2A+0x14e>
   16148:	6541                	lui	a0,0x10
   1614a:	864e                	mv	a2,s3
   1614c:	4581                	li	a1,0
   1614e:	157d                	add	a0,a0,-1 # ffff <exit-0xe9>
   16150:	4218                	lw	a4,0(a2)
   16152:	4014                	lw	a3,0(s0)
   16154:	0611                	add	a2,a2,4
   16156:	00a777b3          	and	a5,a4,a0
   1615a:	00a6f833          	and	a6,a3,a0
   1615e:	410787bb          	subw	a5,a5,a6
   16162:	9f8d                	subw	a5,a5,a1
   16164:	0107d59b          	srlw	a1,a5,0x10
   16168:	8985                	and	a1,a1,1
   1616a:	0106d69b          	srlw	a3,a3,0x10
   1616e:	9ead                	addw	a3,a3,a1
   16170:	0107571b          	srlw	a4,a4,0x10
   16174:	9f15                	subw	a4,a4,a3
   16176:	0107169b          	sllw	a3,a4,0x10
   1617a:	8fe9                	and	a5,a5,a0
   1617c:	8fd5                	or	a5,a5,a3
   1617e:	0107571b          	srlw	a4,a4,0x10
   16182:	0411                	add	s0,s0,4
   16184:	fef62e23          	sw	a5,-4(a2)
   16188:	00177593          	and	a1,a4,1
   1618c:	fc8972e3          	bgeu	s2,s0,16150 <__quorem_D2A+0xe8>
   16190:	00249793          	sll	a5,s1,0x2
   16194:	97ce                	add	a5,a5,s3
   16196:	4398                	lw	a4,0(a5)
   16198:	ef09                	bnez	a4,161b2 <__quorem_D2A+0x14a>
   1619a:	17f1                	add	a5,a5,-4
   1619c:	00f9e663          	bltu	s3,a5,161a8 <__quorem_D2A+0x140>
   161a0:	a039                	j	161ae <__quorem_D2A+0x146>
   161a2:	34fd                	addw	s1,s1,-1
   161a4:	00f9f563          	bgeu	s3,a5,161ae <__quorem_D2A+0x146>
   161a8:	4398                	lw	a4,0(a5)
   161aa:	17f1                	add	a5,a5,-4
   161ac:	db7d                	beqz	a4,161a2 <__quorem_D2A+0x13a>
   161ae:	009a2a23          	sw	s1,20(s4)
   161b2:	001a8b1b          	addw	s6,s5,1
   161b6:	7442                	ld	s0,48(sp)
   161b8:	70e2                	ld	ra,56(sp)
   161ba:	7902                	ld	s2,32(sp)
   161bc:	69e2                	ld	s3,24(sp)
   161be:	6a42                	ld	s4,16(sp)
   161c0:	6aa2                	ld	s5,8(sp)
   161c2:	74a2                	ld	s1,40(sp)
   161c4:	000b051b          	sext.w	a0,s6
   161c8:	6b02                	ld	s6,0(sp)
   161ca:	6121                	add	sp,sp,64
   161cc:	8082                	ret
   161ce:	70e2                	ld	ra,56(sp)
   161d0:	74a2                	ld	s1,40(sp)
   161d2:	4501                	li	a0,0
   161d4:	6121                	add	sp,sp,64
   161d6:	8082                	ret

00000000000161d8 <__rshift_D2A>:
   161d8:	4958                	lw	a4,20(a0)
   161da:	4055de13          	sra	t3,a1,0x5
   161de:	00ee4763          	blt	t3,a4,161ec <__rshift_D2A+0x14>
   161e2:	00052a23          	sw	zero,20(a0)
   161e6:	00052c23          	sw	zero,24(a0)
   161ea:	8082                	ret
   161ec:	01850313          	add	t1,a0,24
   161f0:	00271813          	sll	a6,a4,0x2
   161f4:	002e1793          	sll	a5,t3,0x2
   161f8:	89fd                	and	a1,a1,31
   161fa:	981a                	add	a6,a6,t1
   161fc:	979a                	add	a5,a5,t1
   161fe:	c1b9                	beqz	a1,16244 <__rshift_D2A+0x6c>
   16200:	4390                	lw	a2,0(a5)
   16202:	02000e93          	li	t4,32
   16206:	0791                	add	a5,a5,4
   16208:	00b656bb          	srlw	a3,a2,a1
   1620c:	40be8ebb          	subw	t4,t4,a1
   16210:	0507ff63          	bgeu	a5,a6,1626e <__rshift_D2A+0x96>
   16214:	889a                	mv	a7,t1
   16216:	4390                	lw	a2,0(a5)
   16218:	0891                	add	a7,a7,4
   1621a:	0791                	add	a5,a5,4
   1621c:	01d6163b          	sllw	a2,a2,t4
   16220:	8ed1                	or	a3,a3,a2
   16222:	fed8ae23          	sw	a3,-4(a7)
   16226:	ffc7a603          	lw	a2,-4(a5)
   1622a:	00b656bb          	srlw	a3,a2,a1
   1622e:	ff07e4e3          	bltu	a5,a6,16216 <__rshift_D2A+0x3e>
   16232:	41c70733          	sub	a4,a4,t3
   16236:	070a                	sll	a4,a4,0x2
   16238:	1771                	add	a4,a4,-4
   1623a:	971a                	add	a4,a4,t1
   1623c:	c314                	sw	a3,0(a4)
   1623e:	c28d                	beqz	a3,16260 <__rshift_D2A+0x88>
   16240:	0711                	add	a4,a4,4
   16242:	a839                	j	16260 <__rshift_D2A+0x88>
   16244:	869a                	mv	a3,t1
   16246:	f907fee3          	bgeu	a5,a6,161e2 <__rshift_D2A+0xa>
   1624a:	4390                	lw	a2,0(a5)
   1624c:	0791                	add	a5,a5,4
   1624e:	0691                	add	a3,a3,4
   16250:	fec6ae23          	sw	a2,-4(a3)
   16254:	ff07ebe3          	bltu	a5,a6,1624a <__rshift_D2A+0x72>
   16258:	41c70733          	sub	a4,a4,t3
   1625c:	070a                	sll	a4,a4,0x2
   1625e:	971a                	add	a4,a4,t1
   16260:	40670733          	sub	a4,a4,t1
   16264:	8709                	sra	a4,a4,0x2
   16266:	2701                	sext.w	a4,a4
   16268:	c958                	sw	a4,20(a0)
   1626a:	df35                	beqz	a4,161e6 <__rshift_D2A+0xe>
   1626c:	8082                	ret
   1626e:	cd14                	sw	a3,24(a0)
   16270:	daad                	beqz	a3,161e2 <__rshift_D2A+0xa>
   16272:	871a                	mv	a4,t1
   16274:	0711                	add	a4,a4,4
   16276:	b7ed                	j	16260 <__rshift_D2A+0x88>

0000000000016278 <__trailz_D2A>:
   16278:	4958                	lw	a4,20(a0)
   1627a:	1101                	add	sp,sp,-32
   1627c:	0561                	add	a0,a0,24
   1627e:	070a                	sll	a4,a4,0x2
   16280:	e822                	sd	s0,16(sp)
   16282:	ec06                	sd	ra,24(sp)
   16284:	972a                	add	a4,a4,a0
   16286:	4401                	li	s0,0
   16288:	00e56863          	bltu	a0,a4,16298 <__trailz_D2A+0x20>
   1628c:	a839                	j	162aa <__trailz_D2A+0x32>
   1628e:	0511                	add	a0,a0,4
   16290:	0204041b          	addw	s0,s0,32
   16294:	00e57b63          	bgeu	a0,a4,162aa <__trailz_D2A+0x32>
   16298:	411c                	lw	a5,0(a0)
   1629a:	dbf5                	beqz	a5,1628e <__trailz_D2A+0x16>
   1629c:	00e57763          	bgeu	a0,a4,162aa <__trailz_D2A+0x32>
   162a0:	0068                	add	a0,sp,12
   162a2:	c63e                	sw	a5,12(sp)
   162a4:	2fe000ef          	jal	165a2 <__lo0bits>
   162a8:	9c29                	addw	s0,s0,a0
   162aa:	60e2                	ld	ra,24(sp)
   162ac:	8522                	mv	a0,s0
   162ae:	6442                	ld	s0,16(sp)
   162b0:	6105                	add	sp,sp,32
   162b2:	8082                	ret

00000000000162b4 <_mbtowc_r>:
   162b4:	0e81b783          	ld	a5,232(gp) # 1b320 <__global_locale+0xe8>
   162b8:	8782                	jr	a5

00000000000162ba <__ascii_mbtowc>:
   162ba:	c999                	beqz	a1,162d0 <__ascii_mbtowc+0x16>
   162bc:	c61d                	beqz	a2,162ea <__ascii_mbtowc+0x30>
   162be:	ca95                	beqz	a3,162f2 <__ascii_mbtowc+0x38>
   162c0:	00064783          	lbu	a5,0(a2)
   162c4:	c19c                	sw	a5,0(a1)
   162c6:	00064503          	lbu	a0,0(a2)
   162ca:	00a03533          	snez	a0,a0
   162ce:	8082                	ret
   162d0:	1141                	add	sp,sp,-16
   162d2:	006c                	add	a1,sp,12
   162d4:	ce09                	beqz	a2,162ee <__ascii_mbtowc+0x34>
   162d6:	c285                	beqz	a3,162f6 <__ascii_mbtowc+0x3c>
   162d8:	00064783          	lbu	a5,0(a2)
   162dc:	c19c                	sw	a5,0(a1)
   162de:	00064503          	lbu	a0,0(a2)
   162e2:	00a03533          	snez	a0,a0
   162e6:	0141                	add	sp,sp,16
   162e8:	8082                	ret
   162ea:	4501                	li	a0,0
   162ec:	8082                	ret
   162ee:	4501                	li	a0,0
   162f0:	bfdd                	j	162e6 <__ascii_mbtowc+0x2c>
   162f2:	5579                	li	a0,-2
   162f4:	8082                	ret
   162f6:	5579                	li	a0,-2
   162f8:	b7fd                	j	162e6 <__ascii_mbtowc+0x2c>

00000000000162fa <_Balloc>:
   162fa:	753c                	ld	a5,104(a0)
   162fc:	1101                	add	sp,sp,-32
   162fe:	e822                	sd	s0,16(sp)
   16300:	e426                	sd	s1,8(sp)
   16302:	ec06                	sd	ra,24(sp)
   16304:	84aa                	mv	s1,a0
   16306:	842e                	mv	s0,a1
   16308:	cf99                	beqz	a5,16326 <_Balloc+0x2c>
   1630a:	00341713          	sll	a4,s0,0x3
   1630e:	97ba                	add	a5,a5,a4
   16310:	6388                	ld	a0,0(a5)
   16312:	c505                	beqz	a0,1633a <_Balloc+0x40>
   16314:	6118                	ld	a4,0(a0)
   16316:	e398                	sd	a4,0(a5)
   16318:	00053823          	sd	zero,16(a0)
   1631c:	60e2                	ld	ra,24(sp)
   1631e:	6442                	ld	s0,16(sp)
   16320:	64a2                	ld	s1,8(sp)
   16322:	6105                	add	sp,sp,32
   16324:	8082                	ret
   16326:	04100613          	li	a2,65
   1632a:	45a1                	li	a1,8
   1632c:	4c6010ef          	jal	177f2 <_calloc_r>
   16330:	f4a8                	sd	a0,104(s1)
   16332:	87aa                	mv	a5,a0
   16334:	f979                	bnez	a0,1630a <_Balloc+0x10>
   16336:	4501                	li	a0,0
   16338:	b7d5                	j	1631c <_Balloc+0x22>
   1633a:	4785                	li	a5,1
   1633c:	008797bb          	sllw	a5,a5,s0
   16340:	0007861b          	sext.w	a2,a5
   16344:	061d                	add	a2,a2,7
   16346:	1402                	sll	s0,s0,0x20
   16348:	1782                	sll	a5,a5,0x20
   1634a:	9001                	srl	s0,s0,0x20
   1634c:	060a                	sll	a2,a2,0x2
   1634e:	4585                	li	a1,1
   16350:	8526                	mv	a0,s1
   16352:	8c5d                	or	s0,s0,a5
   16354:	49e010ef          	jal	177f2 <_calloc_r>
   16358:	dd79                	beqz	a0,16336 <_Balloc+0x3c>
   1635a:	e500                	sd	s0,8(a0)
   1635c:	bf75                	j	16318 <_Balloc+0x1e>

000000000001635e <_Bfree>:
   1635e:	c981                	beqz	a1,1636e <_Bfree+0x10>
   16360:	4598                	lw	a4,8(a1)
   16362:	753c                	ld	a5,104(a0)
   16364:	070e                	sll	a4,a4,0x3
   16366:	97ba                	add	a5,a5,a4
   16368:	6398                	ld	a4,0(a5)
   1636a:	e198                	sd	a4,0(a1)
   1636c:	e38c                	sd	a1,0(a5)
   1636e:	8082                	ret

0000000000016370 <__multadd>:
   16370:	7179                	add	sp,sp,-48
   16372:	f022                	sd	s0,32(sp)
   16374:	49c0                	lw	s0,20(a1)
   16376:	6341                	lui	t1,0x10
   16378:	e84a                	sd	s2,16(sp)
   1637a:	e44e                	sd	s3,8(sp)
   1637c:	f406                	sd	ra,40(sp)
   1637e:	ec26                	sd	s1,24(sp)
   16380:	892e                	mv	s2,a1
   16382:	89aa                	mv	s3,a0
   16384:	01858813          	add	a6,a1,24
   16388:	4881                	li	a7,0
   1638a:	137d                	add	t1,t1,-1 # ffff <exit-0xe9>
   1638c:	00082783          	lw	a5,0(a6)
   16390:	0811                	add	a6,a6,4
   16392:	2885                	addw	a7,a7,1
   16394:	0067f733          	and	a4,a5,t1
   16398:	02c7073b          	mulw	a4,a4,a2
   1639c:	0107d79b          	srlw	a5,a5,0x10
   163a0:	02c787bb          	mulw	a5,a5,a2
   163a4:	9f35                	addw	a4,a4,a3
   163a6:	0107569b          	srlw	a3,a4,0x10
   163aa:	00e37733          	and	a4,t1,a4
   163ae:	9fb5                	addw	a5,a5,a3
   163b0:	0107969b          	sllw	a3,a5,0x10
   163b4:	9f35                	addw	a4,a4,a3
   163b6:	fee82e23          	sw	a4,-4(a6)
   163ba:	0107d49b          	srlw	s1,a5,0x10
   163be:	0107d69b          	srlw	a3,a5,0x10
   163c2:	fc88c5e3          	blt	a7,s0,1638c <__multadd+0x1c>
   163c6:	ce89                	beqz	a3,163e0 <__multadd+0x70>
   163c8:	00c92783          	lw	a5,12(s2)
   163cc:	02f45263          	bge	s0,a5,163f0 <__multadd+0x80>
   163d0:	00440793          	add	a5,s0,4
   163d4:	078a                	sll	a5,a5,0x2
   163d6:	97ca                	add	a5,a5,s2
   163d8:	c784                	sw	s1,8(a5)
   163da:	2405                	addw	s0,s0,1
   163dc:	00892a23          	sw	s0,20(s2)
   163e0:	70a2                	ld	ra,40(sp)
   163e2:	7402                	ld	s0,32(sp)
   163e4:	64e2                	ld	s1,24(sp)
   163e6:	69a2                	ld	s3,8(sp)
   163e8:	854a                	mv	a0,s2
   163ea:	6942                	ld	s2,16(sp)
   163ec:	6145                	add	sp,sp,48
   163ee:	8082                	ret
   163f0:	00892583          	lw	a1,8(s2)
   163f4:	854e                	mv	a0,s3
   163f6:	e052                	sd	s4,0(sp)
   163f8:	2585                	addw	a1,a1,1
   163fa:	f01ff0ef          	jal	162fa <_Balloc>
   163fe:	8a2a                	mv	s4,a0
   16400:	c121                	beqz	a0,16440 <__multadd+0xd0>
   16402:	01492603          	lw	a2,20(s2)
   16406:	01090593          	add	a1,s2,16
   1640a:	0541                	add	a0,a0,16
   1640c:	0609                	add	a2,a2,2
   1640e:	060a                	sll	a2,a2,0x2
   16410:	d0cfe0ef          	jal	1491c <memcpy>
   16414:	00892703          	lw	a4,8(s2)
   16418:	0689b783          	ld	a5,104(s3)
   1641c:	070e                	sll	a4,a4,0x3
   1641e:	97ba                	add	a5,a5,a4
   16420:	6398                	ld	a4,0(a5)
   16422:	00e93023          	sd	a4,0(s2)
   16426:	0127b023          	sd	s2,0(a5)
   1642a:	00440793          	add	a5,s0,4
   1642e:	8952                	mv	s2,s4
   16430:	078a                	sll	a5,a5,0x2
   16432:	97ca                	add	a5,a5,s2
   16434:	6a02                	ld	s4,0(sp)
   16436:	2405                	addw	s0,s0,1
   16438:	c784                	sw	s1,8(a5)
   1643a:	00892a23          	sw	s0,20(s2)
   1643e:	b74d                	j	163e0 <__multadd+0x70>
   16440:	00003697          	auipc	a3,0x3
   16444:	cd868693          	add	a3,a3,-808 # 19118 <__clzdi2+0xf4>
   16448:	4601                	li	a2,0
   1644a:	0ba00593          	li	a1,186
   1644e:	00003517          	auipc	a0,0x3
   16452:	ce250513          	add	a0,a0,-798 # 19130 <__clzdi2+0x10c>
   16456:	350010ef          	jal	177a6 <__assert_func>

000000000001645a <__s2b>:
   1645a:	7139                	add	sp,sp,-64
   1645c:	f822                	sd	s0,48(sp)
   1645e:	f426                	sd	s1,40(sp)
   16460:	f04a                	sd	s2,32(sp)
   16462:	ec4e                	sd	s3,24(sp)
   16464:	e852                	sd	s4,16(sp)
   16466:	84b6                	mv	s1,a3
   16468:	842e                	mv	s0,a1
   1646a:	26a1                	addw	a3,a3,8
   1646c:	45a5                	li	a1,9
   1646e:	fc06                	sd	ra,56(sp)
   16470:	47a5                	li	a5,9
   16472:	02b6c6bb          	divw	a3,a3,a1
   16476:	892a                	mv	s2,a0
   16478:	8a32                	mv	s4,a2
   1647a:	89ba                	mv	s3,a4
   1647c:	0a97d363          	bge	a5,s1,16522 <__s2b+0xc8>
   16480:	4785                	li	a5,1
   16482:	4581                	li	a1,0
   16484:	0017979b          	sllw	a5,a5,0x1
   16488:	2585                	addw	a1,a1,1
   1648a:	fed7cde3          	blt	a5,a3,16484 <__s2b+0x2a>
   1648e:	854a                	mv	a0,s2
   16490:	e6bff0ef          	jal	162fa <_Balloc>
   16494:	85aa                	mv	a1,a0
   16496:	c941                	beqz	a0,16526 <__s2b+0xcc>
   16498:	4785                	li	a5,1
   1649a:	c95c                	sw	a5,20(a0)
   1649c:	01352c23          	sw	s3,24(a0)
   164a0:	47a5                	li	a5,9
   164a2:	0747dd63          	bge	a5,s4,1651c <__s2b+0xc2>
   164a6:	020a1793          	sll	a5,s4,0x20
   164aa:	e05a                	sd	s6,0(sp)
   164ac:	9381                	srl	a5,a5,0x20
   164ae:	00940b13          	add	s6,s0,9
   164b2:	e456                	sd	s5,8(sp)
   164b4:	943e                	add	s0,s0,a5
   164b6:	000a0a9b          	sext.w	s5,s4
   164ba:	89da                	mv	s3,s6
   164bc:	0009c683          	lbu	a3,0(s3)
   164c0:	4629                	li	a2,10
   164c2:	854a                	mv	a0,s2
   164c4:	fd06869b          	addw	a3,a3,-48
   164c8:	ea9ff0ef          	jal	16370 <__multadd>
   164cc:	0985                	add	s3,s3,1
   164ce:	85aa                	mv	a1,a0
   164d0:	fe8996e3          	bne	s3,s0,164bc <__s2b+0x62>
   164d4:	3ae1                	addw	s5,s5,-8
   164d6:	1a82                	sll	s5,s5,0x20
   164d8:	020ada93          	srl	s5,s5,0x20
   164dc:	015b0433          	add	s0,s6,s5
   164e0:	6aa2                	ld	s5,8(sp)
   164e2:	6b02                	ld	s6,0(sp)
   164e4:	029a5363          	bge	s4,s1,1650a <__s2b+0xb0>
   164e8:	414484bb          	subw	s1,s1,s4
   164ec:	1482                	sll	s1,s1,0x20
   164ee:	9081                	srl	s1,s1,0x20
   164f0:	94a2                	add	s1,s1,s0
   164f2:	00044683          	lbu	a3,0(s0)
   164f6:	4629                	li	a2,10
   164f8:	854a                	mv	a0,s2
   164fa:	fd06869b          	addw	a3,a3,-48
   164fe:	e73ff0ef          	jal	16370 <__multadd>
   16502:	0405                	add	s0,s0,1
   16504:	85aa                	mv	a1,a0
   16506:	fe9416e3          	bne	s0,s1,164f2 <__s2b+0x98>
   1650a:	70e2                	ld	ra,56(sp)
   1650c:	7442                	ld	s0,48(sp)
   1650e:	74a2                	ld	s1,40(sp)
   16510:	7902                	ld	s2,32(sp)
   16512:	69e2                	ld	s3,24(sp)
   16514:	6a42                	ld	s4,16(sp)
   16516:	852e                	mv	a0,a1
   16518:	6121                	add	sp,sp,64
   1651a:	8082                	ret
   1651c:	0429                	add	s0,s0,10
   1651e:	4a25                	li	s4,9
   16520:	b7d1                	j	164e4 <__s2b+0x8a>
   16522:	4581                	li	a1,0
   16524:	b7ad                	j	1648e <__s2b+0x34>
   16526:	00003697          	auipc	a3,0x3
   1652a:	bf268693          	add	a3,a3,-1038 # 19118 <__clzdi2+0xf4>
   1652e:	4601                	li	a2,0
   16530:	0d300593          	li	a1,211
   16534:	00003517          	auipc	a0,0x3
   16538:	bfc50513          	add	a0,a0,-1028 # 19130 <__clzdi2+0x10c>
   1653c:	e456                	sd	s5,8(sp)
   1653e:	e05a                	sd	s6,0(sp)
   16540:	266010ef          	jal	177a6 <__assert_func>

0000000000016544 <__hi0bits>:
   16544:	87aa                	mv	a5,a0
   16546:	6741                	lui	a4,0x10
   16548:	4501                	li	a0,0
   1654a:	00e7f563          	bgeu	a5,a4,16554 <__hi0bits+0x10>
   1654e:	0107979b          	sllw	a5,a5,0x10
   16552:	4541                	li	a0,16
   16554:	01000737          	lui	a4,0x1000
   16558:	00e7f563          	bgeu	a5,a4,16562 <__hi0bits+0x1e>
   1655c:	0087979b          	sllw	a5,a5,0x8
   16560:	2521                	addw	a0,a0,8
   16562:	10000737          	lui	a4,0x10000
   16566:	00e7f563          	bgeu	a5,a4,16570 <__hi0bits+0x2c>
   1656a:	0047979b          	sllw	a5,a5,0x4
   1656e:	2511                	addw	a0,a0,4
   16570:	40000737          	lui	a4,0x40000
   16574:	00e7e663          	bltu	a5,a4,16580 <__hi0bits+0x3c>
   16578:	0207c063          	bltz	a5,16598 <__hi0bits+0x54>
   1657c:	2505                	addw	a0,a0,1
   1657e:	8082                	ret
   16580:	02279693          	sll	a3,a5,0x22
   16584:	0027971b          	sllw	a4,a5,0x2
   16588:	0006c963          	bltz	a3,1659a <__hi0bits+0x56>
   1658c:	02171793          	sll	a5,a4,0x21
   16590:	0007c763          	bltz	a5,1659e <__hi0bits+0x5a>
   16594:	02000513          	li	a0,32
   16598:	8082                	ret
   1659a:	2509                	addw	a0,a0,2
   1659c:	8082                	ret
   1659e:	250d                	addw	a0,a0,3
   165a0:	8082                	ret

00000000000165a2 <__lo0bits>:
   165a2:	411c                	lw	a5,0(a0)
   165a4:	872a                	mv	a4,a0
   165a6:	0077f693          	and	a3,a5,7
   165aa:	863e                	mv	a2,a5
   165ac:	ce81                	beqz	a3,165c4 <__lo0bits+0x22>
   165ae:	0017f693          	and	a3,a5,1
   165b2:	4501                	li	a0,0
   165b4:	ee9d                	bnez	a3,165f2 <__lo0bits+0x50>
   165b6:	8a09                	and	a2,a2,2
   165b8:	ce25                	beqz	a2,16630 <__lo0bits+0x8e>
   165ba:	0017d79b          	srlw	a5,a5,0x1
   165be:	c31c                	sw	a5,0(a4)
   165c0:	4505                	li	a0,1
   165c2:	8082                	ret
   165c4:	03079693          	sll	a3,a5,0x30
   165c8:	92c1                	srl	a3,a3,0x30
   165ca:	4501                	li	a0,0
   165cc:	cab9                	beqz	a3,16622 <__lo0bits+0x80>
   165ce:	0ff7f693          	zext.b	a3,a5
   165d2:	c2a9                	beqz	a3,16614 <__lo0bits+0x72>
   165d4:	00f7f693          	and	a3,a5,15
   165d8:	c69d                	beqz	a3,16606 <__lo0bits+0x64>
   165da:	0037f693          	and	a3,a5,3
   165de:	ce89                	beqz	a3,165f8 <__lo0bits+0x56>
   165e0:	0017f693          	and	a3,a5,1
   165e4:	ea81                	bnez	a3,165f4 <__lo0bits+0x52>
   165e6:	0017d79b          	srlw	a5,a5,0x1
   165ea:	2505                	addw	a0,a0,1
   165ec:	e781                	bnez	a5,165f4 <__lo0bits+0x52>
   165ee:	02000513          	li	a0,32
   165f2:	8082                	ret
   165f4:	c31c                	sw	a5,0(a4)
   165f6:	8082                	ret
   165f8:	0027d79b          	srlw	a5,a5,0x2
   165fc:	0017f693          	and	a3,a5,1
   16600:	2509                	addw	a0,a0,2
   16602:	faed                	bnez	a3,165f4 <__lo0bits+0x52>
   16604:	b7cd                	j	165e6 <__lo0bits+0x44>
   16606:	0047d79b          	srlw	a5,a5,0x4
   1660a:	0037f693          	and	a3,a5,3
   1660e:	2511                	addw	a0,a0,4
   16610:	fae1                	bnez	a3,165e0 <__lo0bits+0x3e>
   16612:	b7dd                	j	165f8 <__lo0bits+0x56>
   16614:	0087d79b          	srlw	a5,a5,0x8
   16618:	00f7f693          	and	a3,a5,15
   1661c:	2521                	addw	a0,a0,8
   1661e:	fed5                	bnez	a3,165da <__lo0bits+0x38>
   16620:	b7dd                	j	16606 <__lo0bits+0x64>
   16622:	0107d79b          	srlw	a5,a5,0x10
   16626:	0ff7f693          	zext.b	a3,a5
   1662a:	4541                	li	a0,16
   1662c:	f6c5                	bnez	a3,165d4 <__lo0bits+0x32>
   1662e:	b7dd                	j	16614 <__lo0bits+0x72>
   16630:	0027d79b          	srlw	a5,a5,0x2
   16634:	c31c                	sw	a5,0(a4)
   16636:	4509                	li	a0,2
   16638:	8082                	ret

000000000001663a <__i2b>:
   1663a:	753c                	ld	a5,104(a0)
   1663c:	1101                	add	sp,sp,-32
   1663e:	e822                	sd	s0,16(sp)
   16640:	e426                	sd	s1,8(sp)
   16642:	ec06                	sd	ra,24(sp)
   16644:	842a                	mv	s0,a0
   16646:	84ae                	mv	s1,a1
   16648:	cf91                	beqz	a5,16664 <__i2b+0x2a>
   1664a:	6788                	ld	a0,8(a5)
   1664c:	c129                	beqz	a0,1668e <__i2b+0x54>
   1664e:	6118                	ld	a4,0(a0)
   16650:	e798                	sd	a4,8(a5)
   16652:	60e2                	ld	ra,24(sp)
   16654:	6442                	ld	s0,16(sp)
   16656:	4785                	li	a5,1
   16658:	1782                	sll	a5,a5,0x20
   1665a:	cd04                	sw	s1,24(a0)
   1665c:	e91c                	sd	a5,16(a0)
   1665e:	64a2                	ld	s1,8(sp)
   16660:	6105                	add	sp,sp,32
   16662:	8082                	ret
   16664:	04100613          	li	a2,65
   16668:	45a1                	li	a1,8
   1666a:	188010ef          	jal	177f2 <_calloc_r>
   1666e:	f428                	sd	a0,104(s0)
   16670:	87aa                	mv	a5,a0
   16672:	fd61                	bnez	a0,1664a <__i2b+0x10>
   16674:	00003697          	auipc	a3,0x3
   16678:	aa468693          	add	a3,a3,-1372 # 19118 <__clzdi2+0xf4>
   1667c:	4601                	li	a2,0
   1667e:	14500593          	li	a1,325
   16682:	00003517          	auipc	a0,0x3
   16686:	aae50513          	add	a0,a0,-1362 # 19130 <__clzdi2+0x10c>
   1668a:	11c010ef          	jal	177a6 <__assert_func>
   1668e:	02400613          	li	a2,36
   16692:	4585                	li	a1,1
   16694:	8522                	mv	a0,s0
   16696:	15c010ef          	jal	177f2 <_calloc_r>
   1669a:	dd69                	beqz	a0,16674 <__i2b+0x3a>
   1669c:	4785                	li	a5,1
   1669e:	1786                	sll	a5,a5,0x21
   166a0:	0785                	add	a5,a5,1
   166a2:	e51c                	sd	a5,8(a0)
   166a4:	b77d                	j	16652 <__i2b+0x18>

00000000000166a6 <__multiply>:
   166a6:	7179                	add	sp,sp,-48
   166a8:	e84a                	sd	s2,16(sp)
   166aa:	e44e                	sd	s3,8(sp)
   166ac:	01462903          	lw	s2,20(a2)
   166b0:	0145a983          	lw	s3,20(a1)
   166b4:	ec26                	sd	s1,24(sp)
   166b6:	e052                	sd	s4,0(sp)
   166b8:	f406                	sd	ra,40(sp)
   166ba:	f022                	sd	s0,32(sp)
   166bc:	8a2e                	mv	s4,a1
   166be:	84b2                	mv	s1,a2
   166c0:	0129c763          	blt	s3,s2,166ce <__multiply+0x28>
   166c4:	87ca                	mv	a5,s2
   166c6:	84ae                	mv	s1,a1
   166c8:	894e                	mv	s2,s3
   166ca:	8a32                	mv	s4,a2
   166cc:	89be                	mv	s3,a5
   166ce:	44dc                	lw	a5,12(s1)
   166d0:	0139043b          	addw	s0,s2,s3
   166d4:	448c                	lw	a1,8(s1)
   166d6:	0087d363          	bge	a5,s0,166dc <__multiply+0x36>
   166da:	2585                	addw	a1,a1,1
   166dc:	c1fff0ef          	jal	162fa <_Balloc>
   166e0:	14050c63          	beqz	a0,16838 <__multiply+0x192>
   166e4:	01850313          	add	t1,a0,24
   166e8:	00241893          	sll	a7,s0,0x2
   166ec:	989a                	add	a7,a7,t1
   166ee:	879a                	mv	a5,t1
   166f0:	01137763          	bgeu	t1,a7,166fe <__multiply+0x58>
   166f4:	0007a023          	sw	zero,0(a5)
   166f8:	0791                	add	a5,a5,4
   166fa:	ff17ede3          	bltu	a5,a7,166f4 <__multiply+0x4e>
   166fe:	018a0813          	add	a6,s4,24
   16702:	00299e13          	sll	t3,s3,0x2
   16706:	01848e93          	add	t4,s1,24
   1670a:	00291593          	sll	a1,s2,0x2
   1670e:	9e42                	add	t3,t3,a6
   16710:	95f6                	add	a1,a1,t4
   16712:	0fc87a63          	bgeu	a6,t3,16806 <__multiply+0x160>
   16716:	01948793          	add	a5,s1,25
   1671a:	4f11                	li	t5,4
   1671c:	10f5f763          	bgeu	a1,a5,1682a <__multiply+0x184>
   16720:	66c1                	lui	a3,0x10
   16722:	16fd                	add	a3,a3,-1 # ffff <exit-0xe9>
   16724:	a809                	j	16736 <__multiply+0x90>
   16726:	010fdf9b          	srlw	t6,t6,0x10
   1672a:	060f9d63          	bnez	t6,167a4 <__multiply+0xfe>
   1672e:	0811                	add	a6,a6,4
   16730:	0311                	add	t1,t1,4
   16732:	0dc87a63          	bgeu	a6,t3,16806 <__multiply+0x160>
   16736:	00082f83          	lw	t6,0(a6)
   1673a:	00dff3b3          	and	t2,t6,a3
   1673e:	fe0384e3          	beqz	t2,16726 <__multiply+0x80>
   16742:	829a                	mv	t0,t1
   16744:	8ff6                	mv	t6,t4
   16746:	4481                	li	s1,0
   16748:	000fa783          	lw	a5,0(t6)
   1674c:	0002a603          	lw	a2,0(t0) # fffffffffcc00000 <__BSS_END__+0xfffffffffcbe45c8>
   16750:	0291                	add	t0,t0,4
   16752:	00d7f733          	and	a4,a5,a3
   16756:	0277073b          	mulw	a4,a4,t2
   1675a:	0107d79b          	srlw	a5,a5,0x10
   1675e:	00d67933          	and	s2,a2,a3
   16762:	0106561b          	srlw	a2,a2,0x10
   16766:	0f91                	add	t6,t6,4
   16768:	027787bb          	mulw	a5,a5,t2
   1676c:	0127073b          	addw	a4,a4,s2
   16770:	9f25                	addw	a4,a4,s1
   16772:	0107549b          	srlw	s1,a4,0x10
   16776:	8f75                	and	a4,a4,a3
   16778:	9fb1                	addw	a5,a5,a2
   1677a:	9fa5                	addw	a5,a5,s1
   1677c:	0107961b          	sllw	a2,a5,0x10
   16780:	8f51                	or	a4,a4,a2
   16782:	fee2ae23          	sw	a4,-4(t0)
   16786:	0107d49b          	srlw	s1,a5,0x10
   1678a:	0107d71b          	srlw	a4,a5,0x10
   1678e:	fabfede3          	bltu	t6,a1,16748 <__multiply+0xa2>
   16792:	01e307b3          	add	a5,t1,t5
   16796:	c398                	sw	a4,0(a5)
   16798:	00082f83          	lw	t6,0(a6)
   1679c:	010fdf9b          	srlw	t6,t6,0x10
   167a0:	f80f87e3          	beqz	t6,1672e <__multiply+0x88>
   167a4:	00032703          	lw	a4,0(t1)
   167a8:	829a                	mv	t0,t1
   167aa:	8676                	mv	a2,t4
   167ac:	83ba                	mv	t2,a4
   167ae:	4481                	li	s1,0
   167b0:	421c                	lw	a5,0(a2)
   167b2:	0103d99b          	srlw	s3,t2,0x10
   167b6:	8f75                	and	a4,a4,a3
   167b8:	8ff5                	and	a5,a5,a3
   167ba:	03f787bb          	mulw	a5,a5,t6
   167be:	0042a383          	lw	t2,4(t0)
   167c2:	0291                	add	t0,t0,4
   167c4:	0611                	add	a2,a2,4
   167c6:	00d3f933          	and	s2,t2,a3
   167ca:	9fa5                	addw	a5,a5,s1
   167cc:	013787bb          	addw	a5,a5,s3
   167d0:	0107949b          	sllw	s1,a5,0x10
   167d4:	8f45                	or	a4,a4,s1
   167d6:	fee2ae23          	sw	a4,-4(t0)
   167da:	ffe65703          	lhu	a4,-2(a2)
   167de:	0107d79b          	srlw	a5,a5,0x10
   167e2:	03f7073b          	mulw	a4,a4,t6
   167e6:	0127073b          	addw	a4,a4,s2
   167ea:	9fb9                	addw	a5,a5,a4
   167ec:	0007871b          	sext.w	a4,a5
   167f0:	0107d49b          	srlw	s1,a5,0x10
   167f4:	fab66ee3          	bltu	a2,a1,167b0 <__multiply+0x10a>
   167f8:	01e30733          	add	a4,t1,t5
   167fc:	c31c                	sw	a5,0(a4)
   167fe:	0811                	add	a6,a6,4
   16800:	0311                	add	t1,t1,4
   16802:	f3c86ae3          	bltu	a6,t3,16736 <__multiply+0x90>
   16806:	00804563          	bgtz	s0,16810 <__multiply+0x16a>
   1680a:	a039                	j	16818 <__multiply+0x172>
   1680c:	347d                	addw	s0,s0,-1
   1680e:	c409                	beqz	s0,16818 <__multiply+0x172>
   16810:	ffc8a783          	lw	a5,-4(a7)
   16814:	18f1                	add	a7,a7,-4
   16816:	dbfd                	beqz	a5,1680c <__multiply+0x166>
   16818:	70a2                	ld	ra,40(sp)
   1681a:	c940                	sw	s0,20(a0)
   1681c:	7402                	ld	s0,32(sp)
   1681e:	64e2                	ld	s1,24(sp)
   16820:	6942                	ld	s2,16(sp)
   16822:	69a2                	ld	s3,8(sp)
   16824:	6a02                	ld	s4,0(sp)
   16826:	6145                	add	sp,sp,48
   16828:	8082                	ret
   1682a:	409587b3          	sub	a5,a1,s1
   1682e:	179d                	add	a5,a5,-25
   16830:	9bf1                	and	a5,a5,-4
   16832:	00478f13          	add	t5,a5,4
   16836:	b5ed                	j	16720 <__multiply+0x7a>
   16838:	00003697          	auipc	a3,0x3
   1683c:	8e068693          	add	a3,a3,-1824 # 19118 <__clzdi2+0xf4>
   16840:	4601                	li	a2,0
   16842:	16200593          	li	a1,354
   16846:	00003517          	auipc	a0,0x3
   1684a:	8ea50513          	add	a0,a0,-1814 # 19130 <__clzdi2+0x10c>
   1684e:	759000ef          	jal	177a6 <__assert_func>

0000000000016852 <__pow5mult>:
   16852:	7179                	add	sp,sp,-48
   16854:	f022                	sd	s0,32(sp)
   16856:	e84a                	sd	s2,16(sp)
   16858:	e44e                	sd	s3,8(sp)
   1685a:	f406                	sd	ra,40(sp)
   1685c:	00367793          	and	a5,a2,3
   16860:	8432                	mv	s0,a2
   16862:	89aa                	mv	s3,a0
   16864:	892e                	mv	s2,a1
   16866:	ebad                	bnez	a5,168d8 <__pow5mult+0x86>
   16868:	8409                	sra	s0,s0,0x2
   1686a:	c431                	beqz	s0,168b6 <__pow5mult+0x64>
   1686c:	ec26                	sd	s1,24(sp)
   1686e:	0609b483          	ld	s1,96(s3)
   16872:	c0c1                	beqz	s1,168f2 <__pow5mult+0xa0>
   16874:	00147793          	and	a5,s0,1
   16878:	eb89                	bnez	a5,1688a <__pow5mult+0x38>
   1687a:	8405                	sra	s0,s0,0x1
   1687c:	cc05                	beqz	s0,168b4 <__pow5mult+0x62>
   1687e:	6088                	ld	a0,0(s1)
   16880:	c131                	beqz	a0,168c4 <__pow5mult+0x72>
   16882:	84aa                	mv	s1,a0
   16884:	00147793          	and	a5,s0,1
   16888:	dbed                	beqz	a5,1687a <__pow5mult+0x28>
   1688a:	8626                	mv	a2,s1
   1688c:	85ca                	mv	a1,s2
   1688e:	854e                	mv	a0,s3
   16890:	e17ff0ef          	jal	166a6 <__multiply>
   16894:	00090d63          	beqz	s2,168ae <__pow5mult+0x5c>
   16898:	00892703          	lw	a4,8(s2)
   1689c:	0689b783          	ld	a5,104(s3)
   168a0:	070e                	sll	a4,a4,0x3
   168a2:	97ba                	add	a5,a5,a4
   168a4:	6398                	ld	a4,0(a5)
   168a6:	00e93023          	sd	a4,0(s2)
   168aa:	0127b023          	sd	s2,0(a5)
   168ae:	8405                	sra	s0,s0,0x1
   168b0:	892a                	mv	s2,a0
   168b2:	f471                	bnez	s0,1687e <__pow5mult+0x2c>
   168b4:	64e2                	ld	s1,24(sp)
   168b6:	70a2                	ld	ra,40(sp)
   168b8:	7402                	ld	s0,32(sp)
   168ba:	69a2                	ld	s3,8(sp)
   168bc:	854a                	mv	a0,s2
   168be:	6942                	ld	s2,16(sp)
   168c0:	6145                	add	sp,sp,48
   168c2:	8082                	ret
   168c4:	8626                	mv	a2,s1
   168c6:	85a6                	mv	a1,s1
   168c8:	854e                	mv	a0,s3
   168ca:	dddff0ef          	jal	166a6 <__multiply>
   168ce:	e088                	sd	a0,0(s1)
   168d0:	00053023          	sd	zero,0(a0)
   168d4:	84aa                	mv	s1,a0
   168d6:	b77d                	j	16884 <__pow5mult+0x32>
   168d8:	37fd                	addw	a5,a5,-1
   168da:	00003717          	auipc	a4,0x3
   168de:	c8e70713          	add	a4,a4,-882 # 19568 <p05.0>
   168e2:	078a                	sll	a5,a5,0x2
   168e4:	97ba                	add	a5,a5,a4
   168e6:	4390                	lw	a2,0(a5)
   168e8:	4681                	li	a3,0
   168ea:	a87ff0ef          	jal	16370 <__multadd>
   168ee:	892a                	mv	s2,a0
   168f0:	bfa5                	j	16868 <__pow5mult+0x16>
   168f2:	4585                	li	a1,1
   168f4:	854e                	mv	a0,s3
   168f6:	a05ff0ef          	jal	162fa <_Balloc>
   168fa:	84aa                	mv	s1,a0
   168fc:	c919                	beqz	a0,16912 <__pow5mult+0xc0>
   168fe:	27100793          	li	a5,625
   16902:	cd1c                	sw	a5,24(a0)
   16904:	4785                	li	a5,1
   16906:	c95c                	sw	a5,20(a0)
   16908:	06a9b023          	sd	a0,96(s3)
   1690c:	00053023          	sd	zero,0(a0)
   16910:	b795                	j	16874 <__pow5mult+0x22>
   16912:	00003697          	auipc	a3,0x3
   16916:	80668693          	add	a3,a3,-2042 # 19118 <__clzdi2+0xf4>
   1691a:	4601                	li	a2,0
   1691c:	14500593          	li	a1,325
   16920:	00003517          	auipc	a0,0x3
   16924:	81050513          	add	a0,a0,-2032 # 19130 <__clzdi2+0x10c>
   16928:	67f000ef          	jal	177a6 <__assert_func>

000000000001692c <__lshift>:
   1692c:	7139                	add	sp,sp,-64
   1692e:	f822                	sd	s0,48(sp)
   16930:	49c0                	lw	s0,20(a1)
   16932:	45dc                	lw	a5,12(a1)
   16934:	e456                	sd	s5,8(sp)
   16936:	40565a9b          	sraw	s5,a2,0x5
   1693a:	008a843b          	addw	s0,s5,s0
   1693e:	f426                	sd	s1,40(sp)
   16940:	f04a                	sd	s2,32(sp)
   16942:	ec4e                	sd	s3,24(sp)
   16944:	e852                	sd	s4,16(sp)
   16946:	e05a                	sd	s6,0(sp)
   16948:	fc06                	sd	ra,56(sp)
   1694a:	0014091b          	addw	s2,s0,1
   1694e:	84ae                	mv	s1,a1
   16950:	8a32                	mv	s4,a2
   16952:	458c                	lw	a1,8(a1)
   16954:	89aa                	mv	s3,a0
   16956:	40565b13          	sra	s6,a2,0x5
   1695a:	0127d763          	bge	a5,s2,16968 <__lshift+0x3c>
   1695e:	0017979b          	sllw	a5,a5,0x1
   16962:	2585                	addw	a1,a1,1
   16964:	ff27cde3          	blt	a5,s2,1695e <__lshift+0x32>
   16968:	854e                	mv	a0,s3
   1696a:	991ff0ef          	jal	162fa <_Balloc>
   1696e:	c571                	beqz	a0,16a3a <__lshift+0x10e>
   16970:	01850713          	add	a4,a0,24
   16974:	03605163          	blez	s6,16996 <__lshift+0x6a>
   16978:	006a869b          	addw	a3,s5,6
   1697c:	068a                	sll	a3,a3,0x2
   1697e:	96aa                	add	a3,a3,a0
   16980:	87ba                	mv	a5,a4
   16982:	0791                	add	a5,a5,4
   16984:	fe07ae23          	sw	zero,-4(a5)
   16988:	fed79de3          	bne	a5,a3,16982 <__lshift+0x56>
   1698c:	020a9793          	sll	a5,s5,0x20
   16990:	01e7da93          	srl	s5,a5,0x1e
   16994:	9756                	add	a4,a4,s5
   16996:	0144a883          	lw	a7,20(s1)
   1699a:	01848793          	add	a5,s1,24
   1699e:	01fa7613          	and	a2,s4,31
   169a2:	088a                	sll	a7,a7,0x2
   169a4:	98be                	add	a7,a7,a5
   169a6:	ca3d                	beqz	a2,16a1c <__lshift+0xf0>
   169a8:	02000593          	li	a1,32
   169ac:	9d91                	subw	a1,a1,a2
   169ae:	833a                	mv	t1,a4
   169b0:	4681                	li	a3,0
   169b2:	0007a803          	lw	a6,0(a5)
   169b6:	0311                	add	t1,t1,4
   169b8:	0791                	add	a5,a5,4
   169ba:	00c8183b          	sllw	a6,a6,a2
   169be:	0106e6b3          	or	a3,a3,a6
   169c2:	fed32e23          	sw	a3,-4(t1)
   169c6:	ffc7a803          	lw	a6,-4(a5)
   169ca:	00b856bb          	srlw	a3,a6,a1
   169ce:	8836                	mv	a6,a3
   169d0:	ff17e1e3          	bltu	a5,a7,169b2 <__lshift+0x86>
   169d4:	01948793          	add	a5,s1,25
   169d8:	4611                	li	a2,4
   169da:	00f8e863          	bltu	a7,a5,169ea <__lshift+0xbe>
   169de:	409887b3          	sub	a5,a7,s1
   169e2:	179d                	add	a5,a5,-25
   169e4:	9bf1                	and	a5,a5,-4
   169e6:	00478613          	add	a2,a5,4
   169ea:	9732                	add	a4,a4,a2
   169ec:	01072023          	sw	a6,0(a4)
   169f0:	e291                	bnez	a3,169f4 <__lshift+0xc8>
   169f2:	8922                	mv	s2,s0
   169f4:	4498                	lw	a4,8(s1)
   169f6:	0689b783          	ld	a5,104(s3)
   169fa:	70e2                	ld	ra,56(sp)
   169fc:	070e                	sll	a4,a4,0x3
   169fe:	97ba                	add	a5,a5,a4
   16a00:	6398                	ld	a4,0(a5)
   16a02:	01252a23          	sw	s2,20(a0)
   16a06:	7442                	ld	s0,48(sp)
   16a08:	e098                	sd	a4,0(s1)
   16a0a:	e384                	sd	s1,0(a5)
   16a0c:	7902                	ld	s2,32(sp)
   16a0e:	74a2                	ld	s1,40(sp)
   16a10:	69e2                	ld	s3,24(sp)
   16a12:	6a42                	ld	s4,16(sp)
   16a14:	6aa2                	ld	s5,8(sp)
   16a16:	6b02                	ld	s6,0(sp)
   16a18:	6121                	add	sp,sp,64
   16a1a:	8082                	ret
   16a1c:	4394                	lw	a3,0(a5)
   16a1e:	0791                	add	a5,a5,4
   16a20:	0711                	add	a4,a4,4
   16a22:	fed72e23          	sw	a3,-4(a4)
   16a26:	fd17f6e3          	bgeu	a5,a7,169f2 <__lshift+0xc6>
   16a2a:	4394                	lw	a3,0(a5)
   16a2c:	0791                	add	a5,a5,4
   16a2e:	0711                	add	a4,a4,4
   16a30:	fed72e23          	sw	a3,-4(a4)
   16a34:	ff17e4e3          	bltu	a5,a7,16a1c <__lshift+0xf0>
   16a38:	bf6d                	j	169f2 <__lshift+0xc6>
   16a3a:	00002697          	auipc	a3,0x2
   16a3e:	6de68693          	add	a3,a3,1758 # 19118 <__clzdi2+0xf4>
   16a42:	4601                	li	a2,0
   16a44:	1de00593          	li	a1,478
   16a48:	00002517          	auipc	a0,0x2
   16a4c:	6e850513          	add	a0,a0,1768 # 19130 <__clzdi2+0x10c>
   16a50:	557000ef          	jal	177a6 <__assert_func>

0000000000016a54 <__mcmp>:
   16a54:	49dc                	lw	a5,20(a1)
   16a56:	882a                	mv	a6,a0
   16a58:	4948                	lw	a0,20(a0)
   16a5a:	9d1d                	subw	a0,a0,a5
   16a5c:	e51d                	bnez	a0,16a8a <__mcmp+0x36>
   16a5e:	078a                	sll	a5,a5,0x2
   16a60:	0861                	add	a6,a6,24
   16a62:	05e1                	add	a1,a1,24
   16a64:	00f80733          	add	a4,a6,a5
   16a68:	97ae                	add	a5,a5,a1
   16a6a:	a019                	j	16a70 <__mcmp+0x1c>
   16a6c:	00e87f63          	bgeu	a6,a4,16a8a <__mcmp+0x36>
   16a70:	ffc72603          	lw	a2,-4(a4)
   16a74:	ffc7a683          	lw	a3,-4(a5)
   16a78:	1771                	add	a4,a4,-4
   16a7a:	17f1                	add	a5,a5,-4
   16a7c:	fed608e3          	beq	a2,a3,16a6c <__mcmp+0x18>
   16a80:	4505                	li	a0,1
   16a82:	00d67463          	bgeu	a2,a3,16a8a <__mcmp+0x36>
   16a86:	557d                	li	a0,-1
   16a88:	8082                	ret
   16a8a:	8082                	ret

0000000000016a8c <__mdiff>:
   16a8c:	49d8                	lw	a4,20(a1)
   16a8e:	4a5c                	lw	a5,20(a2)
   16a90:	1101                	add	sp,sp,-32
   16a92:	e822                	sd	s0,16(sp)
   16a94:	e426                	sd	s1,8(sp)
   16a96:	ec06                	sd	ra,24(sp)
   16a98:	e04a                	sd	s2,0(sp)
   16a9a:	9f1d                	subw	a4,a4,a5
   16a9c:	842e                	mv	s0,a1
   16a9e:	84b2                	mv	s1,a2
   16aa0:	14071063          	bnez	a4,16be0 <__mdiff+0x154>
   16aa4:	00279693          	sll	a3,a5,0x2
   16aa8:	01858613          	add	a2,a1,24
   16aac:	01848713          	add	a4,s1,24
   16ab0:	00d607b3          	add	a5,a2,a3
   16ab4:	9736                	add	a4,a4,a3
   16ab6:	a019                	j	16abc <__mdiff+0x30>
   16ab8:	12f67c63          	bgeu	a2,a5,16bf0 <__mdiff+0x164>
   16abc:	ffc7a583          	lw	a1,-4(a5)
   16ac0:	ffc72683          	lw	a3,-4(a4)
   16ac4:	17f1                	add	a5,a5,-4
   16ac6:	1771                	add	a4,a4,-4
   16ac8:	fed588e3          	beq	a1,a3,16ab8 <__mdiff+0x2c>
   16acc:	4905                	li	s2,1
   16ace:	00d5e663          	bltu	a1,a3,16ada <__mdiff+0x4e>
   16ad2:	87a6                	mv	a5,s1
   16ad4:	4901                	li	s2,0
   16ad6:	84a2                	mv	s1,s0
   16ad8:	843e                	mv	s0,a5
   16ada:	448c                	lw	a1,8(s1)
   16adc:	81fff0ef          	jal	162fa <_Balloc>
   16ae0:	12050f63          	beqz	a0,16c1e <__mdiff+0x192>
   16ae4:	0144a303          	lw	t1,20(s1)
   16ae8:	01442283          	lw	t0,20(s0)
   16aec:	01848f13          	add	t5,s1,24
   16af0:	00231e13          	sll	t3,t1,0x2
   16af4:	01840813          	add	a6,s0,24
   16af8:	028a                	sll	t0,t0,0x2
   16afa:	01850f93          	add	t6,a0,24
   16afe:	68c1                	lui	a7,0x10
   16b00:	01252823          	sw	s2,16(a0)
   16b04:	9e7a                	add	t3,t3,t5
   16b06:	92c2                	add	t0,t0,a6
   16b08:	85fe                	mv	a1,t6
   16b0a:	8efa                	mv	t4,t5
   16b0c:	4601                	li	a2,0
   16b0e:	18fd                	add	a7,a7,-1 # ffff <exit-0xe9>
   16b10:	000ea703          	lw	a4,0(t4)
   16b14:	00082683          	lw	a3,0(a6)
   16b18:	0591                	add	a1,a1,4
   16b1a:	011777b3          	and	a5,a4,a7
   16b1e:	0116f3b3          	and	t2,a3,a7
   16b22:	407787bb          	subw	a5,a5,t2
   16b26:	9fb1                	addw	a5,a5,a2
   16b28:	0106d69b          	srlw	a3,a3,0x10
   16b2c:	0107571b          	srlw	a4,a4,0x10
   16b30:	9f15                	subw	a4,a4,a3
   16b32:	4107d69b          	sraw	a3,a5,0x10
   16b36:	9f35                	addw	a4,a4,a3
   16b38:	00f8f7b3          	and	a5,a7,a5
   16b3c:	0107169b          	sllw	a3,a4,0x10
   16b40:	8fd5                	or	a5,a5,a3
   16b42:	2781                	sext.w	a5,a5
   16b44:	0811                	add	a6,a6,4
   16b46:	fef5ae23          	sw	a5,-4(a1)
   16b4a:	0e91                	add	t4,t4,4
   16b4c:	4107561b          	sraw	a2,a4,0x10
   16b50:	fc5860e3          	bltu	a6,t0,16b10 <__mdiff+0x84>
   16b54:	01940713          	add	a4,s0,25
   16b58:	40828433          	sub	s0,t0,s0
   16b5c:	141d                	add	s0,s0,-25
   16b5e:	00e2b2b3          	sltu	t0,t0,a4
   16b62:	0012c893          	xor	a7,t0,1
   16b66:	8009                	srl	s0,s0,0x2
   16b68:	4711                	li	a4,4
   16b6a:	06028f63          	beqz	t0,16be8 <__mdiff+0x15c>
   16b6e:	9f3a                	add	t5,t5,a4
   16b70:	00ef8eb3          	add	t4,t6,a4
   16b74:	6841                	lui	a6,0x10
   16b76:	85f6                	mv	a1,t4
   16b78:	86fa                	mv	a3,t5
   16b7a:	187d                	add	a6,a6,-1 # ffff <exit-0xe9>
   16b7c:	09cf7863          	bgeu	t5,t3,16c0c <__mdiff+0x180>
   16b80:	429c                	lw	a5,0(a3)
   16b82:	0006089b          	sext.w	a7,a2
   16b86:	0591                	add	a1,a1,4
   16b88:	0107f733          	and	a4,a5,a6
   16b8c:	9f31                	addw	a4,a4,a2
   16b8e:	4107571b          	sraw	a4,a4,0x10
   16b92:	0107d61b          	srlw	a2,a5,0x10
   16b96:	9f31                	addw	a4,a4,a2
   16b98:	011787bb          	addw	a5,a5,a7
   16b9c:	0107161b          	sllw	a2,a4,0x10
   16ba0:	0107f7b3          	and	a5,a5,a6
   16ba4:	8fd1                	or	a5,a5,a2
   16ba6:	2781                	sext.w	a5,a5
   16ba8:	0691                	add	a3,a3,4
   16baa:	fef5ae23          	sw	a5,-4(a1)
   16bae:	4107561b          	sraw	a2,a4,0x10
   16bb2:	fdc6e7e3          	bltu	a3,t3,16b80 <__mdiff+0xf4>
   16bb6:	1e7d                	add	t3,t3,-1
   16bb8:	41ee0e33          	sub	t3,t3,t5
   16bbc:	ffce7e13          	and	t3,t3,-4
   16bc0:	01ce8733          	add	a4,t4,t3
   16bc4:	e791                	bnez	a5,16bd0 <__mdiff+0x144>
   16bc6:	ffc72783          	lw	a5,-4(a4)
   16bca:	337d                	addw	t1,t1,-1
   16bcc:	1771                	add	a4,a4,-4
   16bce:	dfe5                	beqz	a5,16bc6 <__mdiff+0x13a>
   16bd0:	60e2                	ld	ra,24(sp)
   16bd2:	6442                	ld	s0,16(sp)
   16bd4:	00652a23          	sw	t1,20(a0)
   16bd8:	64a2                	ld	s1,8(sp)
   16bda:	6902                	ld	s2,0(sp)
   16bdc:	6105                	add	sp,sp,32
   16bde:	8082                	ret
   16be0:	4905                	li	s2,1
   16be2:	ee0758e3          	bgez	a4,16ad2 <__mdiff+0x46>
   16be6:	bdd5                	j	16ada <__mdiff+0x4e>
   16be8:	00140713          	add	a4,s0,1
   16bec:	070a                	sll	a4,a4,0x2
   16bee:	b741                	j	16b6e <__mdiff+0xe2>
   16bf0:	4581                	li	a1,0
   16bf2:	f08ff0ef          	jal	162fa <_Balloc>
   16bf6:	c129                	beqz	a0,16c38 <__mdiff+0x1ac>
   16bf8:	60e2                	ld	ra,24(sp)
   16bfa:	6442                	ld	s0,16(sp)
   16bfc:	4785                	li	a5,1
   16bfe:	c95c                	sw	a5,20(a0)
   16c00:	00052c23          	sw	zero,24(a0)
   16c04:	64a2                	ld	s1,8(sp)
   16c06:	6902                	ld	s2,0(sp)
   16c08:	6105                	add	sp,sp,32
   16c0a:	8082                	ret
   16c0c:	4701                	li	a4,0
   16c0e:	00089463          	bnez	a7,16c16 <__mdiff+0x18a>
   16c12:	977e                	add	a4,a4,t6
   16c14:	bf45                	j	16bc4 <__mdiff+0x138>
   16c16:	00241713          	sll	a4,s0,0x2
   16c1a:	977e                	add	a4,a4,t6
   16c1c:	b765                	j	16bc4 <__mdiff+0x138>
   16c1e:	00002697          	auipc	a3,0x2
   16c22:	4fa68693          	add	a3,a3,1274 # 19118 <__clzdi2+0xf4>
   16c26:	4601                	li	a2,0
   16c28:	24500593          	li	a1,581
   16c2c:	00002517          	auipc	a0,0x2
   16c30:	50450513          	add	a0,a0,1284 # 19130 <__clzdi2+0x10c>
   16c34:	373000ef          	jal	177a6 <__assert_func>
   16c38:	00002697          	auipc	a3,0x2
   16c3c:	4e068693          	add	a3,a3,1248 # 19118 <__clzdi2+0xf4>
   16c40:	4601                	li	a2,0
   16c42:	23700593          	li	a1,567
   16c46:	00002517          	auipc	a0,0x2
   16c4a:	4ea50513          	add	a0,a0,1258 # 19130 <__clzdi2+0x10c>
   16c4e:	359000ef          	jal	177a6 <__assert_func>

0000000000016c52 <__ulp>:
   16c52:	e2050753          	fmv.x.d	a4,fa0
   16c56:	7ff007b7          	lui	a5,0x7ff00
   16c5a:	9301                	srl	a4,a4,0x20
   16c5c:	8f7d                	and	a4,a4,a5
   16c5e:	fcc007b7          	lui	a5,0xfcc00
   16c62:	00e786bb          	addw	a3,a5,a4
   16c66:	4701                	li	a4,0
   16c68:	00d05963          	blez	a3,16c7a <__ulp+0x28>
   16c6c:	1702                	sll	a4,a4,0x20
   16c6e:	1682                	sll	a3,a3,0x20
   16c70:	9301                	srl	a4,a4,0x20
   16c72:	8f55                	or	a4,a4,a3
   16c74:	f2070553          	fmv.d.x	fa0,a4
   16c78:	8082                	ret
   16c7a:	40d007bb          	negw	a5,a3
   16c7e:	4147d71b          	sraw	a4,a5,0x14
   16c82:	46cd                	li	a3,19
   16c84:	00e6ce63          	blt	a3,a4,16ca0 <__ulp+0x4e>
   16c88:	000806b7          	lui	a3,0x80
   16c8c:	40e6d6bb          	sraw	a3,a3,a4
   16c90:	4701                	li	a4,0
   16c92:	1702                	sll	a4,a4,0x20
   16c94:	1682                	sll	a3,a3,0x20
   16c96:	9301                	srl	a4,a4,0x20
   16c98:	8f55                	or	a4,a4,a3
   16c9a:	f2070553          	fmv.d.x	fa0,a4
   16c9e:	8082                	ret
   16ca0:	fec7079b          	addw	a5,a4,-20
   16ca4:	46f9                	li	a3,30
   16ca6:	4705                	li	a4,1
   16ca8:	00f6c663          	blt	a3,a5,16cb4 <__ulp+0x62>
   16cac:	80000737          	lui	a4,0x80000
   16cb0:	00f7573b          	srlw	a4,a4,a5
   16cb4:	4681                	li	a3,0
   16cb6:	1702                	sll	a4,a4,0x20
   16cb8:	1682                	sll	a3,a3,0x20
   16cba:	9301                	srl	a4,a4,0x20
   16cbc:	8f55                	or	a4,a4,a3
   16cbe:	f2070553          	fmv.d.x	fa0,a4
   16cc2:	8082                	ret

0000000000016cc4 <__b2d>:
   16cc4:	7179                	add	sp,sp,-48
   16cc6:	ec26                	sd	s1,24(sp)
   16cc8:	4944                	lw	s1,20(a0)
   16cca:	f022                	sd	s0,32(sp)
   16ccc:	01850413          	add	s0,a0,24
   16cd0:	048a                	sll	s1,s1,0x2
   16cd2:	94a2                	add	s1,s1,s0
   16cd4:	e84a                	sd	s2,16(sp)
   16cd6:	ffc4a903          	lw	s2,-4(s1)
   16cda:	e44e                	sd	s3,8(sp)
   16cdc:	e052                	sd	s4,0(sp)
   16cde:	854a                	mv	a0,s2
   16ce0:	89ae                	mv	s3,a1
   16ce2:	f406                	sd	ra,40(sp)
   16ce4:	861ff0ef          	jal	16544 <__hi0bits>
   16ce8:	02000693          	li	a3,32
   16cec:	40a687bb          	subw	a5,a3,a0
   16cf0:	00f9a023          	sw	a5,0(s3)
   16cf4:	47a9                	li	a5,10
   16cf6:	ffc48a13          	add	s4,s1,-4
   16cfa:	08a7d563          	bge	a5,a0,16d84 <__b2d+0xc0>
   16cfe:	ff55079b          	addw	a5,a0,-11
   16d02:	05447163          	bgeu	s0,s4,16d44 <__b2d+0x80>
   16d06:	ff84a703          	lw	a4,-8(s1)
   16d0a:	cba9                	beqz	a5,16d5c <__b2d+0x98>
   16d0c:	9e9d                	subw	a3,a3,a5
   16d0e:	00d7563b          	srlw	a2,a4,a3
   16d12:	00f9193b          	sllw	s2,s2,a5
   16d16:	00c96933          	or	s2,s2,a2
   16d1a:	3ff00637          	lui	a2,0x3ff00
   16d1e:	00c96933          	or	s2,s2,a2
   16d22:	00f715bb          	sllw	a1,a4,a5
   16d26:	ff848613          	add	a2,s1,-8
   16d2a:	02091793          	sll	a5,s2,0x20
   16d2e:	0005871b          	sext.w	a4,a1
   16d32:	02c47a63          	bgeu	s0,a2,16d66 <__b2d+0xa2>
   16d36:	ff44a703          	lw	a4,-12(s1)
   16d3a:	00d7573b          	srlw	a4,a4,a3
   16d3e:	8f4d                	or	a4,a4,a1
   16d40:	2701                	sext.w	a4,a4
   16d42:	a015                	j	16d66 <__b2d+0xa2>
   16d44:	472d                	li	a4,11
   16d46:	00e50a63          	beq	a0,a4,16d5a <__b2d+0x96>
   16d4a:	3ff00737          	lui	a4,0x3ff00
   16d4e:	00f917bb          	sllw	a5,s2,a5
   16d52:	8fd9                	or	a5,a5,a4
   16d54:	1782                	sll	a5,a5,0x20
   16d56:	4701                	li	a4,0
   16d58:	a039                	j	16d66 <__b2d+0xa2>
   16d5a:	4701                	li	a4,0
   16d5c:	3ff007b7          	lui	a5,0x3ff00
   16d60:	00f967b3          	or	a5,s2,a5
   16d64:	1782                	sll	a5,a5,0x20
   16d66:	70a2                	ld	ra,40(sp)
   16d68:	7402                	ld	s0,32(sp)
   16d6a:	9381                	srl	a5,a5,0x20
   16d6c:	1702                	sll	a4,a4,0x20
   16d6e:	9301                	srl	a4,a4,0x20
   16d70:	1782                	sll	a5,a5,0x20
   16d72:	8fd9                	or	a5,a5,a4
   16d74:	64e2                	ld	s1,24(sp)
   16d76:	6942                	ld	s2,16(sp)
   16d78:	69a2                	ld	s3,8(sp)
   16d7a:	6a02                	ld	s4,0(sp)
   16d7c:	f2078553          	fmv.d.x	fa0,a5
   16d80:	6145                	add	sp,sp,48
   16d82:	8082                	ret
   16d84:	46ad                	li	a3,11
   16d86:	9e89                	subw	a3,a3,a0
   16d88:	3ff00737          	lui	a4,0x3ff00
   16d8c:	00d957bb          	srlw	a5,s2,a3
   16d90:	8fd9                	or	a5,a5,a4
   16d92:	1782                	sll	a5,a5,0x20
   16d94:	4701                	li	a4,0
   16d96:	01447663          	bgeu	s0,s4,16da2 <__b2d+0xde>
   16d9a:	ff84a703          	lw	a4,-8(s1)
   16d9e:	00d7573b          	srlw	a4,a4,a3
   16da2:	2555                	addw	a0,a0,21
   16da4:	00a9153b          	sllw	a0,s2,a0
   16da8:	8f49                	or	a4,a4,a0
   16daa:	2701                	sext.w	a4,a4
   16dac:	bf6d                	j	16d66 <__b2d+0xa2>

0000000000016dae <__d2b>:
   16dae:	7139                	add	sp,sp,-64
   16db0:	e852                	sd	s4,16(sp)
   16db2:	8a2e                	mv	s4,a1
   16db4:	4585                	li	a1,1
   16db6:	f822                	sd	s0,48(sp)
   16db8:	f04a                	sd	s2,32(sp)
   16dba:	fc06                	sd	ra,56(sp)
   16dbc:	f426                	sd	s1,40(sp)
   16dbe:	ec4e                	sd	s3,24(sp)
   16dc0:	e2050453          	fmv.x.d	s0,fa0
   16dc4:	8932                	mv	s2,a2
   16dc6:	d34ff0ef          	jal	162fa <_Balloc>
   16dca:	c955                	beqz	a0,16e7e <__d2b+0xd0>
   16dcc:	42045793          	sra	a5,s0,0x20
   16dd0:	0147d99b          	srlw	s3,a5,0x14
   16dd4:	7ff9f993          	and	s3,s3,2047
   16dd8:	17b2                	sll	a5,a5,0x2c
   16dda:	84aa                	mv	s1,a0
   16ddc:	93b1                	srl	a5,a5,0x2c
   16dde:	00098563          	beqz	s3,16de8 <__d2b+0x3a>
   16de2:	00100737          	lui	a4,0x100
   16de6:	8fd9                	or	a5,a5,a4
   16de8:	c63e                	sw	a5,12(sp)
   16dea:	2401                	sext.w	s0,s0
   16dec:	e029                	bnez	s0,16e2e <__d2b+0x80>
   16dee:	0068                	add	a0,sp,12
   16df0:	fb2ff0ef          	jal	165a2 <__lo0bits>
   16df4:	47b2                	lw	a5,12(sp)
   16df6:	4405                	li	s0,1
   16df8:	c8c0                	sw	s0,20(s1)
   16dfa:	cc9c                	sw	a5,24(s1)
   16dfc:	0205051b          	addw	a0,a0,32
   16e00:	06098063          	beqz	s3,16e60 <__d2b+0xb2>
   16e04:	bcd9899b          	addw	s3,s3,-1075
   16e08:	00a989bb          	addw	s3,s3,a0
   16e0c:	03500413          	li	s0,53
   16e10:	013a2023          	sw	s3,0(s4)
   16e14:	40a4053b          	subw	a0,s0,a0
   16e18:	70e2                	ld	ra,56(sp)
   16e1a:	7442                	ld	s0,48(sp)
   16e1c:	00a92023          	sw	a0,0(s2)
   16e20:	69e2                	ld	s3,24(sp)
   16e22:	7902                	ld	s2,32(sp)
   16e24:	6a42                	ld	s4,16(sp)
   16e26:	8526                	mv	a0,s1
   16e28:	74a2                	ld	s1,40(sp)
   16e2a:	6121                	add	sp,sp,64
   16e2c:	8082                	ret
   16e2e:	0028                	add	a0,sp,8
   16e30:	c422                	sw	s0,8(sp)
   16e32:	f70ff0ef          	jal	165a2 <__lo0bits>
   16e36:	47b2                	lw	a5,12(sp)
   16e38:	4722                	lw	a4,8(sp)
   16e3a:	c919                	beqz	a0,16e50 <__d2b+0xa2>
   16e3c:	02000693          	li	a3,32
   16e40:	9e89                	subw	a3,a3,a0
   16e42:	00d796bb          	sllw	a3,a5,a3
   16e46:	8f55                	or	a4,a4,a3
   16e48:	00a7d7bb          	srlw	a5,a5,a0
   16e4c:	2701                	sext.w	a4,a4
   16e4e:	c63e                	sw	a5,12(sp)
   16e50:	00f03433          	snez	s0,a5
   16e54:	0405                	add	s0,s0,1
   16e56:	cc98                	sw	a4,24(s1)
   16e58:	ccdc                	sw	a5,28(s1)
   16e5a:	c8c0                	sw	s0,20(s1)
   16e5c:	fa0994e3          	bnez	s3,16e04 <__d2b+0x56>
   16e60:	bce5051b          	addw	a0,a0,-1074
   16e64:	00241793          	sll	a5,s0,0x2
   16e68:	00aa2023          	sw	a0,0(s4)
   16e6c:	97a6                	add	a5,a5,s1
   16e6e:	4bc8                	lw	a0,20(a5)
   16e70:	0054141b          	sllw	s0,s0,0x5
   16e74:	ed0ff0ef          	jal	16544 <__hi0bits>
   16e78:	40a4053b          	subw	a0,s0,a0
   16e7c:	bf71                	j	16e18 <__d2b+0x6a>
   16e7e:	00002697          	auipc	a3,0x2
   16e82:	29a68693          	add	a3,a3,666 # 19118 <__clzdi2+0xf4>
   16e86:	4601                	li	a2,0
   16e88:	30f00593          	li	a1,783
   16e8c:	00002517          	auipc	a0,0x2
   16e90:	2a450513          	add	a0,a0,676 # 19130 <__clzdi2+0x10c>
   16e94:	113000ef          	jal	177a6 <__assert_func>

0000000000016e98 <__ratio>:
   16e98:	7179                	add	sp,sp,-48
   16e9a:	ec26                	sd	s1,24(sp)
   16e9c:	84ae                	mv	s1,a1
   16e9e:	002c                	add	a1,sp,8
   16ea0:	f406                	sd	ra,40(sp)
   16ea2:	f022                	sd	s0,32(sp)
   16ea4:	e84a                	sd	s2,16(sp)
   16ea6:	892a                	mv	s2,a0
   16ea8:	e1dff0ef          	jal	16cc4 <__b2d>
   16eac:	006c                	add	a1,sp,12
   16eae:	8526                	mv	a0,s1
   16eb0:	e2050453          	fmv.x.d	s0,fa0
   16eb4:	e11ff0ef          	jal	16cc4 <__b2d>
   16eb8:	01492783          	lw	a5,20(s2)
   16ebc:	48d0                	lw	a2,20(s1)
   16ebe:	46b2                	lw	a3,12(sp)
   16ec0:	4722                	lw	a4,8(sp)
   16ec2:	9f91                	subw	a5,a5,a2
   16ec4:	0057979b          	sllw	a5,a5,0x5
   16ec8:	9f15                	subw	a4,a4,a3
   16eca:	00e786bb          	addw	a3,a5,a4
   16ece:	87b6                	mv	a5,a3
   16ed0:	e2050753          	fmv.x.d	a4,fa0
   16ed4:	02d05963          	blez	a3,16f06 <__ratio+0x6e>
   16ed8:	02045693          	srl	a3,s0,0x20
   16edc:	0147979b          	sllw	a5,a5,0x14
   16ee0:	9fb5                	addw	a5,a5,a3
   16ee2:	56fd                	li	a3,-1
   16ee4:	9281                	srl	a3,a3,0x20
   16ee6:	1782                	sll	a5,a5,0x20
   16ee8:	8ee1                	and	a3,a3,s0
   16eea:	00f6e433          	or	s0,a3,a5
   16eee:	f20407d3          	fmv.d.x	fa5,s0
   16ef2:	70a2                	ld	ra,40(sp)
   16ef4:	7402                	ld	s0,32(sp)
   16ef6:	f2070753          	fmv.d.x	fa4,a4
   16efa:	64e2                	ld	s1,24(sp)
   16efc:	6942                	ld	s2,16(sp)
   16efe:	1ae7f553          	fdiv.d	fa0,fa5,fa4
   16f02:	6145                	add	sp,sp,48
   16f04:	8082                	ret
   16f06:	02075693          	srl	a3,a4,0x20
   16f0a:	0147979b          	sllw	a5,a5,0x14
   16f0e:	40f687bb          	subw	a5,a3,a5
   16f12:	56fd                	li	a3,-1
   16f14:	9281                	srl	a3,a3,0x20
   16f16:	1782                	sll	a5,a5,0x20
   16f18:	8f75                	and	a4,a4,a3
   16f1a:	8f5d                	or	a4,a4,a5
   16f1c:	bfc9                	j	16eee <__ratio+0x56>

0000000000016f1e <_mprec_log10>:
   16f1e:	47dd                	li	a5,23
   16f20:	00a7df63          	bge	a5,a0,16f3e <_mprec_log10+0x20>
   16f24:	00004797          	auipc	a5,0x4
   16f28:	4f47b507          	fld	fa0,1268(a5) # 1b418 <__SDATA_BEGIN__+0x38>
   16f2c:	00004797          	auipc	a5,0x4
   16f30:	4f47b787          	fld	fa5,1268(a5) # 1b420 <__SDATA_BEGIN__+0x40>
   16f34:	357d                	addw	a0,a0,-1
   16f36:	12f57553          	fmul.d	fa0,fa0,fa5
   16f3a:	fd6d                	bnez	a0,16f34 <_mprec_log10+0x16>
   16f3c:	8082                	ret
   16f3e:	050e                	sll	a0,a0,0x3
   16f40:	00002797          	auipc	a5,0x2
   16f44:	68878793          	add	a5,a5,1672 # 195c8 <__mprec_tens>
   16f48:	97aa                	add	a5,a5,a0
   16f4a:	2388                	fld	fa0,0(a5)
   16f4c:	8082                	ret

0000000000016f4e <__copybits>:
   16f4e:	4a54                	lw	a3,20(a2)
   16f50:	35fd                	addw	a1,a1,-1
   16f52:	4055d59b          	sraw	a1,a1,0x5
   16f56:	2585                	addw	a1,a1,1
   16f58:	01860793          	add	a5,a2,24 # 3ff00018 <__BSS_END__+0x3fee45e0>
   16f5c:	068a                	sll	a3,a3,0x2
   16f5e:	058a                	sll	a1,a1,0x2
   16f60:	96be                	add	a3,a3,a5
   16f62:	95aa                	add	a1,a1,a0
   16f64:	02d7f163          	bgeu	a5,a3,16f86 <__copybits+0x38>
   16f68:	872a                	mv	a4,a0
   16f6a:	0007a803          	lw	a6,0(a5)
   16f6e:	0791                	add	a5,a5,4
   16f70:	0711                	add	a4,a4,4 # 100004 <__BSS_END__+0xe45cc>
   16f72:	ff072e23          	sw	a6,-4(a4)
   16f76:	fed7eae3          	bltu	a5,a3,16f6a <__copybits+0x1c>
   16f7a:	40c687b3          	sub	a5,a3,a2
   16f7e:	179d                	add	a5,a5,-25
   16f80:	9bf1                	and	a5,a5,-4
   16f82:	0791                	add	a5,a5,4
   16f84:	953e                	add	a0,a0,a5
   16f86:	00b57763          	bgeu	a0,a1,16f94 <__copybits+0x46>
   16f8a:	0511                	add	a0,a0,4
   16f8c:	fe052e23          	sw	zero,-4(a0)
   16f90:	feb56de3          	bltu	a0,a1,16f8a <__copybits+0x3c>
   16f94:	8082                	ret

0000000000016f96 <__any_on>:
   16f96:	4958                	lw	a4,20(a0)
   16f98:	4055d613          	sra	a2,a1,0x5
   16f9c:	01850693          	add	a3,a0,24
   16fa0:	00c75d63          	bge	a4,a2,16fba <__any_on+0x24>
   16fa4:	070a                	sll	a4,a4,0x2
   16fa6:	00e687b3          	add	a5,a3,a4
   16faa:	02f6f863          	bgeu	a3,a5,16fda <__any_on+0x44>
   16fae:	ffc7a703          	lw	a4,-4(a5)
   16fb2:	17f1                	add	a5,a5,-4
   16fb4:	db7d                	beqz	a4,16faa <__any_on+0x14>
   16fb6:	4505                	li	a0,1
   16fb8:	8082                	ret
   16fba:	00261793          	sll	a5,a2,0x2
   16fbe:	97b6                	add	a5,a5,a3
   16fc0:	fee655e3          	bge	a2,a4,16faa <__any_on+0x14>
   16fc4:	89fd                	and	a1,a1,31
   16fc6:	d1f5                	beqz	a1,16faa <__any_on+0x14>
   16fc8:	4390                	lw	a2,0(a5)
   16fca:	4505                	li	a0,1
   16fcc:	00b6573b          	srlw	a4,a2,a1
   16fd0:	00b7173b          	sllw	a4,a4,a1
   16fd4:	fcc70be3          	beq	a4,a2,16faa <__any_on+0x14>
   16fd8:	8082                	ret
   16fda:	4501                	li	a0,0
   16fdc:	8082                	ret

0000000000016fde <_realloc_r>:
   16fde:	715d                	add	sp,sp,-80
   16fe0:	f84a                	sd	s2,48(sp)
   16fe2:	e486                	sd	ra,72(sp)
   16fe4:	8932                	mv	s2,a2
   16fe6:	16058463          	beqz	a1,1714e <_realloc_r+0x170>
   16fea:	e0a2                	sd	s0,64(sp)
   16fec:	fc26                	sd	s1,56(sp)
   16fee:	842e                	mv	s0,a1
   16ff0:	f44e                	sd	s3,40(sp)
   16ff2:	f052                	sd	s4,32(sp)
   16ff4:	ec56                	sd	s5,24(sp)
   16ff6:	89aa                	mv	s3,a0
   16ff8:	a70fa0ef          	jal	11268 <__malloc_lock>
   16ffc:	ff843783          	ld	a5,-8(s0)
   17000:	01790493          	add	s1,s2,23
   17004:	02e00713          	li	a4,46
   17008:	ff040a93          	add	s5,s0,-16
   1700c:	ffc7fa13          	and	s4,a5,-4
   17010:	0c977463          	bgeu	a4,s1,170d8 <_realloc_r+0xfa>
   17014:	80000737          	lui	a4,0x80000
   17018:	98c1                	and	s1,s1,-16
   1701a:	fff74713          	not	a4,a4
   1701e:	0c976163          	bltu	a4,s1,170e0 <_realloc_r+0x102>
   17022:	0b24ef63          	bltu	s1,s2,170e0 <_realloc_r+0x102>
   17026:	0c9a5863          	bge	s4,s1,170f6 <_realloc_r+0x118>
   1702a:	e062                	sd	s8,0(sp)
   1702c:	00004c17          	auipc	s8,0x4
   17030:	9fcc0c13          	add	s8,s8,-1540 # 1aa28 <__malloc_av_>
   17034:	010c3603          	ld	a2,16(s8)
   17038:	014a86b3          	add	a3,s5,s4
   1703c:	6698                	ld	a4,8(a3)
   1703e:	12d60f63          	beq	a2,a3,1717c <_realloc_r+0x19e>
   17042:	ffe77613          	and	a2,a4,-2
   17046:	9636                	add	a2,a2,a3
   17048:	6610                	ld	a2,8(a2)
   1704a:	8a05                	and	a2,a2,1
   1704c:	e66d                	bnez	a2,17136 <_realloc_r+0x158>
   1704e:	9b71                	and	a4,a4,-4
   17050:	00ea0633          	add	a2,s4,a4
   17054:	08965b63          	bge	a2,s1,170ea <_realloc_r+0x10c>
   17058:	8b85                	and	a5,a5,1
   1705a:	e78d                	bnez	a5,17084 <_realloc_r+0xa6>
   1705c:	e45e                	sd	s7,8(sp)
   1705e:	ff043b83          	ld	s7,-16(s0)
   17062:	e85a                	sd	s6,16(sp)
   17064:	417a8bb3          	sub	s7,s5,s7
   17068:	008bb783          	ld	a5,8(s7)
   1706c:	9bf1                	and	a5,a5,-4
   1706e:	973e                	add	a4,a4,a5
   17070:	01470b33          	add	s6,a4,s4
   17074:	249b5563          	bge	s6,s1,172be <_realloc_r+0x2e0>
   17078:	00fa0b33          	add	s6,s4,a5
   1707c:	1c9b5763          	bge	s6,s1,1724a <_realloc_r+0x26c>
   17080:	6b42                	ld	s6,16(sp)
   17082:	6ba2                	ld	s7,8(sp)
   17084:	85ca                	mv	a1,s2
   17086:	854e                	mv	a0,s3
   17088:	bd5f90ef          	jal	10c5c <_malloc_r>
   1708c:	892a                	mv	s2,a0
   1708e:	2e050863          	beqz	a0,1737e <_realloc_r+0x3a0>
   17092:	ff843783          	ld	a5,-8(s0)
   17096:	ff050713          	add	a4,a0,-16
   1709a:	9bf9                	and	a5,a5,-2
   1709c:	97d6                	add	a5,a5,s5
   1709e:	1ae78063          	beq	a5,a4,1723e <_realloc_r+0x260>
   170a2:	ff8a0613          	add	a2,s4,-8
   170a6:	04800793          	li	a5,72
   170aa:	20c7e663          	bltu	a5,a2,172b6 <_realloc_r+0x2d8>
   170ae:	02700713          	li	a4,39
   170b2:	16c76963          	bltu	a4,a2,17224 <_realloc_r+0x246>
   170b6:	87aa                	mv	a5,a0
   170b8:	8722                	mv	a4,s0
   170ba:	6314                	ld	a3,0(a4)
   170bc:	e394                	sd	a3,0(a5)
   170be:	6714                	ld	a3,8(a4)
   170c0:	e794                	sd	a3,8(a5)
   170c2:	6b18                	ld	a4,16(a4)
   170c4:	eb98                	sd	a4,16(a5)
   170c6:	85a2                	mv	a1,s0
   170c8:	854e                	mv	a0,s3
   170ca:	947f90ef          	jal	10a10 <_free_r>
   170ce:	854e                	mv	a0,s3
   170d0:	99afa0ef          	jal	1126a <__malloc_unlock>
   170d4:	6c02                	ld	s8,0(sp)
   170d6:	a0b1                	j	17122 <_realloc_r+0x144>
   170d8:	02000493          	li	s1,32
   170dc:	f524f5e3          	bgeu	s1,s2,17026 <_realloc_r+0x48>
   170e0:	47b1                	li	a5,12
   170e2:	00f9a023          	sw	a5,0(s3)
   170e6:	4901                	li	s2,0
   170e8:	a82d                	j	17122 <_realloc_r+0x144>
   170ea:	6e9c                	ld	a5,24(a3)
   170ec:	6a98                	ld	a4,16(a3)
   170ee:	6c02                	ld	s8,0(sp)
   170f0:	8a32                	mv	s4,a2
   170f2:	ef1c                	sd	a5,24(a4)
   170f4:	eb98                	sd	a4,16(a5)
   170f6:	008ab783          	ld	a5,8(s5)
   170fa:	409a06b3          	sub	a3,s4,s1
   170fe:	467d                	li	a2,31
   17100:	8b85                	and	a5,a5,1
   17102:	014a8733          	add	a4,s5,s4
   17106:	04d66a63          	bltu	a2,a3,1715a <_realloc_r+0x17c>
   1710a:	0147e7b3          	or	a5,a5,s4
   1710e:	00fab423          	sd	a5,8(s5)
   17112:	671c                	ld	a5,8(a4)
   17114:	0017e793          	or	a5,a5,1
   17118:	e71c                	sd	a5,8(a4)
   1711a:	854e                	mv	a0,s3
   1711c:	94efa0ef          	jal	1126a <__malloc_unlock>
   17120:	8922                	mv	s2,s0
   17122:	6406                	ld	s0,64(sp)
   17124:	60a6                	ld	ra,72(sp)
   17126:	74e2                	ld	s1,56(sp)
   17128:	79a2                	ld	s3,40(sp)
   1712a:	7a02                	ld	s4,32(sp)
   1712c:	6ae2                	ld	s5,24(sp)
   1712e:	854a                	mv	a0,s2
   17130:	7942                	ld	s2,48(sp)
   17132:	6161                	add	sp,sp,80
   17134:	8082                	ret
   17136:	8b85                	and	a5,a5,1
   17138:	f7b1                	bnez	a5,17084 <_realloc_r+0xa6>
   1713a:	e45e                	sd	s7,8(sp)
   1713c:	ff043b83          	ld	s7,-16(s0)
   17140:	e85a                	sd	s6,16(sp)
   17142:	417a8bb3          	sub	s7,s5,s7
   17146:	008bb783          	ld	a5,8(s7)
   1714a:	9bf1                	and	a5,a5,-4
   1714c:	b735                	j	17078 <_realloc_r+0x9a>
   1714e:	60a6                	ld	ra,72(sp)
   17150:	7942                	ld	s2,48(sp)
   17152:	85b2                	mv	a1,a2
   17154:	6161                	add	sp,sp,80
   17156:	b07f906f          	j	10c5c <_malloc_r>
   1715a:	8fc5                	or	a5,a5,s1
   1715c:	00fab423          	sd	a5,8(s5)
   17160:	009a85b3          	add	a1,s5,s1
   17164:	0016e693          	or	a3,a3,1
   17168:	e594                	sd	a3,8(a1)
   1716a:	671c                	ld	a5,8(a4)
   1716c:	05c1                	add	a1,a1,16
   1716e:	854e                	mv	a0,s3
   17170:	0017e793          	or	a5,a5,1
   17174:	e71c                	sd	a5,8(a4)
   17176:	89bf90ef          	jal	10a10 <_free_r>
   1717a:	b745                	j	1711a <_realloc_r+0x13c>
   1717c:	9b71                	and	a4,a4,-4
   1717e:	014706b3          	add	a3,a4,s4
   17182:	02048613          	add	a2,s1,32
   17186:	1cc6d363          	bge	a3,a2,1734c <_realloc_r+0x36e>
   1718a:	8b85                	and	a5,a5,1
   1718c:	ee079ce3          	bnez	a5,17084 <_realloc_r+0xa6>
   17190:	e45e                	sd	s7,8(sp)
   17192:	ff043b83          	ld	s7,-16(s0)
   17196:	e85a                	sd	s6,16(sp)
   17198:	417a8bb3          	sub	s7,s5,s7
   1719c:	008bb783          	ld	a5,8(s7)
   171a0:	9bf1                	and	a5,a5,-4
   171a2:	973e                	add	a4,a4,a5
   171a4:	01470b33          	add	s6,a4,s4
   171a8:	eccb48e3          	blt	s6,a2,17078 <_realloc_r+0x9a>
   171ac:	018bb783          	ld	a5,24(s7)
   171b0:	010bb703          	ld	a4,16(s7)
   171b4:	ff8a0613          	add	a2,s4,-8
   171b8:	04800693          	li	a3,72
   171bc:	ef1c                	sd	a5,24(a4)
   171be:	eb98                	sd	a4,16(a5)
   171c0:	010b8913          	add	s2,s7,16
   171c4:	1cc6ec63          	bltu	a3,a2,1739c <_realloc_r+0x3be>
   171c8:	02700713          	li	a4,39
   171cc:	87ca                	mv	a5,s2
   171ce:	00c77f63          	bgeu	a4,a2,171ec <_realloc_r+0x20e>
   171d2:	6018                	ld	a4,0(s0)
   171d4:	03700793          	li	a5,55
   171d8:	00ebb823          	sd	a4,16(s7)
   171dc:	6418                	ld	a4,8(s0)
   171de:	00ebbc23          	sd	a4,24(s7)
   171e2:	1cc7e263          	bltu	a5,a2,173a6 <_realloc_r+0x3c8>
   171e6:	0441                	add	s0,s0,16
   171e8:	020b8793          	add	a5,s7,32
   171ec:	6018                	ld	a4,0(s0)
   171ee:	e398                	sd	a4,0(a5)
   171f0:	6418                	ld	a4,8(s0)
   171f2:	e798                	sd	a4,8(a5)
   171f4:	6818                	ld	a4,16(s0)
   171f6:	eb98                	sd	a4,16(a5)
   171f8:	009b8733          	add	a4,s7,s1
   171fc:	409b07b3          	sub	a5,s6,s1
   17200:	00ec3823          	sd	a4,16(s8)
   17204:	0017e793          	or	a5,a5,1
   17208:	e71c                	sd	a5,8(a4)
   1720a:	008bb783          	ld	a5,8(s7)
   1720e:	854e                	mv	a0,s3
   17210:	8b85                	and	a5,a5,1
   17212:	8fc5                	or	a5,a5,s1
   17214:	00fbb423          	sd	a5,8(s7)
   17218:	852fa0ef          	jal	1126a <__malloc_unlock>
   1721c:	6b42                	ld	s6,16(sp)
   1721e:	6ba2                	ld	s7,8(sp)
   17220:	6c02                	ld	s8,0(sp)
   17222:	b701                	j	17122 <_realloc_r+0x144>
   17224:	6014                	ld	a3,0(s0)
   17226:	03700713          	li	a4,55
   1722a:	e114                	sd	a3,0(a0)
   1722c:	6414                	ld	a3,8(s0)
   1722e:	e514                	sd	a3,8(a0)
   17230:	10c76363          	bltu	a4,a2,17336 <_realloc_r+0x358>
   17234:	01040713          	add	a4,s0,16
   17238:	01050793          	add	a5,a0,16
   1723c:	bdbd                	j	170ba <_realloc_r+0xdc>
   1723e:	ff853783          	ld	a5,-8(a0)
   17242:	6c02                	ld	s8,0(sp)
   17244:	9bf1                	and	a5,a5,-4
   17246:	9a3e                	add	s4,s4,a5
   17248:	b57d                	j	170f6 <_realloc_r+0x118>
   1724a:	018bb783          	ld	a5,24(s7)
   1724e:	010bb703          	ld	a4,16(s7)
   17252:	ff8a0613          	add	a2,s4,-8
   17256:	04800693          	li	a3,72
   1725a:	ef1c                	sd	a5,24(a4)
   1725c:	eb98                	sd	a4,16(a5)
   1725e:	010b8913          	add	s2,s7,16
   17262:	0cc6e563          	bltu	a3,a2,1732c <_realloc_r+0x34e>
   17266:	02700713          	li	a4,39
   1726a:	87ca                	mv	a5,s2
   1726c:	02c77863          	bgeu	a4,a2,1729c <_realloc_r+0x2be>
   17270:	6018                	ld	a4,0(s0)
   17272:	03700793          	li	a5,55
   17276:	00ebb823          	sd	a4,16(s7)
   1727a:	6418                	ld	a4,8(s0)
   1727c:	00ebbc23          	sd	a4,24(s7)
   17280:	0ec7fb63          	bgeu	a5,a2,17376 <_realloc_r+0x398>
   17284:	681c                	ld	a5,16(s0)
   17286:	02fbb023          	sd	a5,32(s7)
   1728a:	6c1c                	ld	a5,24(s0)
   1728c:	02fbb423          	sd	a5,40(s7)
   17290:	08d60263          	beq	a2,a3,17314 <_realloc_r+0x336>
   17294:	02040413          	add	s0,s0,32
   17298:	030b8793          	add	a5,s7,48
   1729c:	6018                	ld	a4,0(s0)
   1729e:	e398                	sd	a4,0(a5)
   172a0:	6418                	ld	a4,8(s0)
   172a2:	e798                	sd	a4,8(a5)
   172a4:	6818                	ld	a4,16(s0)
   172a6:	eb98                	sd	a4,16(a5)
   172a8:	8a5a                	mv	s4,s6
   172aa:	8ade                	mv	s5,s7
   172ac:	6b42                	ld	s6,16(sp)
   172ae:	6ba2                	ld	s7,8(sp)
   172b0:	6c02                	ld	s8,0(sp)
   172b2:	844a                	mv	s0,s2
   172b4:	b589                	j	170f6 <_realloc_r+0x118>
   172b6:	85a2                	mv	a1,s0
   172b8:	d92fd0ef          	jal	1484a <memmove>
   172bc:	b529                	j	170c6 <_realloc_r+0xe8>
   172be:	6e9c                	ld	a5,24(a3)
   172c0:	6a98                	ld	a4,16(a3)
   172c2:	ff8a0613          	add	a2,s4,-8
   172c6:	04800693          	li	a3,72
   172ca:	ef1c                	sd	a5,24(a4)
   172cc:	eb98                	sd	a4,16(a5)
   172ce:	010bb703          	ld	a4,16(s7)
   172d2:	018bb783          	ld	a5,24(s7)
   172d6:	010b8913          	add	s2,s7,16
   172da:	ef1c                	sd	a5,24(a4)
   172dc:	eb98                	sd	a4,16(a5)
   172de:	04c6e763          	bltu	a3,a2,1732c <_realloc_r+0x34e>
   172e2:	02700713          	li	a4,39
   172e6:	87ca                	mv	a5,s2
   172e8:	fac77ae3          	bgeu	a4,a2,1729c <_realloc_r+0x2be>
   172ec:	6018                	ld	a4,0(s0)
   172ee:	03700793          	li	a5,55
   172f2:	00ebb823          	sd	a4,16(s7)
   172f6:	6418                	ld	a4,8(s0)
   172f8:	00ebbc23          	sd	a4,24(s7)
   172fc:	06c7fd63          	bgeu	a5,a2,17376 <_realloc_r+0x398>
   17300:	6818                	ld	a4,16(s0)
   17302:	04800793          	li	a5,72
   17306:	02ebb023          	sd	a4,32(s7)
   1730a:	6c18                	ld	a4,24(s0)
   1730c:	02ebb423          	sd	a4,40(s7)
   17310:	f8f612e3          	bne	a2,a5,17294 <_realloc_r+0x2b6>
   17314:	7018                	ld	a4,32(s0)
   17316:	040b8793          	add	a5,s7,64
   1731a:	03040413          	add	s0,s0,48
   1731e:	02ebb823          	sd	a4,48(s7)
   17322:	ff843703          	ld	a4,-8(s0)
   17326:	02ebbc23          	sd	a4,56(s7)
   1732a:	bf8d                	j	1729c <_realloc_r+0x2be>
   1732c:	85a2                	mv	a1,s0
   1732e:	854a                	mv	a0,s2
   17330:	d1afd0ef          	jal	1484a <memmove>
   17334:	bf95                	j	172a8 <_realloc_r+0x2ca>
   17336:	6818                	ld	a4,16(s0)
   17338:	e918                	sd	a4,16(a0)
   1733a:	6c18                	ld	a4,24(s0)
   1733c:	ed18                	sd	a4,24(a0)
   1733e:	04f60663          	beq	a2,a5,1738a <_realloc_r+0x3ac>
   17342:	02040713          	add	a4,s0,32
   17346:	02050793          	add	a5,a0,32
   1734a:	bb85                	j	170ba <_realloc_r+0xdc>
   1734c:	9aa6                	add	s5,s5,s1
   1734e:	409687b3          	sub	a5,a3,s1
   17352:	015c3823          	sd	s5,16(s8)
   17356:	0017e793          	or	a5,a5,1
   1735a:	00fab423          	sd	a5,8(s5)
   1735e:	ff843783          	ld	a5,-8(s0)
   17362:	854e                	mv	a0,s3
   17364:	8922                	mv	s2,s0
   17366:	8b85                	and	a5,a5,1
   17368:	8fc5                	or	a5,a5,s1
   1736a:	fef43c23          	sd	a5,-8(s0)
   1736e:	efdf90ef          	jal	1126a <__malloc_unlock>
   17372:	6c02                	ld	s8,0(sp)
   17374:	b37d                	j	17122 <_realloc_r+0x144>
   17376:	0441                	add	s0,s0,16
   17378:	020b8793          	add	a5,s7,32
   1737c:	b705                	j	1729c <_realloc_r+0x2be>
   1737e:	854e                	mv	a0,s3
   17380:	eebf90ef          	jal	1126a <__malloc_unlock>
   17384:	4901                	li	s2,0
   17386:	6c02                	ld	s8,0(sp)
   17388:	bb69                	j	17122 <_realloc_r+0x144>
   1738a:	7014                	ld	a3,32(s0)
   1738c:	03040713          	add	a4,s0,48
   17390:	03050793          	add	a5,a0,48
   17394:	f114                	sd	a3,32(a0)
   17396:	7414                	ld	a3,40(s0)
   17398:	f514                	sd	a3,40(a0)
   1739a:	b305                	j	170ba <_realloc_r+0xdc>
   1739c:	85a2                	mv	a1,s0
   1739e:	854a                	mv	a0,s2
   173a0:	caafd0ef          	jal	1484a <memmove>
   173a4:	bd91                	j	171f8 <_realloc_r+0x21a>
   173a6:	681c                	ld	a5,16(s0)
   173a8:	02fbb023          	sd	a5,32(s7)
   173ac:	6c1c                	ld	a5,24(s0)
   173ae:	02fbb423          	sd	a5,40(s7)
   173b2:	00d60763          	beq	a2,a3,173c0 <_realloc_r+0x3e2>
   173b6:	02040413          	add	s0,s0,32
   173ba:	030b8793          	add	a5,s7,48
   173be:	b53d                	j	171ec <_realloc_r+0x20e>
   173c0:	7018                	ld	a4,32(s0)
   173c2:	040b8793          	add	a5,s7,64
   173c6:	03040413          	add	s0,s0,48
   173ca:	02ebb823          	sd	a4,48(s7)
   173ce:	ff843703          	ld	a4,-8(s0)
   173d2:	02ebbc23          	sd	a4,56(s7)
   173d6:	bd19                	j	171ec <_realloc_r+0x20e>

00000000000173d8 <_wctomb_r>:
   173d8:	0e01b783          	ld	a5,224(gp) # 1b318 <__global_locale+0xe0>
   173dc:	8782                	jr	a5

00000000000173de <__ascii_wctomb>:
   173de:	0006079b          	sext.w	a5,a2
   173e2:	cd91                	beqz	a1,173fe <__ascii_wctomb+0x20>
   173e4:	0ff00713          	li	a4,255
   173e8:	00f76663          	bltu	a4,a5,173f4 <__ascii_wctomb+0x16>
   173ec:	00c58023          	sb	a2,0(a1)
   173f0:	4505                	li	a0,1
   173f2:	8082                	ret
   173f4:	08a00793          	li	a5,138
   173f8:	c11c                	sw	a5,0(a0)
   173fa:	557d                	li	a0,-1
   173fc:	8082                	ret
   173fe:	4501                	li	a0,0
   17400:	8082                	ret

0000000000017402 <_wcrtomb_r>:
   17402:	7179                	add	sp,sp,-48
   17404:	f022                	sd	s0,32(sp)
   17406:	ec26                	sd	s1,24(sp)
   17408:	f406                	sd	ra,40(sp)
   1740a:	842a                	mv	s0,a0
   1740c:	84b6                	mv	s1,a3
   1740e:	0e01b783          	ld	a5,224(gp) # 1b318 <__global_locale+0xe0>
   17412:	c991                	beqz	a1,17426 <_wcrtomb_r+0x24>
   17414:	9782                	jalr	a5
   17416:	57fd                	li	a5,-1
   17418:	00f50d63          	beq	a0,a5,17432 <_wcrtomb_r+0x30>
   1741c:	70a2                	ld	ra,40(sp)
   1741e:	7402                	ld	s0,32(sp)
   17420:	64e2                	ld	s1,24(sp)
   17422:	6145                	add	sp,sp,48
   17424:	8082                	ret
   17426:	4601                	li	a2,0
   17428:	858a                	mv	a1,sp
   1742a:	9782                	jalr	a5
   1742c:	57fd                	li	a5,-1
   1742e:	fef517e3          	bne	a0,a5,1741c <_wcrtomb_r+0x1a>
   17432:	0004a023          	sw	zero,0(s1)
   17436:	08a00793          	li	a5,138
   1743a:	70a2                	ld	ra,40(sp)
   1743c:	c01c                	sw	a5,0(s0)
   1743e:	7402                	ld	s0,32(sp)
   17440:	64e2                	ld	s1,24(sp)
   17442:	6145                	add	sp,sp,48
   17444:	8082                	ret

0000000000017446 <wcrtomb>:
   17446:	7179                	add	sp,sp,-48
   17448:	f022                	sd	s0,32(sp)
   1744a:	ec26                	sd	s1,24(sp)
   1744c:	f406                	sd	ra,40(sp)
   1744e:	8432                	mv	s0,a2
   17450:	2201b483          	ld	s1,544(gp) # 1b458 <_impure_ptr>
   17454:	0e01b783          	ld	a5,224(gp) # 1b318 <__global_locale+0xe0>
   17458:	cd11                	beqz	a0,17474 <wcrtomb+0x2e>
   1745a:	862e                	mv	a2,a1
   1745c:	86a2                	mv	a3,s0
   1745e:	85aa                	mv	a1,a0
   17460:	8526                	mv	a0,s1
   17462:	9782                	jalr	a5
   17464:	57fd                	li	a5,-1
   17466:	00f50f63          	beq	a0,a5,17484 <wcrtomb+0x3e>
   1746a:	70a2                	ld	ra,40(sp)
   1746c:	7402                	ld	s0,32(sp)
   1746e:	64e2                	ld	s1,24(sp)
   17470:	6145                	add	sp,sp,48
   17472:	8082                	ret
   17474:	86b2                	mv	a3,a2
   17476:	858a                	mv	a1,sp
   17478:	4601                	li	a2,0
   1747a:	8526                	mv	a0,s1
   1747c:	9782                	jalr	a5
   1747e:	57fd                	li	a5,-1
   17480:	fef515e3          	bne	a0,a5,1746a <wcrtomb+0x24>
   17484:	00042023          	sw	zero,0(s0)
   17488:	70a2                	ld	ra,40(sp)
   1748a:	7402                	ld	s0,32(sp)
   1748c:	08a00793          	li	a5,138
   17490:	c09c                	sw	a5,0(s1)
   17492:	64e2                	ld	s1,24(sp)
   17494:	6145                	add	sp,sp,48
   17496:	8082                	ret

0000000000017498 <__smakebuf_r>:
   17498:	01059783          	lh	a5,16(a1)
   1749c:	7135                	add	sp,sp,-160
   1749e:	e922                	sd	s0,144(sp)
   174a0:	ed06                	sd	ra,152(sp)
   174a2:	0027f713          	and	a4,a5,2
   174a6:	842e                	mv	s0,a1
   174a8:	cb19                	beqz	a4,174be <__smakebuf_r+0x26>
   174aa:	07758793          	add	a5,a1,119
   174ae:	e19c                	sd	a5,0(a1)
   174b0:	ed9c                	sd	a5,24(a1)
   174b2:	4785                	li	a5,1
   174b4:	d19c                	sw	a5,32(a1)
   174b6:	60ea                	ld	ra,152(sp)
   174b8:	644a                	ld	s0,144(sp)
   174ba:	610d                	add	sp,sp,160
   174bc:	8082                	ret
   174be:	01259583          	lh	a1,18(a1)
   174c2:	e526                	sd	s1,136(sp)
   174c4:	e14a                	sd	s2,128(sp)
   174c6:	fcce                	sd	s3,120(sp)
   174c8:	f8d2                	sd	s4,112(sp)
   174ca:	84aa                	mv	s1,a0
   174cc:	0605c463          	bltz	a1,17534 <__smakebuf_r+0x9c>
   174d0:	0030                	add	a2,sp,8
   174d2:	270000ef          	jal	17742 <_fstat_r>
   174d6:	04054d63          	bltz	a0,17530 <__smakebuf_r+0x98>
   174da:	4932                	lw	s2,12(sp)
   174dc:	67bd                	lui	a5,0xf
   174de:	6985                	lui	s3,0x1
   174e0:	00f97933          	and	s2,s2,a5
   174e4:	6789                	lui	a5,0x2
   174e6:	40f90933          	sub	s2,s2,a5
   174ea:	00193913          	seqz	s2,s2
   174ee:	40000a13          	li	s4,1024
   174f2:	80098993          	add	s3,s3,-2048 # 800 <exit-0xf8e8>
   174f6:	85d2                	mv	a1,s4
   174f8:	8526                	mv	a0,s1
   174fa:	f62f90ef          	jal	10c5c <_malloc_r>
   174fe:	01041783          	lh	a5,16(s0)
   17502:	c539                	beqz	a0,17550 <__smakebuf_r+0xb8>
   17504:	0807e793          	or	a5,a5,128
   17508:	e008                	sd	a0,0(s0)
   1750a:	ec08                	sd	a0,24(s0)
   1750c:	00f41823          	sh	a5,16(s0)
   17510:	03442023          	sw	s4,32(s0)
   17514:	06091563          	bnez	s2,1757e <__smakebuf_r+0xe6>
   17518:	0137e7b3          	or	a5,a5,s3
   1751c:	60ea                	ld	ra,152(sp)
   1751e:	00f41823          	sh	a5,16(s0)
   17522:	644a                	ld	s0,144(sp)
   17524:	64aa                	ld	s1,136(sp)
   17526:	690a                	ld	s2,128(sp)
   17528:	79e6                	ld	s3,120(sp)
   1752a:	7a46                	ld	s4,112(sp)
   1752c:	610d                	add	sp,sp,160
   1752e:	8082                	ret
   17530:	01041783          	lh	a5,16(s0)
   17534:	0807f793          	and	a5,a5,128
   17538:	4901                	li	s2,0
   1753a:	cf95                	beqz	a5,17576 <__smakebuf_r+0xde>
   1753c:	04000a13          	li	s4,64
   17540:	85d2                	mv	a1,s4
   17542:	8526                	mv	a0,s1
   17544:	f18f90ef          	jal	10c5c <_malloc_r>
   17548:	01041783          	lh	a5,16(s0)
   1754c:	4981                	li	s3,0
   1754e:	f95d                	bnez	a0,17504 <__smakebuf_r+0x6c>
   17550:	2007f713          	and	a4,a5,512
   17554:	ef15                	bnez	a4,17590 <__smakebuf_r+0xf8>
   17556:	9bf1                	and	a5,a5,-4
   17558:	0027e793          	or	a5,a5,2
   1755c:	07740713          	add	a4,s0,119
   17560:	00f41823          	sh	a5,16(s0)
   17564:	4785                	li	a5,1
   17566:	64aa                	ld	s1,136(sp)
   17568:	690a                	ld	s2,128(sp)
   1756a:	79e6                	ld	s3,120(sp)
   1756c:	7a46                	ld	s4,112(sp)
   1756e:	e018                	sd	a4,0(s0)
   17570:	ec18                	sd	a4,24(s0)
   17572:	d01c                	sw	a5,32(s0)
   17574:	b789                	j	174b6 <__smakebuf_r+0x1e>
   17576:	40000a13          	li	s4,1024
   1757a:	4981                	li	s3,0
   1757c:	bfad                	j	174f6 <__smakebuf_r+0x5e>
   1757e:	01241583          	lh	a1,18(s0)
   17582:	8526                	mv	a0,s1
   17584:	1f2000ef          	jal	17776 <_isatty_r>
   17588:	e909                	bnez	a0,1759a <__smakebuf_r+0x102>
   1758a:	01041783          	lh	a5,16(s0)
   1758e:	b769                	j	17518 <__smakebuf_r+0x80>
   17590:	64aa                	ld	s1,136(sp)
   17592:	690a                	ld	s2,128(sp)
   17594:	79e6                	ld	s3,120(sp)
   17596:	7a46                	ld	s4,112(sp)
   17598:	bf39                	j	174b6 <__smakebuf_r+0x1e>
   1759a:	01045783          	lhu	a5,16(s0)
   1759e:	9bf1                	and	a5,a5,-4
   175a0:	0017e793          	or	a5,a5,1
   175a4:	0107979b          	sllw	a5,a5,0x10
   175a8:	4107d79b          	sraw	a5,a5,0x10
   175ac:	b7b5                	j	17518 <__smakebuf_r+0x80>

00000000000175ae <__swhatbuf_r>:
   175ae:	7175                	add	sp,sp,-144
   175b0:	e122                	sd	s0,128(sp)
   175b2:	842e                	mv	s0,a1
   175b4:	01259583          	lh	a1,18(a1)
   175b8:	fca6                	sd	s1,120(sp)
   175ba:	f8ca                	sd	s2,112(sp)
   175bc:	e506                	sd	ra,136(sp)
   175be:	84b2                	mv	s1,a2
   175c0:	8936                	mv	s2,a3
   175c2:	0205cc63          	bltz	a1,175fa <__swhatbuf_r+0x4c>
   175c6:	0030                	add	a2,sp,8
   175c8:	17a000ef          	jal	17742 <_fstat_r>
   175cc:	02054763          	bltz	a0,175fa <__swhatbuf_r+0x4c>
   175d0:	47b2                	lw	a5,12(sp)
   175d2:	673d                	lui	a4,0xf
   175d4:	60aa                	ld	ra,136(sp)
   175d6:	8ff9                	and	a5,a5,a4
   175d8:	6709                	lui	a4,0x2
   175da:	8f99                	sub	a5,a5,a4
   175dc:	640a                	ld	s0,128(sp)
   175de:	0017b793          	seqz	a5,a5
   175e2:	00f92023          	sw	a5,0(s2)
   175e6:	40000713          	li	a4,1024
   175ea:	e098                	sd	a4,0(s1)
   175ec:	6505                	lui	a0,0x1
   175ee:	74e6                	ld	s1,120(sp)
   175f0:	7946                	ld	s2,112(sp)
   175f2:	80050513          	add	a0,a0,-2048 # 800 <exit-0xf8e8>
   175f6:	6149                	add	sp,sp,144
   175f8:	8082                	ret
   175fa:	01045783          	lhu	a5,16(s0)
   175fe:	0807f793          	and	a5,a5,128
   17602:	cf91                	beqz	a5,1761e <__swhatbuf_r+0x70>
   17604:	60aa                	ld	ra,136(sp)
   17606:	640a                	ld	s0,128(sp)
   17608:	4781                	li	a5,0
   1760a:	00f92023          	sw	a5,0(s2)
   1760e:	04000713          	li	a4,64
   17612:	e098                	sd	a4,0(s1)
   17614:	7946                	ld	s2,112(sp)
   17616:	74e6                	ld	s1,120(sp)
   17618:	4501                	li	a0,0
   1761a:	6149                	add	sp,sp,144
   1761c:	8082                	ret
   1761e:	60aa                	ld	ra,136(sp)
   17620:	640a                	ld	s0,128(sp)
   17622:	00f92023          	sw	a5,0(s2)
   17626:	40000713          	li	a4,1024
   1762a:	e098                	sd	a4,0(s1)
   1762c:	7946                	ld	s2,112(sp)
   1762e:	74e6                	ld	s1,120(sp)
   17630:	4501                	li	a0,0
   17632:	6149                	add	sp,sp,144
   17634:	8082                	ret

0000000000017636 <__swbuf_r>:
   17636:	7179                	add	sp,sp,-48
   17638:	f022                	sd	s0,32(sp)
   1763a:	ec26                	sd	s1,24(sp)
   1763c:	e84a                	sd	s2,16(sp)
   1763e:	f406                	sd	ra,40(sp)
   17640:	892a                	mv	s2,a0
   17642:	84ae                	mv	s1,a1
   17644:	8432                	mv	s0,a2
   17646:	c119                	beqz	a0,1764c <__swbuf_r+0x16>
   17648:	653c                	ld	a5,72(a0)
   1764a:	c7e5                	beqz	a5,17732 <__swbuf_r+0xfc>
   1764c:	541c                	lw	a5,40(s0)
   1764e:	01041703          	lh	a4,16(s0)
   17652:	c45c                	sw	a5,12(s0)
   17654:	00877793          	and	a5,a4,8
   17658:	cba9                	beqz	a5,176aa <__swbuf_r+0x74>
   1765a:	6c1c                	ld	a5,24(s0)
   1765c:	c7b9                	beqz	a5,176aa <__swbuf_r+0x74>
   1765e:	e44e                	sd	s3,8(sp)
   17660:	03271693          	sll	a3,a4,0x32
   17664:	0ff4f993          	zext.b	s3,s1
   17668:	84ce                	mv	s1,s3
   1766a:	0606d063          	bgez	a3,176ca <__swbuf_r+0x94>
   1766e:	6018                	ld	a4,0(s0)
   17670:	5014                	lw	a3,32(s0)
   17672:	40f707bb          	subw	a5,a4,a5
   17676:	06d7db63          	bge	a5,a3,176ec <__swbuf_r+0xb6>
   1767a:	4454                	lw	a3,12(s0)
   1767c:	00170613          	add	a2,a4,1 # 2001 <exit-0xe0e7>
   17680:	e010                	sd	a2,0(s0)
   17682:	36fd                	addw	a3,a3,-1
   17684:	c454                	sw	a3,12(s0)
   17686:	01370023          	sb	s3,0(a4)
   1768a:	5018                	lw	a4,32(s0)
   1768c:	2785                	addw	a5,a5,1 # 2001 <exit-0xe0e7>
   1768e:	08f70163          	beq	a4,a5,17710 <__swbuf_r+0xda>
   17692:	01045783          	lhu	a5,16(s0)
   17696:	8b85                	and	a5,a5,1
   17698:	e7c1                	bnez	a5,17720 <__swbuf_r+0xea>
   1769a:	69a2                	ld	s3,8(sp)
   1769c:	70a2                	ld	ra,40(sp)
   1769e:	7402                	ld	s0,32(sp)
   176a0:	6942                	ld	s2,16(sp)
   176a2:	8526                	mv	a0,s1
   176a4:	64e2                	ld	s1,24(sp)
   176a6:	6145                	add	sp,sp,48
   176a8:	8082                	ret
   176aa:	85a2                	mv	a1,s0
   176ac:	854a                	mv	a0,s2
   176ae:	d3bfc0ef          	jal	143e8 <__swsetup_r>
   176b2:	e52d                	bnez	a0,1771c <__swbuf_r+0xe6>
   176b4:	01041703          	lh	a4,16(s0)
   176b8:	e44e                	sd	s3,8(sp)
   176ba:	0ff4f993          	zext.b	s3,s1
   176be:	03271693          	sll	a3,a4,0x32
   176c2:	6c1c                	ld	a5,24(s0)
   176c4:	84ce                	mv	s1,s3
   176c6:	fa06c4e3          	bltz	a3,1766e <__swbuf_r+0x38>
   176ca:	0ac42683          	lw	a3,172(s0)
   176ce:	7679                	lui	a2,0xffffe
   176d0:	6589                	lui	a1,0x2
   176d2:	8f4d                	or	a4,a4,a1
   176d4:	167d                	add	a2,a2,-1 # ffffffffffffdfff <__BSS_END__+0xfffffffffffe25c7>
   176d6:	8ef1                	and	a3,a3,a2
   176d8:	00e41823          	sh	a4,16(s0)
   176dc:	6018                	ld	a4,0(s0)
   176de:	0ad42623          	sw	a3,172(s0)
   176e2:	5014                	lw	a3,32(s0)
   176e4:	40f707bb          	subw	a5,a4,a5
   176e8:	f8d7c9e3          	blt	a5,a3,1767a <__swbuf_r+0x44>
   176ec:	85a2                	mv	a1,s0
   176ee:	854a                	mv	a0,s2
   176f0:	90bfc0ef          	jal	13ffa <_fflush_r>
   176f4:	e11d                	bnez	a0,1771a <__swbuf_r+0xe4>
   176f6:	6018                	ld	a4,0(s0)
   176f8:	4454                	lw	a3,12(s0)
   176fa:	4785                	li	a5,1
   176fc:	00170613          	add	a2,a4,1
   17700:	36fd                	addw	a3,a3,-1
   17702:	e010                	sd	a2,0(s0)
   17704:	c454                	sw	a3,12(s0)
   17706:	01370023          	sb	s3,0(a4)
   1770a:	5018                	lw	a4,32(s0)
   1770c:	f8f713e3          	bne	a4,a5,17692 <__swbuf_r+0x5c>
   17710:	85a2                	mv	a1,s0
   17712:	854a                	mv	a0,s2
   17714:	8e7fc0ef          	jal	13ffa <_fflush_r>
   17718:	d149                	beqz	a0,1769a <__swbuf_r+0x64>
   1771a:	69a2                	ld	s3,8(sp)
   1771c:	54fd                	li	s1,-1
   1771e:	bfbd                	j	1769c <__swbuf_r+0x66>
   17720:	47a9                	li	a5,10
   17722:	f6f49ce3          	bne	s1,a5,1769a <__swbuf_r+0x64>
   17726:	85a2                	mv	a1,s0
   17728:	854a                	mv	a0,s2
   1772a:	8d1fc0ef          	jal	13ffa <_fflush_r>
   1772e:	d535                	beqz	a0,1769a <__swbuf_r+0x64>
   17730:	b7ed                	j	1771a <__swbuf_r+0xe4>
   17732:	cd9f80ef          	jal	1040a <__sinit>
   17736:	bf19                	j	1764c <__swbuf_r+0x16>

0000000000017738 <__swbuf>:
   17738:	862e                	mv	a2,a1
   1773a:	85aa                	mv	a1,a0
   1773c:	2201b503          	ld	a0,544(gp) # 1b458 <_impure_ptr>
   17740:	bddd                	j	17636 <__swbuf_r>

0000000000017742 <_fstat_r>:
   17742:	1141                	add	sp,sp,-16
   17744:	872e                	mv	a4,a1
   17746:	e022                	sd	s0,0(sp)
   17748:	85b2                	mv	a1,a2
   1774a:	842a                	mv	s0,a0
   1774c:	853a                	mv	a0,a4
   1774e:	2401a023          	sw	zero,576(gp) # 1b478 <errno>
   17752:	e406                	sd	ra,8(sp)
   17754:	562000ef          	jal	17cb6 <_fstat>
   17758:	57fd                	li	a5,-1
   1775a:	00f50663          	beq	a0,a5,17766 <_fstat_r+0x24>
   1775e:	60a2                	ld	ra,8(sp)
   17760:	6402                	ld	s0,0(sp)
   17762:	0141                	add	sp,sp,16
   17764:	8082                	ret
   17766:	2401a783          	lw	a5,576(gp) # 1b478 <errno>
   1776a:	dbf5                	beqz	a5,1775e <_fstat_r+0x1c>
   1776c:	60a2                	ld	ra,8(sp)
   1776e:	c01c                	sw	a5,0(s0)
   17770:	6402                	ld	s0,0(sp)
   17772:	0141                	add	sp,sp,16
   17774:	8082                	ret

0000000000017776 <_isatty_r>:
   17776:	1141                	add	sp,sp,-16
   17778:	e022                	sd	s0,0(sp)
   1777a:	842a                	mv	s0,a0
   1777c:	852e                	mv	a0,a1
   1777e:	2401a023          	sw	zero,576(gp) # 1b478 <errno>
   17782:	e406                	sd	ra,8(sp)
   17784:	576000ef          	jal	17cfa <_isatty>
   17788:	57fd                	li	a5,-1
   1778a:	00f50663          	beq	a0,a5,17796 <_isatty_r+0x20>
   1778e:	60a2                	ld	ra,8(sp)
   17790:	6402                	ld	s0,0(sp)
   17792:	0141                	add	sp,sp,16
   17794:	8082                	ret
   17796:	2401a783          	lw	a5,576(gp) # 1b478 <errno>
   1779a:	dbf5                	beqz	a5,1778e <_isatty_r+0x18>
   1779c:	60a2                	ld	ra,8(sp)
   1779e:	c01c                	sw	a5,0(s0)
   177a0:	6402                	ld	s0,0(sp)
   177a2:	0141                	add	sp,sp,16
   177a4:	8082                	ret

00000000000177a6 <__assert_func>:
   177a6:	1141                	add	sp,sp,-16
   177a8:	87b6                	mv	a5,a3
   177aa:	2201b703          	ld	a4,544(gp) # 1b458 <_impure_ptr>
   177ae:	8832                	mv	a6,a2
   177b0:	e406                	sd	ra,8(sp)
   177b2:	01873883          	ld	a7,24(a4)
   177b6:	863e                	mv	a2,a5
   177b8:	86aa                	mv	a3,a0
   177ba:	872e                	mv	a4,a1
   177bc:	00002797          	auipc	a5,0x2
   177c0:	9d478793          	add	a5,a5,-1580 # 19190 <__clzdi2+0x16c>
   177c4:	00080b63          	beqz	a6,177da <__assert_func+0x34>
   177c8:	00002597          	auipc	a1,0x2
   177cc:	9d858593          	add	a1,a1,-1576 # 191a0 <__clzdi2+0x17c>
   177d0:	8546                	mv	a0,a7
   177d2:	0ec000ef          	jal	178be <fiprintf>
   177d6:	118000ef          	jal	178ee <abort>
   177da:	00002797          	auipc	a5,0x2
   177de:	8f678793          	add	a5,a5,-1802 # 190d0 <__clzdi2+0xac>
   177e2:	883e                	mv	a6,a5
   177e4:	b7d5                	j	177c8 <__assert_func+0x22>

00000000000177e6 <__assert>:
   177e6:	1141                	add	sp,sp,-16
   177e8:	86b2                	mv	a3,a2
   177ea:	4601                	li	a2,0
   177ec:	e406                	sd	ra,8(sp)
   177ee:	fb9ff0ef          	jal	177a6 <__assert_func>

00000000000177f2 <_calloc_r>:
   177f2:	02c5b7b3          	mulhu	a5,a1,a2
   177f6:	1141                	add	sp,sp,-16
   177f8:	e406                	sd	ra,8(sp)
   177fa:	e022                	sd	s0,0(sp)
   177fc:	02c585b3          	mul	a1,a1,a2
   17800:	efb5                	bnez	a5,1787c <_calloc_r+0x8a>
   17802:	c5af90ef          	jal	10c5c <_malloc_r>
   17806:	842a                	mv	s0,a0
   17808:	cd35                	beqz	a0,17884 <_calloc_r+0x92>
   1780a:	ff853603          	ld	a2,-8(a0)
   1780e:	04800713          	li	a4,72
   17812:	9a71                	and	a2,a2,-4
   17814:	1661                	add	a2,a2,-8
   17816:	04c76263          	bltu	a4,a2,1785a <_calloc_r+0x68>
   1781a:	02700693          	li	a3,39
   1781e:	87aa                	mv	a5,a0
   17820:	02c6f263          	bgeu	a3,a2,17844 <_calloc_r+0x52>
   17824:	00053023          	sd	zero,0(a0)
   17828:	00053423          	sd	zero,8(a0)
   1782c:	03700793          	li	a5,55
   17830:	02c7fd63          	bgeu	a5,a2,1786a <_calloc_r+0x78>
   17834:	00053823          	sd	zero,16(a0)
   17838:	00053c23          	sd	zero,24(a0)
   1783c:	02050793          	add	a5,a0,32
   17840:	04e60863          	beq	a2,a4,17890 <_calloc_r+0x9e>
   17844:	0007b023          	sd	zero,0(a5)
   17848:	0007b423          	sd	zero,8(a5)
   1784c:	0007b823          	sd	zero,16(a5)
   17850:	60a2                	ld	ra,8(sp)
   17852:	8522                	mv	a0,s0
   17854:	6402                	ld	s0,0(sp)
   17856:	0141                	add	sp,sp,16
   17858:	8082                	ret
   1785a:	4581                	li	a1,0
   1785c:	f59f80ef          	jal	107b4 <memset>
   17860:	60a2                	ld	ra,8(sp)
   17862:	8522                	mv	a0,s0
   17864:	6402                	ld	s0,0(sp)
   17866:	0141                	add	sp,sp,16
   17868:	8082                	ret
   1786a:	01050793          	add	a5,a0,16
   1786e:	0007b023          	sd	zero,0(a5)
   17872:	0007b423          	sd	zero,8(a5)
   17876:	0007b823          	sd	zero,16(a5)
   1787a:	bfd9                	j	17850 <_calloc_r+0x5e>
   1787c:	06c000ef          	jal	178e8 <__errno>
   17880:	47b1                	li	a5,12
   17882:	c11c                	sw	a5,0(a0)
   17884:	4401                	li	s0,0
   17886:	60a2                	ld	ra,8(sp)
   17888:	8522                	mv	a0,s0
   1788a:	6402                	ld	s0,0(sp)
   1788c:	0141                	add	sp,sp,16
   1788e:	8082                	ret
   17890:	02053023          	sd	zero,32(a0)
   17894:	03050793          	add	a5,a0,48
   17898:	02053423          	sd	zero,40(a0)
   1789c:	b765                	j	17844 <_calloc_r+0x52>

000000000001789e <_fiprintf_r>:
   1789e:	715d                	add	sp,sp,-80
   178a0:	02810313          	add	t1,sp,40
   178a4:	f436                	sd	a3,40(sp)
   178a6:	869a                	mv	a3,t1
   178a8:	ec06                	sd	ra,24(sp)
   178aa:	f83a                	sd	a4,48(sp)
   178ac:	fc3e                	sd	a5,56(sp)
   178ae:	e0c2                	sd	a6,64(sp)
   178b0:	e4c6                	sd	a7,72(sp)
   178b2:	e41a                	sd	t1,8(sp)
   178b4:	f48fb0ef          	jal	12ffc <_vfiprintf_r>
   178b8:	60e2                	ld	ra,24(sp)
   178ba:	6161                	add	sp,sp,80
   178bc:	8082                	ret

00000000000178be <fiprintf>:
   178be:	715d                	add	sp,sp,-80
   178c0:	02010313          	add	t1,sp,32
   178c4:	f032                	sd	a2,32(sp)
   178c6:	f436                	sd	a3,40(sp)
   178c8:	862e                	mv	a2,a1
   178ca:	869a                	mv	a3,t1
   178cc:	85aa                	mv	a1,a0
   178ce:	2201b503          	ld	a0,544(gp) # 1b458 <_impure_ptr>
   178d2:	ec06                	sd	ra,24(sp)
   178d4:	f83a                	sd	a4,48(sp)
   178d6:	fc3e                	sd	a5,56(sp)
   178d8:	e0c2                	sd	a6,64(sp)
   178da:	e4c6                	sd	a7,72(sp)
   178dc:	e41a                	sd	t1,8(sp)
   178de:	f1efb0ef          	jal	12ffc <_vfiprintf_r>
   178e2:	60e2                	ld	ra,24(sp)
   178e4:	6161                	add	sp,sp,80
   178e6:	8082                	ret

00000000000178e8 <__errno>:
   178e8:	2201b503          	ld	a0,544(gp) # 1b458 <_impure_ptr>
   178ec:	8082                	ret

00000000000178ee <abort>:
   178ee:	1141                	add	sp,sp,-16
   178f0:	4519                	li	a0,6
   178f2:	e406                	sd	ra,8(sp)
   178f4:	19c000ef          	jal	17a90 <raise>
   178f8:	4505                	li	a0,1
   178fa:	39a000ef          	jal	17c94 <_exit>

00000000000178fe <_init_signal_r>:
   178fe:	15053783          	ld	a5,336(a0)
   17902:	c399                	beqz	a5,17908 <_init_signal_r+0xa>
   17904:	4501                	li	a0,0
   17906:	8082                	ret
   17908:	1141                	add	sp,sp,-16
   1790a:	10000593          	li	a1,256
   1790e:	e022                	sd	s0,0(sp)
   17910:	e406                	sd	ra,8(sp)
   17912:	842a                	mv	s0,a0
   17914:	b48f90ef          	jal	10c5c <_malloc_r>
   17918:	14a43823          	sd	a0,336(s0)
   1791c:	cd09                	beqz	a0,17936 <_init_signal_r+0x38>
   1791e:	10050793          	add	a5,a0,256
   17922:	00053023          	sd	zero,0(a0)
   17926:	0521                	add	a0,a0,8
   17928:	fef51de3          	bne	a0,a5,17922 <_init_signal_r+0x24>
   1792c:	4501                	li	a0,0
   1792e:	60a2                	ld	ra,8(sp)
   17930:	6402                	ld	s0,0(sp)
   17932:	0141                	add	sp,sp,16
   17934:	8082                	ret
   17936:	557d                	li	a0,-1
   17938:	bfdd                	j	1792e <_init_signal_r+0x30>

000000000001793a <_signal_r>:
   1793a:	7179                	add	sp,sp,-48
   1793c:	ec26                	sd	s1,24(sp)
   1793e:	f406                	sd	ra,40(sp)
   17940:	47fd                	li	a5,31
   17942:	84aa                	mv	s1,a0
   17944:	02b7e063          	bltu	a5,a1,17964 <_signal_r+0x2a>
   17948:	15053783          	ld	a5,336(a0)
   1794c:	f022                	sd	s0,32(sp)
   1794e:	842e                	mv	s0,a1
   17950:	cf91                	beqz	a5,1796c <_signal_r+0x32>
   17952:	040e                	sll	s0,s0,0x3
   17954:	97a2                	add	a5,a5,s0
   17956:	7402                	ld	s0,32(sp)
   17958:	6388                	ld	a0,0(a5)
   1795a:	e390                	sd	a2,0(a5)
   1795c:	70a2                	ld	ra,40(sp)
   1795e:	64e2                	ld	s1,24(sp)
   17960:	6145                	add	sp,sp,48
   17962:	8082                	ret
   17964:	47d9                	li	a5,22
   17966:	c11c                	sw	a5,0(a0)
   17968:	557d                	li	a0,-1
   1796a:	bfcd                	j	1795c <_signal_r+0x22>
   1796c:	10000593          	li	a1,256
   17970:	e432                	sd	a2,8(sp)
   17972:	aeaf90ef          	jal	10c5c <_malloc_r>
   17976:	14a4b823          	sd	a0,336(s1)
   1797a:	6622                	ld	a2,8(sp)
   1797c:	87aa                	mv	a5,a0
   1797e:	872a                	mv	a4,a0
   17980:	10050693          	add	a3,a0,256
   17984:	c519                	beqz	a0,17992 <_signal_r+0x58>
   17986:	00073023          	sd	zero,0(a4)
   1798a:	0721                	add	a4,a4,8
   1798c:	fed71de3          	bne	a4,a3,17986 <_signal_r+0x4c>
   17990:	b7c9                	j	17952 <_signal_r+0x18>
   17992:	7402                	ld	s0,32(sp)
   17994:	557d                	li	a0,-1
   17996:	b7d9                	j	1795c <_signal_r+0x22>

0000000000017998 <_raise_r>:
   17998:	1101                	add	sp,sp,-32
   1799a:	e426                	sd	s1,8(sp)
   1799c:	ec06                	sd	ra,24(sp)
   1799e:	47fd                	li	a5,31
   179a0:	84aa                	mv	s1,a0
   179a2:	04b7ef63          	bltu	a5,a1,17a00 <_raise_r+0x68>
   179a6:	15053783          	ld	a5,336(a0)
   179aa:	e822                	sd	s0,16(sp)
   179ac:	842e                	mv	s0,a1
   179ae:	c795                	beqz	a5,179da <_raise_r+0x42>
   179b0:	00359713          	sll	a4,a1,0x3
   179b4:	97ba                	add	a5,a5,a4
   179b6:	6398                	ld	a4,0(a5)
   179b8:	c30d                	beqz	a4,179da <_raise_r+0x42>
   179ba:	4685                	li	a3,1
   179bc:	00d70963          	beq	a4,a3,179ce <_raise_r+0x36>
   179c0:	56fd                	li	a3,-1
   179c2:	02d70763          	beq	a4,a3,179f0 <_raise_r+0x58>
   179c6:	0007b023          	sd	zero,0(a5)
   179ca:	852e                	mv	a0,a1
   179cc:	9702                	jalr	a4
   179ce:	6442                	ld	s0,16(sp)
   179d0:	4501                	li	a0,0
   179d2:	60e2                	ld	ra,24(sp)
   179d4:	64a2                	ld	s1,8(sp)
   179d6:	6105                	add	sp,sp,32
   179d8:	8082                	ret
   179da:	8526                	mv	a0,s1
   179dc:	28a000ef          	jal	17c66 <_getpid_r>
   179e0:	8622                	mv	a2,s0
   179e2:	6442                	ld	s0,16(sp)
   179e4:	60e2                	ld	ra,24(sp)
   179e6:	85aa                	mv	a1,a0
   179e8:	8526                	mv	a0,s1
   179ea:	64a2                	ld	s1,8(sp)
   179ec:	6105                	add	sp,sp,32
   179ee:	a491                	j	17c32 <_kill_r>
   179f0:	6442                	ld	s0,16(sp)
   179f2:	60e2                	ld	ra,24(sp)
   179f4:	47d9                	li	a5,22
   179f6:	c11c                	sw	a5,0(a0)
   179f8:	64a2                	ld	s1,8(sp)
   179fa:	4505                	li	a0,1
   179fc:	6105                	add	sp,sp,32
   179fe:	8082                	ret
   17a00:	47d9                	li	a5,22
   17a02:	c11c                	sw	a5,0(a0)
   17a04:	557d                	li	a0,-1
   17a06:	b7f1                	j	179d2 <_raise_r+0x3a>

0000000000017a08 <__sigtramp_r>:
   17a08:	47fd                	li	a5,31
   17a0a:	08b7e163          	bltu	a5,a1,17a8c <__sigtramp_r+0x84>
   17a0e:	15053783          	ld	a5,336(a0)
   17a12:	1101                	add	sp,sp,-32
   17a14:	e822                	sd	s0,16(sp)
   17a16:	e426                	sd	s1,8(sp)
   17a18:	ec06                	sd	ra,24(sp)
   17a1a:	842e                	mv	s0,a1
   17a1c:	84aa                	mv	s1,a0
   17a1e:	c7a1                	beqz	a5,17a66 <__sigtramp_r+0x5e>
   17a20:	00341713          	sll	a4,s0,0x3
   17a24:	97ba                	add	a5,a5,a4
   17a26:	6398                	ld	a4,0(a5)
   17a28:	c30d                	beqz	a4,17a4a <__sigtramp_r+0x42>
   17a2a:	56fd                	li	a3,-1
   17a2c:	02d70b63          	beq	a4,a3,17a62 <__sigtramp_r+0x5a>
   17a30:	4685                	li	a3,1
   17a32:	02d70263          	beq	a4,a3,17a56 <__sigtramp_r+0x4e>
   17a36:	8522                	mv	a0,s0
   17a38:	0007b023          	sd	zero,0(a5)
   17a3c:	9702                	jalr	a4
   17a3e:	4501                	li	a0,0
   17a40:	60e2                	ld	ra,24(sp)
   17a42:	6442                	ld	s0,16(sp)
   17a44:	64a2                	ld	s1,8(sp)
   17a46:	6105                	add	sp,sp,32
   17a48:	8082                	ret
   17a4a:	60e2                	ld	ra,24(sp)
   17a4c:	6442                	ld	s0,16(sp)
   17a4e:	64a2                	ld	s1,8(sp)
   17a50:	4505                	li	a0,1
   17a52:	6105                	add	sp,sp,32
   17a54:	8082                	ret
   17a56:	60e2                	ld	ra,24(sp)
   17a58:	6442                	ld	s0,16(sp)
   17a5a:	64a2                	ld	s1,8(sp)
   17a5c:	450d                	li	a0,3
   17a5e:	6105                	add	sp,sp,32
   17a60:	8082                	ret
   17a62:	4509                	li	a0,2
   17a64:	bff1                	j	17a40 <__sigtramp_r+0x38>
   17a66:	10000593          	li	a1,256
   17a6a:	9f2f90ef          	jal	10c5c <_malloc_r>
   17a6e:	14a4b823          	sd	a0,336(s1)
   17a72:	87aa                	mv	a5,a0
   17a74:	c911                	beqz	a0,17a88 <__sigtramp_r+0x80>
   17a76:	872a                	mv	a4,a0
   17a78:	10050693          	add	a3,a0,256
   17a7c:	00073023          	sd	zero,0(a4)
   17a80:	0721                	add	a4,a4,8
   17a82:	fed71de3          	bne	a4,a3,17a7c <__sigtramp_r+0x74>
   17a86:	bf69                	j	17a20 <__sigtramp_r+0x18>
   17a88:	557d                	li	a0,-1
   17a8a:	bf5d                	j	17a40 <__sigtramp_r+0x38>
   17a8c:	557d                	li	a0,-1
   17a8e:	8082                	ret

0000000000017a90 <raise>:
   17a90:	1101                	add	sp,sp,-32
   17a92:	e426                	sd	s1,8(sp)
   17a94:	ec06                	sd	ra,24(sp)
   17a96:	47fd                	li	a5,31
   17a98:	2201b483          	ld	s1,544(gp) # 1b458 <_impure_ptr>
   17a9c:	04a7ee63          	bltu	a5,a0,17af8 <raise+0x68>
   17aa0:	1504b783          	ld	a5,336(s1)
   17aa4:	e822                	sd	s0,16(sp)
   17aa6:	842a                	mv	s0,a0
   17aa8:	c78d                	beqz	a5,17ad2 <raise+0x42>
   17aaa:	00351713          	sll	a4,a0,0x3
   17aae:	97ba                	add	a5,a5,a4
   17ab0:	6398                	ld	a4,0(a5)
   17ab2:	c305                	beqz	a4,17ad2 <raise+0x42>
   17ab4:	4685                	li	a3,1
   17ab6:	00d70863          	beq	a4,a3,17ac6 <raise+0x36>
   17aba:	56fd                	li	a3,-1
   17abc:	02d70663          	beq	a4,a3,17ae8 <raise+0x58>
   17ac0:	0007b023          	sd	zero,0(a5)
   17ac4:	9702                	jalr	a4
   17ac6:	6442                	ld	s0,16(sp)
   17ac8:	4501                	li	a0,0
   17aca:	60e2                	ld	ra,24(sp)
   17acc:	64a2                	ld	s1,8(sp)
   17ace:	6105                	add	sp,sp,32
   17ad0:	8082                	ret
   17ad2:	8526                	mv	a0,s1
   17ad4:	192000ef          	jal	17c66 <_getpid_r>
   17ad8:	8622                	mv	a2,s0
   17ada:	6442                	ld	s0,16(sp)
   17adc:	60e2                	ld	ra,24(sp)
   17ade:	85aa                	mv	a1,a0
   17ae0:	8526                	mv	a0,s1
   17ae2:	64a2                	ld	s1,8(sp)
   17ae4:	6105                	add	sp,sp,32
   17ae6:	a2b1                	j	17c32 <_kill_r>
   17ae8:	6442                	ld	s0,16(sp)
   17aea:	60e2                	ld	ra,24(sp)
   17aec:	47d9                	li	a5,22
   17aee:	c09c                	sw	a5,0(s1)
   17af0:	4505                	li	a0,1
   17af2:	64a2                	ld	s1,8(sp)
   17af4:	6105                	add	sp,sp,32
   17af6:	8082                	ret
   17af8:	47d9                	li	a5,22
   17afa:	c09c                	sw	a5,0(s1)
   17afc:	557d                	li	a0,-1
   17afe:	b7f1                	j	17aca <raise+0x3a>

0000000000017b00 <signal>:
   17b00:	1101                	add	sp,sp,-32
   17b02:	e04a                	sd	s2,0(sp)
   17b04:	ec06                	sd	ra,24(sp)
   17b06:	47fd                	li	a5,31
   17b08:	2201b903          	ld	s2,544(gp) # 1b458 <_impure_ptr>
   17b0c:	02a7e463          	bltu	a5,a0,17b34 <signal+0x34>
   17b10:	e822                	sd	s0,16(sp)
   17b12:	842a                	mv	s0,a0
   17b14:	15093503          	ld	a0,336(s2)
   17b18:	e426                	sd	s1,8(sp)
   17b1a:	84ae                	mv	s1,a1
   17b1c:	c10d                	beqz	a0,17b3e <signal+0x3e>
   17b1e:	040e                	sll	s0,s0,0x3
   17b20:	008507b3          	add	a5,a0,s0
   17b24:	6388                	ld	a0,0(a5)
   17b26:	6442                	ld	s0,16(sp)
   17b28:	e384                	sd	s1,0(a5)
   17b2a:	64a2                	ld	s1,8(sp)
   17b2c:	60e2                	ld	ra,24(sp)
   17b2e:	6902                	ld	s2,0(sp)
   17b30:	6105                	add	sp,sp,32
   17b32:	8082                	ret
   17b34:	47d9                	li	a5,22
   17b36:	00f92023          	sw	a5,0(s2)
   17b3a:	557d                	li	a0,-1
   17b3c:	bfc5                	j	17b2c <signal+0x2c>
   17b3e:	10000593          	li	a1,256
   17b42:	854a                	mv	a0,s2
   17b44:	918f90ef          	jal	10c5c <_malloc_r>
   17b48:	14a93823          	sd	a0,336(s2)
   17b4c:	87aa                	mv	a5,a0
   17b4e:	10050713          	add	a4,a0,256
   17b52:	c519                	beqz	a0,17b60 <signal+0x60>
   17b54:	0007b023          	sd	zero,0(a5)
   17b58:	07a1                	add	a5,a5,8
   17b5a:	fef71de3          	bne	a4,a5,17b54 <signal+0x54>
   17b5e:	b7c1                	j	17b1e <signal+0x1e>
   17b60:	6442                	ld	s0,16(sp)
   17b62:	64a2                	ld	s1,8(sp)
   17b64:	557d                	li	a0,-1
   17b66:	b7d9                	j	17b2c <signal+0x2c>

0000000000017b68 <_init_signal>:
   17b68:	1141                	add	sp,sp,-16
   17b6a:	e022                	sd	s0,0(sp)
   17b6c:	2201b403          	ld	s0,544(gp) # 1b458 <_impure_ptr>
   17b70:	15043783          	ld	a5,336(s0)
   17b74:	e406                	sd	ra,8(sp)
   17b76:	c791                	beqz	a5,17b82 <_init_signal+0x1a>
   17b78:	4501                	li	a0,0
   17b7a:	60a2                	ld	ra,8(sp)
   17b7c:	6402                	ld	s0,0(sp)
   17b7e:	0141                	add	sp,sp,16
   17b80:	8082                	ret
   17b82:	10000593          	li	a1,256
   17b86:	8522                	mv	a0,s0
   17b88:	8d4f90ef          	jal	10c5c <_malloc_r>
   17b8c:	14a43823          	sd	a0,336(s0)
   17b90:	c909                	beqz	a0,17ba2 <_init_signal+0x3a>
   17b92:	10050793          	add	a5,a0,256
   17b96:	00053023          	sd	zero,0(a0)
   17b9a:	0521                	add	a0,a0,8
   17b9c:	fef51de3          	bne	a0,a5,17b96 <_init_signal+0x2e>
   17ba0:	bfe1                	j	17b78 <_init_signal+0x10>
   17ba2:	557d                	li	a0,-1
   17ba4:	bfd9                	j	17b7a <_init_signal+0x12>

0000000000017ba6 <__sigtramp>:
   17ba6:	1101                	add	sp,sp,-32
   17ba8:	e426                	sd	s1,8(sp)
   17baa:	ec06                	sd	ra,24(sp)
   17bac:	47fd                	li	a5,31
   17bae:	2201b483          	ld	s1,544(gp) # 1b458 <_impure_ptr>
   17bb2:	06a7ee63          	bltu	a5,a0,17c2e <__sigtramp+0x88>
   17bb6:	1504b783          	ld	a5,336(s1)
   17bba:	e822                	sd	s0,16(sp)
   17bbc:	842a                	mv	s0,a0
   17bbe:	c7a9                	beqz	a5,17c08 <__sigtramp+0x62>
   17bc0:	00341713          	sll	a4,s0,0x3
   17bc4:	97ba                	add	a5,a5,a4
   17bc6:	6398                	ld	a4,0(a5)
   17bc8:	c30d                	beqz	a4,17bea <__sigtramp+0x44>
   17bca:	56fd                	li	a3,-1
   17bcc:	02d70b63          	beq	a4,a3,17c02 <__sigtramp+0x5c>
   17bd0:	4685                	li	a3,1
   17bd2:	02d70263          	beq	a4,a3,17bf6 <__sigtramp+0x50>
   17bd6:	8522                	mv	a0,s0
   17bd8:	0007b023          	sd	zero,0(a5)
   17bdc:	9702                	jalr	a4
   17bde:	6442                	ld	s0,16(sp)
   17be0:	4501                	li	a0,0
   17be2:	60e2                	ld	ra,24(sp)
   17be4:	64a2                	ld	s1,8(sp)
   17be6:	6105                	add	sp,sp,32
   17be8:	8082                	ret
   17bea:	6442                	ld	s0,16(sp)
   17bec:	60e2                	ld	ra,24(sp)
   17bee:	64a2                	ld	s1,8(sp)
   17bf0:	4505                	li	a0,1
   17bf2:	6105                	add	sp,sp,32
   17bf4:	8082                	ret
   17bf6:	6442                	ld	s0,16(sp)
   17bf8:	60e2                	ld	ra,24(sp)
   17bfa:	64a2                	ld	s1,8(sp)
   17bfc:	450d                	li	a0,3
   17bfe:	6105                	add	sp,sp,32
   17c00:	8082                	ret
   17c02:	6442                	ld	s0,16(sp)
   17c04:	4509                	li	a0,2
   17c06:	bff1                	j	17be2 <__sigtramp+0x3c>
   17c08:	10000593          	li	a1,256
   17c0c:	8526                	mv	a0,s1
   17c0e:	84ef90ef          	jal	10c5c <_malloc_r>
   17c12:	14a4b823          	sd	a0,336(s1)
   17c16:	87aa                	mv	a5,a0
   17c18:	c911                	beqz	a0,17c2c <__sigtramp+0x86>
   17c1a:	872a                	mv	a4,a0
   17c1c:	10050693          	add	a3,a0,256
   17c20:	00073023          	sd	zero,0(a4)
   17c24:	0721                	add	a4,a4,8
   17c26:	fee69de3          	bne	a3,a4,17c20 <__sigtramp+0x7a>
   17c2a:	bf59                	j	17bc0 <__sigtramp+0x1a>
   17c2c:	6442                	ld	s0,16(sp)
   17c2e:	557d                	li	a0,-1
   17c30:	bf4d                	j	17be2 <__sigtramp+0x3c>

0000000000017c32 <_kill_r>:
   17c32:	1141                	add	sp,sp,-16
   17c34:	872e                	mv	a4,a1
   17c36:	e022                	sd	s0,0(sp)
   17c38:	85b2                	mv	a1,a2
   17c3a:	842a                	mv	s0,a0
   17c3c:	853a                	mv	a0,a4
   17c3e:	2401a023          	sw	zero,576(gp) # 1b478 <errno>
   17c42:	e406                	sd	ra,8(sp)
   17c44:	0dc000ef          	jal	17d20 <_kill>
   17c48:	57fd                	li	a5,-1
   17c4a:	00f50663          	beq	a0,a5,17c56 <_kill_r+0x24>
   17c4e:	60a2                	ld	ra,8(sp)
   17c50:	6402                	ld	s0,0(sp)
   17c52:	0141                	add	sp,sp,16
   17c54:	8082                	ret
   17c56:	2401a783          	lw	a5,576(gp) # 1b478 <errno>
   17c5a:	dbf5                	beqz	a5,17c4e <_kill_r+0x1c>
   17c5c:	60a2                	ld	ra,8(sp)
   17c5e:	c01c                	sw	a5,0(s0)
   17c60:	6402                	ld	s0,0(sp)
   17c62:	0141                	add	sp,sp,16
   17c64:	8082                	ret

0000000000017c66 <_getpid_r>:
   17c66:	a841                	j	17cf6 <_getpid>

0000000000017c68 <_close>:
   17c68:	1141                	add	sp,sp,-16
   17c6a:	e406                	sd	ra,8(sp)
   17c6c:	e022                	sd	s0,0(sp)
   17c6e:	03900893          	li	a7,57
   17c72:	00000073          	ecall
   17c76:	842a                	mv	s0,a0
   17c78:	00054763          	bltz	a0,17c86 <_close+0x1e>
   17c7c:	2501                	sext.w	a0,a0
   17c7e:	60a2                	ld	ra,8(sp)
   17c80:	6402                	ld	s0,0(sp)
   17c82:	0141                	add	sp,sp,16
   17c84:	8082                	ret
   17c86:	c63ff0ef          	jal	178e8 <__errno>
   17c8a:	4080043b          	negw	s0,s0
   17c8e:	c100                	sw	s0,0(a0)
   17c90:	557d                	li	a0,-1
   17c92:	b7f5                	j	17c7e <_close+0x16>

0000000000017c94 <_exit>:
   17c94:	05d00893          	li	a7,93
   17c98:	00000073          	ecall
   17c9c:	00054363          	bltz	a0,17ca2 <_exit+0xe>
   17ca0:	a001                	j	17ca0 <_exit+0xc>
   17ca2:	1141                	add	sp,sp,-16
   17ca4:	e022                	sd	s0,0(sp)
   17ca6:	842a                	mv	s0,a0
   17ca8:	e406                	sd	ra,8(sp)
   17caa:	4080043b          	negw	s0,s0
   17cae:	c3bff0ef          	jal	178e8 <__errno>
   17cb2:	c100                	sw	s0,0(a0)
   17cb4:	a001                	j	17cb4 <_exit+0x20>

0000000000017cb6 <_fstat>:
   17cb6:	7135                	add	sp,sp,-160
   17cb8:	e526                	sd	s1,136(sp)
   17cba:	ed06                	sd	ra,152(sp)
   17cbc:	84ae                	mv	s1,a1
   17cbe:	e922                	sd	s0,144(sp)
   17cc0:	05000893          	li	a7,80
   17cc4:	858a                	mv	a1,sp
   17cc6:	00000073          	ecall
   17cca:	842a                	mv	s0,a0
   17ccc:	00054e63          	bltz	a0,17ce8 <_fstat+0x32>
   17cd0:	0005041b          	sext.w	s0,a0
   17cd4:	8526                	mv	a0,s1
   17cd6:	858a                	mv	a1,sp
   17cd8:	130000ef          	jal	17e08 <_conv_stat>
   17cdc:	60ea                	ld	ra,152(sp)
   17cde:	8522                	mv	a0,s0
   17ce0:	644a                	ld	s0,144(sp)
   17ce2:	64aa                	ld	s1,136(sp)
   17ce4:	610d                	add	sp,sp,160
   17ce6:	8082                	ret
   17ce8:	4080043b          	negw	s0,s0
   17cec:	bfdff0ef          	jal	178e8 <__errno>
   17cf0:	c100                	sw	s0,0(a0)
   17cf2:	547d                	li	s0,-1
   17cf4:	b7c5                	j	17cd4 <_fstat+0x1e>

0000000000017cf6 <_getpid>:
   17cf6:	4505                	li	a0,1
   17cf8:	8082                	ret

0000000000017cfa <_isatty>:
   17cfa:	7119                	add	sp,sp,-128
   17cfc:	002c                	add	a1,sp,8
   17cfe:	fc86                	sd	ra,120(sp)
   17d00:	fb7ff0ef          	jal	17cb6 <_fstat>
   17d04:	57fd                	li	a5,-1
   17d06:	00f50963          	beq	a0,a5,17d18 <_isatty+0x1e>
   17d0a:	4532                	lw	a0,12(sp)
   17d0c:	70e6                	ld	ra,120(sp)
   17d0e:	40d5551b          	sraw	a0,a0,0xd
   17d12:	8905                	and	a0,a0,1
   17d14:	6109                	add	sp,sp,128
   17d16:	8082                	ret
   17d18:	70e6                	ld	ra,120(sp)
   17d1a:	4501                	li	a0,0
   17d1c:	6109                	add	sp,sp,128
   17d1e:	8082                	ret

0000000000017d20 <_kill>:
   17d20:	1141                	add	sp,sp,-16
   17d22:	e406                	sd	ra,8(sp)
   17d24:	bc5ff0ef          	jal	178e8 <__errno>
   17d28:	60a2                	ld	ra,8(sp)
   17d2a:	47d9                	li	a5,22
   17d2c:	c11c                	sw	a5,0(a0)
   17d2e:	557d                	li	a0,-1
   17d30:	0141                	add	sp,sp,16
   17d32:	8082                	ret

0000000000017d34 <_lseek>:
   17d34:	1141                	add	sp,sp,-16
   17d36:	e406                	sd	ra,8(sp)
   17d38:	e022                	sd	s0,0(sp)
   17d3a:	03e00893          	li	a7,62
   17d3e:	00000073          	ecall
   17d42:	842a                	mv	s0,a0
   17d44:	00054763          	bltz	a0,17d52 <_lseek+0x1e>
   17d48:	60a2                	ld	ra,8(sp)
   17d4a:	8522                	mv	a0,s0
   17d4c:	6402                	ld	s0,0(sp)
   17d4e:	0141                	add	sp,sp,16
   17d50:	8082                	ret
   17d52:	4080043b          	negw	s0,s0
   17d56:	b93ff0ef          	jal	178e8 <__errno>
   17d5a:	c100                	sw	s0,0(a0)
   17d5c:	547d                	li	s0,-1
   17d5e:	b7ed                	j	17d48 <_lseek+0x14>

0000000000017d60 <_read>:
   17d60:	1141                	add	sp,sp,-16
   17d62:	e406                	sd	ra,8(sp)
   17d64:	e022                	sd	s0,0(sp)
   17d66:	03f00893          	li	a7,63
   17d6a:	00000073          	ecall
   17d6e:	842a                	mv	s0,a0
   17d70:	00054763          	bltz	a0,17d7e <_read+0x1e>
   17d74:	60a2                	ld	ra,8(sp)
   17d76:	8522                	mv	a0,s0
   17d78:	6402                	ld	s0,0(sp)
   17d7a:	0141                	add	sp,sp,16
   17d7c:	8082                	ret
   17d7e:	4080043b          	negw	s0,s0
   17d82:	b67ff0ef          	jal	178e8 <__errno>
   17d86:	c100                	sw	s0,0(a0)
   17d88:	547d                	li	s0,-1
   17d8a:	b7ed                	j	17d74 <_read+0x14>

0000000000017d8c <_sbrk>:
   17d8c:	27018693          	add	a3,gp,624 # 1b4a8 <heap_end.0>
   17d90:	6298                	ld	a4,0(a3)
   17d92:	1141                	add	sp,sp,-16
   17d94:	e406                	sd	ra,8(sp)
   17d96:	87aa                	mv	a5,a0
   17d98:	eb19                	bnez	a4,17dae <_sbrk+0x22>
   17d9a:	0d600893          	li	a7,214
   17d9e:	4501                	li	a0,0
   17da0:	00000073          	ecall
   17da4:	567d                	li	a2,-1
   17da6:	872a                	mv	a4,a0
   17da8:	02c50263          	beq	a0,a2,17dcc <_sbrk+0x40>
   17dac:	e288                	sd	a0,0(a3)
   17dae:	0d600893          	li	a7,214
   17db2:	00e78533          	add	a0,a5,a4
   17db6:	00000073          	ecall
   17dba:	6298                	ld	a4,0(a3)
   17dbc:	97ba                	add	a5,a5,a4
   17dbe:	00f51763          	bne	a0,a5,17dcc <_sbrk+0x40>
   17dc2:	60a2                	ld	ra,8(sp)
   17dc4:	e288                	sd	a0,0(a3)
   17dc6:	853a                	mv	a0,a4
   17dc8:	0141                	add	sp,sp,16
   17dca:	8082                	ret
   17dcc:	b1dff0ef          	jal	178e8 <__errno>
   17dd0:	60a2                	ld	ra,8(sp)
   17dd2:	47b1                	li	a5,12
   17dd4:	c11c                	sw	a5,0(a0)
   17dd6:	557d                	li	a0,-1
   17dd8:	0141                	add	sp,sp,16
   17dda:	8082                	ret

0000000000017ddc <_write>:
   17ddc:	1141                	add	sp,sp,-16
   17dde:	e406                	sd	ra,8(sp)
   17de0:	e022                	sd	s0,0(sp)
   17de2:	04000893          	li	a7,64
   17de6:	00000073          	ecall
   17dea:	842a                	mv	s0,a0
   17dec:	00054763          	bltz	a0,17dfa <_write+0x1e>
   17df0:	60a2                	ld	ra,8(sp)
   17df2:	8522                	mv	a0,s0
   17df4:	6402                	ld	s0,0(sp)
   17df6:	0141                	add	sp,sp,16
   17df8:	8082                	ret
   17dfa:	4080043b          	negw	s0,s0
   17dfe:	aebff0ef          	jal	178e8 <__errno>
   17e02:	c100                	sw	s0,0(a0)
   17e04:	547d                	li	s0,-1
   17e06:	b7ed                	j	17df0 <_write+0x14>

0000000000017e08 <_conv_stat>:
   17e08:	0185d703          	lhu	a4,24(a1)
   17e0c:	0145d783          	lhu	a5,20(a1)
   17e10:	4dd0                	lw	a2,28(a1)
   17e12:	7194                	ld	a3,32(a1)
   17e14:	0005b303          	ld	t1,0(a1)
   17e18:	0085b883          	ld	a7,8(a1)
   17e1c:	0105a803          	lw	a6,16(a1)
   17e20:	0107171b          	sllw	a4,a4,0x10
   17e24:	8fd9                	or	a5,a5,a4
   17e26:	00c51623          	sh	a2,12(a0)
   17e2a:	00d51723          	sh	a3,14(a0)
   17e2e:	00651023          	sh	t1,0(a0)
   17e32:	01151123          	sh	a7,2(a0)
   17e36:	01052223          	sw	a6,4(a0)
   17e3a:	c51c                	sw	a5,8(a0)
   17e3c:	7998                	ld	a4,48(a1)
   17e3e:	65bc                	ld	a5,72(a1)
   17e40:	61b0                	ld	a2,64(a1)
   17e42:	5d94                	lw	a3,56(a1)
   17e44:	e918                	sd	a4,16(a0)
   17e46:	ed1c                	sd	a5,24(a0)
   17e48:	6db8                	ld	a4,88(a1)
   17e4a:	75bc                	ld	a5,104(a1)
   17e4c:	e930                	sd	a2,80(a0)
   17e4e:	e534                	sd	a3,72(a0)
   17e50:	f518                	sd	a4,40(a0)
   17e52:	fd1c                	sd	a5,56(a0)
   17e54:	8082                	ret

0000000000017e56 <__eqtf2>:
   17e56:	882a                	mv	a6,a0
   17e58:	002027f3          	frrm	a5
   17e5c:	6521                	lui	a0,0x8
   17e5e:	0305d713          	srl	a4,a1,0x30
   17e62:	157d                	add	a0,a0,-1 # 7fff <exit-0x80e9>
   17e64:	5e7d                	li	t3,-1
   17e66:	010e5893          	srl	a7,t3,0x10
   17e6a:	0306d313          	srl	t1,a3,0x30
   17e6e:	8f69                	and	a4,a4,a0
   17e70:	0115f7b3          	and	a5,a1,a7
   17e74:	00a37333          	and	t1,t1,a0
   17e78:	0116f8b3          	and	a7,a3,a7
   17e7c:	91fd                	srl	a1,a1,0x3f
   17e7e:	92fd                	srl	a3,a3,0x3f
   17e80:	00a71863          	bne	a4,a0,17e90 <__eqtf2+0x3a>
   17e84:	0107e533          	or	a0,a5,a6
   17e88:	e905                	bnez	a0,17eb8 <__eqtf2+0x62>
   17e8a:	04e31663          	bne	t1,a4,17ed6 <__eqtf2+0x80>
   17e8e:	a019                	j	17e94 <__eqtf2+0x3e>
   17e90:	04a31563          	bne	t1,a0,17eda <__eqtf2+0x84>
   17e94:	00c8e533          	or	a0,a7,a2
   17e98:	c129                	beqz	a0,17eda <__eqtf2+0x84>
   17e9a:	66a1                	lui	a3,0x8
   17e9c:	16fd                	add	a3,a3,-1 # 7fff <exit-0x80e9>
   17e9e:	02d71863          	bne	a4,a3,17ece <__eqtf2+0x78>
   17ea2:	0107e833          	or	a6,a5,a6
   17ea6:	02080063          	beqz	a6,17ec6 <__eqtf2+0x70>
   17eaa:	577d                	li	a4,-1
   17eac:	8345                	srl	a4,a4,0x11
   17eae:	00f76c63          	bltu	a4,a5,17ec6 <__eqtf2+0x70>
   17eb2:	00186073          	csrs	fflags,16
   17eb6:	a005                	j	17ed6 <__eqtf2+0x80>
   17eb8:	011e5e13          	srl	t3,t3,0x11
   17ebc:	fefe7be3          	bgeu	t3,a5,17eb2 <__eqtf2+0x5c>
   17ec0:	4505                	li	a0,1
   17ec2:	02e31d63          	bne	t1,a4,17efc <__eqtf2+0xa6>
   17ec6:	00c8e633          	or	a2,a7,a2
   17eca:	4505                	li	a0,1
   17ecc:	ca05                	beqz	a2,17efc <__eqtf2+0xa6>
   17ece:	57fd                	li	a5,-1
   17ed0:	83c5                	srl	a5,a5,0x11
   17ed2:	ff17f0e3          	bgeu	a5,a7,17eb2 <__eqtf2+0x5c>
   17ed6:	4505                	li	a0,1
   17ed8:	8082                	ret
   17eda:	4505                	li	a0,1
   17edc:	02671063          	bne	a4,t1,17efc <__eqtf2+0xa6>
   17ee0:	01179e63          	bne	a5,a7,17efc <__eqtf2+0xa6>
   17ee4:	00c81c63          	bne	a6,a2,17efc <__eqtf2+0xa6>
   17ee8:	00d58863          	beq	a1,a3,17ef8 <__eqtf2+0xa2>
   17eec:	eb01                	bnez	a4,17efc <__eqtf2+0xa6>
   17eee:	0107e7b3          	or	a5,a5,a6
   17ef2:	00f03533          	snez	a0,a5
   17ef6:	8082                	ret
   17ef8:	4501                	li	a0,0
   17efa:	8082                	ret
   17efc:	8082                	ret

0000000000017efe <__getf2>:
   17efe:	88aa                	mv	a7,a0
   17f00:	002027f3          	frrm	a5
   17f04:	6321                	lui	t1,0x8
   17f06:	0305d813          	srl	a6,a1,0x30
   17f0a:	137d                	add	t1,t1,-1 # 7fff <exit-0x80e9>
   17f0c:	577d                	li	a4,-1
   17f0e:	8341                	srl	a4,a4,0x10
   17f10:	0306d793          	srl	a5,a3,0x30
   17f14:	00687833          	and	a6,a6,t1
   17f18:	00e5fe33          	and	t3,a1,a4
   17f1c:	0067f533          	and	a0,a5,t1
   17f20:	8f75                	and	a4,a4,a3
   17f22:	91fd                	srl	a1,a1,0x3f
   17f24:	92fd                	srl	a3,a3,0x3f
   17f26:	00681563          	bne	a6,t1,17f30 <__getf2+0x32>
   17f2a:	011e67b3          	or	a5,t3,a7
   17f2e:	ebb1                	bnez	a5,17f82 <__getf2+0x84>
   17f30:	00651563          	bne	a0,t1,17f3a <__getf2+0x3c>
   17f34:	00c767b3          	or	a5,a4,a2
   17f38:	e7a9                	bnez	a5,17f82 <__getf2+0x84>
   17f3a:	4781                	li	a5,0
   17f3c:	00081663          	bnez	a6,17f48 <__getf2+0x4a>
   17f40:	011e67b3          	or	a5,t3,a7
   17f44:	0017b793          	seqz	a5,a5
   17f48:	e129                	bnez	a0,17f8a <__getf2+0x8c>
   17f4a:	00c76333          	or	t1,a4,a2
   17f4e:	c799                	beqz	a5,17f5c <__getf2+0x5e>
   17f50:	00030a63          	beqz	t1,17f64 <__getf2+0x66>
   17f54:	4505                	li	a0,1
   17f56:	e699                	bnez	a3,17f64 <__getf2+0x66>
   17f58:	557d                	li	a0,-1
   17f5a:	8082                	ret
   17f5c:	02031863          	bnez	t1,17f8c <__getf2+0x8e>
   17f60:	557d                	li	a0,-1
   17f62:	c99d                	beqz	a1,17f98 <__getf2+0x9a>
   17f64:	8082                	ret
   17f66:	fea847e3          	blt	a6,a0,17f54 <__getf2+0x56>
   17f6a:	ffc76be3          	bltu	a4,t3,17f60 <__getf2+0x62>
   17f6e:	00ee1763          	bne	t3,a4,17f7c <__getf2+0x7e>
   17f72:	ff1667e3          	bltu	a2,a7,17f60 <__getf2+0x62>
   17f76:	4501                	li	a0,0
   17f78:	fec8f6e3          	bgeu	a7,a2,17f64 <__getf2+0x66>
   17f7c:	4505                	li	a0,1
   17f7e:	f1fd                	bnez	a1,17f64 <__getf2+0x66>
   17f80:	bfe1                	j	17f58 <__getf2+0x5a>
   17f82:	00186073          	csrs	fflags,16
   17f86:	5579                	li	a0,-2
   17f88:	8082                	ret
   17f8a:	f7e9                	bnez	a5,17f54 <__getf2+0x56>
   17f8c:	fcb69ae3          	bne	a3,a1,17f60 <__getf2+0x62>
   17f90:	fd055be3          	bge	a0,a6,17f66 <__getf2+0x68>
   17f94:	557d                	li	a0,-1
   17f96:	f6f9                	bnez	a3,17f64 <__getf2+0x66>
   17f98:	4505                	li	a0,1
   17f9a:	8082                	ret

0000000000017f9c <__letf2>:
   17f9c:	88aa                	mv	a7,a0
   17f9e:	002027f3          	frrm	a5
   17fa2:	6321                	lui	t1,0x8
   17fa4:	0305d813          	srl	a6,a1,0x30
   17fa8:	137d                	add	t1,t1,-1 # 7fff <exit-0x80e9>
   17faa:	577d                	li	a4,-1
   17fac:	8341                	srl	a4,a4,0x10
   17fae:	0306d793          	srl	a5,a3,0x30
   17fb2:	00687833          	and	a6,a6,t1
   17fb6:	00e5fe33          	and	t3,a1,a4
   17fba:	0067f533          	and	a0,a5,t1
   17fbe:	8f75                	and	a4,a4,a3
   17fc0:	91fd                	srl	a1,a1,0x3f
   17fc2:	92fd                	srl	a3,a3,0x3f
   17fc4:	00681563          	bne	a6,t1,17fce <__letf2+0x32>
   17fc8:	011e67b3          	or	a5,t3,a7
   17fcc:	ebb1                	bnez	a5,18020 <__letf2+0x84>
   17fce:	00651563          	bne	a0,t1,17fd8 <__letf2+0x3c>
   17fd2:	00c767b3          	or	a5,a4,a2
   17fd6:	e7a9                	bnez	a5,18020 <__letf2+0x84>
   17fd8:	4781                	li	a5,0
   17fda:	00081663          	bnez	a6,17fe6 <__letf2+0x4a>
   17fde:	011e67b3          	or	a5,t3,a7
   17fe2:	0017b793          	seqz	a5,a5
   17fe6:	e129                	bnez	a0,18028 <__letf2+0x8c>
   17fe8:	00c76333          	or	t1,a4,a2
   17fec:	c799                	beqz	a5,17ffa <__letf2+0x5e>
   17fee:	00030a63          	beqz	t1,18002 <__letf2+0x66>
   17ff2:	4505                	li	a0,1
   17ff4:	e699                	bnez	a3,18002 <__letf2+0x66>
   17ff6:	557d                	li	a0,-1
   17ff8:	8082                	ret
   17ffa:	02031863          	bnez	t1,1802a <__letf2+0x8e>
   17ffe:	557d                	li	a0,-1
   18000:	c99d                	beqz	a1,18036 <__letf2+0x9a>
   18002:	8082                	ret
   18004:	fea847e3          	blt	a6,a0,17ff2 <__letf2+0x56>
   18008:	ffc76be3          	bltu	a4,t3,17ffe <__letf2+0x62>
   1800c:	00ee1763          	bne	t3,a4,1801a <__letf2+0x7e>
   18010:	ff1667e3          	bltu	a2,a7,17ffe <__letf2+0x62>
   18014:	4501                	li	a0,0
   18016:	fec8f6e3          	bgeu	a7,a2,18002 <__letf2+0x66>
   1801a:	4505                	li	a0,1
   1801c:	f1fd                	bnez	a1,18002 <__letf2+0x66>
   1801e:	bfe1                	j	17ff6 <__letf2+0x5a>
   18020:	00186073          	csrs	fflags,16
   18024:	4509                	li	a0,2
   18026:	8082                	ret
   18028:	f7e9                	bnez	a5,17ff2 <__letf2+0x56>
   1802a:	fcb69ae3          	bne	a3,a1,17ffe <__letf2+0x62>
   1802e:	fd055be3          	bge	a0,a6,18004 <__letf2+0x68>
   18032:	557d                	li	a0,-1
   18034:	f6f9                	bnez	a3,18002 <__letf2+0x66>
   18036:	4505                	li	a0,1
   18038:	8082                	ret

000000000001803a <__multf3>:
   1803a:	711d                	add	sp,sp,-96
   1803c:	e8a2                	sd	s0,80(sp)
   1803e:	f456                	sd	s5,40(sp)
   18040:	e862                	sd	s8,16(sp)
   18042:	ec86                	sd	ra,88(sp)
   18044:	e4a6                	sd	s1,72(sp)
   18046:	e0ca                	sd	s2,64(sp)
   18048:	fc4e                	sd	s3,56(sp)
   1804a:	f852                	sd	s4,48(sp)
   1804c:	f05a                	sd	s6,32(sp)
   1804e:	ec5e                	sd	s7,24(sp)
   18050:	e466                	sd	s9,8(sp)
   18052:	842a                	mv	s0,a0
   18054:	8c32                	mv	s8,a2
   18056:	8ab6                	mv	s5,a3
   18058:	002029f3          	frrm	s3
   1805c:	6721                	lui	a4,0x8
   1805e:	0305d793          	srl	a5,a1,0x30
   18062:	177d                	add	a4,a4,-1 # 7fff <exit-0x80e9>
   18064:	01059493          	sll	s1,a1,0x10
   18068:	8ff9                	and	a5,a5,a4
   1806a:	2981                	sext.w	s3,s3
   1806c:	80c1                	srl	s1,s1,0x10
   1806e:	03f5db13          	srl	s6,a1,0x3f
   18072:	c785                	beqz	a5,1809a <__multf3+0x60>
   18074:	00078a1b          	sext.w	s4,a5
   18078:	06e78f63          	beq	a5,a4,180f6 <__multf3+0xbc>
   1807c:	048e                	sll	s1,s1,0x3
   1807e:	03d55713          	srl	a4,a0,0x3d
   18082:	8f45                	or	a4,a4,s1
   18084:	7a71                	lui	s4,0xffffc
   18086:	4485                	li	s1,1
   18088:	14ce                	sll	s1,s1,0x33
   1808a:	0a05                	add	s4,s4,1 # ffffffffffffc001 <__BSS_END__+0xfffffffffffe05c9>
   1808c:	8cd9                	or	s1,s1,a4
   1808e:	00351b93          	sll	s7,a0,0x3
   18092:	9a3e                	add	s4,s4,a5
   18094:	4c81                	li	s9,0
   18096:	4901                	li	s2,0
   18098:	a895                	j	1810c <__multf3+0xd2>
   1809a:	00956bb3          	or	s7,a0,s1
   1809e:	280b8263          	beqz	s7,18322 <__multf3+0x2e8>
   180a2:	c89d                	beqz	s1,180d8 <__multf3+0x9e>
   180a4:	8526                	mv	a0,s1
   180a6:	77f000ef          	jal	19024 <__clzdi2>
   180aa:	2501                	sext.w	a0,a0
   180ac:	ff150793          	add	a5,a0,-15
   180b0:	03d00713          	li	a4,61
   180b4:	0037869b          	addw	a3,a5,3
   180b8:	40f707bb          	subw	a5,a4,a5
   180bc:	00d494b3          	sll	s1,s1,a3
   180c0:	00f457b3          	srl	a5,s0,a5
   180c4:	8fc5                	or	a5,a5,s1
   180c6:	00d414b3          	sll	s1,s0,a3
   180ca:	7a71                	lui	s4,0xffffc
   180cc:	0a45                	add	s4,s4,17 # ffffffffffffc011 <__BSS_END__+0xfffffffffffe05d9>
   180ce:	8ba6                	mv	s7,s1
   180d0:	40aa0a33          	sub	s4,s4,a0
   180d4:	84be                	mv	s1,a5
   180d6:	bf7d                	j	18094 <__multf3+0x5a>
   180d8:	74d000ef          	jal	19024 <__clzdi2>
   180dc:	0405051b          	addw	a0,a0,64
   180e0:	ff150793          	add	a5,a0,-15
   180e4:	03c00713          	li	a4,60
   180e8:	fcf754e3          	bge	a4,a5,180b0 <__multf3+0x76>
   180ec:	fc37879b          	addw	a5,a5,-61
   180f0:	00f417b3          	sll	a5,s0,a5
   180f4:	bfd9                	j	180ca <__multf3+0x90>
   180f6:	00956bb3          	or	s7,a0,s1
   180fa:	220b8863          	beqz	s7,1832a <__multf3+0x2f0>
   180fe:	4905                	li	s2,1
   18100:	193e                	sll	s2,s2,0x2f
   18102:	0124b933          	sltu	s2,s1,s2
   18106:	0912                	sll	s2,s2,0x4
   18108:	8baa                	mv	s7,a0
   1810a:	4c8d                	li	s9,3
   1810c:	6621                	lui	a2,0x8
   1810e:	030ad713          	srl	a4,s5,0x30
   18112:	56fd                	li	a3,-1
   18114:	167d                	add	a2,a2,-1 # 7fff <exit-0x80e9>
   18116:	0106d413          	srl	s0,a3,0x10
   1811a:	8f71                	and	a4,a4,a2
   1811c:	008af433          	and	s0,s5,s0
   18120:	8562                	mv	a0,s8
   18122:	03fada93          	srl	s5,s5,0x3f
   18126:	20070563          	beqz	a4,18330 <__multf3+0x2f6>
   1812a:	0007079b          	sext.w	a5,a4
   1812e:	24c70e63          	beq	a4,a2,1838a <__multf3+0x350>
   18132:	040e                	sll	s0,s0,0x3
   18134:	03dc5793          	srl	a5,s8,0x3d
   18138:	8fc1                	or	a5,a5,s0
   1813a:	4405                	li	s0,1
   1813c:	144e                	sll	s0,s0,0x33
   1813e:	8c5d                	or	s0,s0,a5
   18140:	77f1                	lui	a5,0xffffc
   18142:	0785                	add	a5,a5,1 # ffffffffffffc001 <__BSS_END__+0xfffffffffffe05c9>
   18144:	003c1513          	sll	a0,s8,0x3
   18148:	97ba                	add	a5,a5,a4
   1814a:	4701                	li	a4,0
   1814c:	014786b3          	add	a3,a5,s4
   18150:	002c9793          	sll	a5,s9,0x2
   18154:	8fd9                	or	a5,a5,a4
   18156:	4629                	li	a2,10
   18158:	00168893          	add	a7,a3,1
   1815c:	2af64f63          	blt	a2,a5,1841a <__multf3+0x3e0>
   18160:	4589                	li	a1,2
   18162:	015b4633          	xor	a2,s6,s5
   18166:	24f5c463          	blt	a1,a5,183ae <__multf3+0x374>
   1816a:	17fd                	add	a5,a5,-1
   1816c:	4585                	li	a1,1
   1816e:	24f5ff63          	bgeu	a1,a5,183cc <__multf3+0x392>
   18172:	57fd                	li	a5,-1
   18174:	9381                	srl	a5,a5,0x20
   18176:	020bd713          	srl	a4,s7,0x20
   1817a:	02055593          	srl	a1,a0,0x20
   1817e:	01748fb3          	add	t6,s1,s7
   18182:	00850f33          	add	t5,a0,s0
   18186:	00fbfbb3          	and	s7,s7,a5
   1818a:	8fe9                	and	a5,a5,a0
   1818c:	00af3eb3          	sltu	t4,t5,a0
   18190:	03778533          	mul	a0,a5,s7
   18194:	009fbe33          	sltu	t3,t6,s1
   18198:	02f707b3          	mul	a5,a4,a5
   1819c:	02055813          	srl	a6,a0,0x20
   181a0:	02b70733          	mul	a4,a4,a1
   181a4:	037585b3          	mul	a1,a1,s7
   181a8:	95be                	add	a1,a1,a5
   181aa:	982e                	add	a6,a6,a1
   181ac:	00f87563          	bgeu	a6,a5,181b6 <__multf3+0x17c>
   181b0:	4785                	li	a5,1
   181b2:	1782                	sll	a5,a5,0x20
   181b4:	973e                	add	a4,a4,a5
   181b6:	57fd                	li	a5,-1
   181b8:	9381                	srl	a5,a5,0x20
   181ba:	02085313          	srl	t1,a6,0x20
   181be:	00f87833          	and	a6,a6,a5
   181c2:	8d7d                	and	a0,a0,a5
   181c4:	1802                	sll	a6,a6,0x20
   181c6:	020fd393          	srl	t2,t6,0x20
   181ca:	933a                	add	t1,t1,a4
   181cc:	982a                	add	a6,a6,a0
   181ce:	020f5713          	srl	a4,t5,0x20
   181d2:	00fff533          	and	a0,t6,a5
   181d6:	00ff77b3          	and	a5,t5,a5
   181da:	02a785b3          	mul	a1,a5,a0
   181de:	02f387b3          	mul	a5,t2,a5
   181e2:	0205d293          	srl	t0,a1,0x20
   181e6:	02e383b3          	mul	t2,t2,a4
   181ea:	02a70733          	mul	a4,a4,a0
   181ee:	973e                	add	a4,a4,a5
   181f0:	92ba                	add	t0,t0,a4
   181f2:	00f2f563          	bgeu	t0,a5,181fc <__multf3+0x1c2>
   181f6:	4785                	li	a5,1
   181f8:	1782                	sll	a5,a5,0x20
   181fa:	93be                	add	t2,t2,a5
   181fc:	57fd                	li	a5,-1
   181fe:	9381                	srl	a5,a5,0x20
   18200:	0202d713          	srl	a4,t0,0x20
   18204:	00f2f2b3          	and	t0,t0,a5
   18208:	8dfd                	and	a1,a1,a5
   1820a:	1282                	sll	t0,t0,0x20
   1820c:	02045513          	srl	a0,s0,0x20
   18210:	92ae                	add	t0,t0,a1
   18212:	0204d593          	srl	a1,s1,0x20
   18216:	8cfd                	and	s1,s1,a5
   18218:	8fe1                	and	a5,a5,s0
   1821a:	02f48a33          	mul	s4,s1,a5
   1821e:	02a58433          	mul	s0,a1,a0
   18222:	02f587b3          	mul	a5,a1,a5
   18226:	02950533          	mul	a0,a0,s1
   1822a:	00f505b3          	add	a1,a0,a5
   1822e:	020a5513          	srl	a0,s4,0x20
   18232:	952e                	add	a0,a0,a1
   18234:	00f57563          	bgeu	a0,a5,1823e <__multf3+0x204>
   18238:	4785                	li	a5,1
   1823a:	1782                	sll	a5,a5,0x20
   1823c:	943e                	add	s0,s0,a5
   1823e:	02055593          	srl	a1,a0,0x20
   18242:	95a2                	add	a1,a1,s0
   18244:	547d                	li	s0,-1
   18246:	9001                	srl	s0,s0,0x20
   18248:	008577b3          	and	a5,a0,s0
   1824c:	1782                	sll	a5,a5,0x20
   1824e:	008a7a33          	and	s4,s4,s0
   18252:	97d2                	add	a5,a5,s4
   18254:	4501                	li	a0,0
   18256:	000e8363          	beqz	t4,1825c <__multf3+0x222>
   1825a:	857e                	mv	a0,t6
   1825c:	4f81                	li	t6,0
   1825e:	000e0363          	beqz	t3,18264 <__multf3+0x22a>
   18262:	8ffa                	mv	t6,t5
   18264:	00628433          	add	s0,t0,t1
   18268:	00543f33          	sltu	t5,s0,t0
   1826c:	977a                	add	a4,a4,t5
   1826e:	971e                	add	a4,a4,t2
   18270:	01de7e33          	and	t3,t3,t4
   18274:	01e73f33          	sltu	t5,a4,t5
   18278:	953a                	add	a0,a0,a4
   1827a:	9f72                	add	t5,t5,t3
   1827c:	00e53733          	sltu	a4,a0,a4
   18280:	957e                	add	a0,a0,t6
   18282:	977a                	add	a4,a4,t5
   18284:	01f53fb3          	sltu	t6,a0,t6
   18288:	41040e33          	sub	t3,s0,a6
   1828c:	01c43eb3          	sltu	t4,s0,t3
   18290:	9fba                	add	t6,t6,a4
   18292:	40650733          	sub	a4,a0,t1
   18296:	00e53f33          	sltu	t5,a0,a4
   1829a:	41d70733          	sub	a4,a4,t4
   1829e:	4e81                	li	t4,0
   182a0:	01c47663          	bgeu	s0,t3,182ac <__multf3+0x272>
   182a4:	40a30333          	sub	t1,t1,a0
   182a8:	00133e93          	seqz	t4,t1
   182ac:	9fae                	add	t6,t6,a1
   182ae:	40fe0333          	sub	t1,t3,a5
   182b2:	40b705b3          	sub	a1,a4,a1
   182b6:	00b73533          	sltu	a0,a4,a1
   182ba:	006e3733          	sltu	a4,t3,t1
   182be:	01eeef33          	or	t5,t4,t5
   182c2:	40e78733          	sub	a4,a5,a4
   182c6:	4e81                	li	t4,0
   182c8:	006e7463          	bgeu	t3,t1,182d0 <__multf3+0x296>
   182cc:	0015be93          	seqz	t4,a1
   182d0:	95ba                	add	a1,a1,a4
   182d2:	00f5b733          	sltu	a4,a1,a5
   182d6:	977e                	add	a4,a4,t6
   182d8:	00aeeeb3          	or	t4,t4,a0
   182dc:	41e70733          	sub	a4,a4,t5
   182e0:	00d31513          	sll	a0,t1,0xd
   182e4:	41d70733          	sub	a4,a4,t4
   182e8:	01056533          	or	a0,a0,a6
   182ec:	0736                	sll	a4,a4,0xd
   182ee:	00a03533          	snez	a0,a0
   182f2:	03335313          	srl	t1,t1,0x33
   182f6:	0335d413          	srl	s0,a1,0x33
   182fa:	00656533          	or	a0,a0,t1
   182fe:	05b6                	sll	a1,a1,0xd
   18300:	00b71793          	sll	a5,a4,0xb
   18304:	8c59                	or	s0,s0,a4
   18306:	8d4d                	or	a0,a0,a1
   18308:	0007db63          	bgez	a5,1831e <__multf3+0x2e4>
   1830c:	00155793          	srl	a5,a0,0x1
   18310:	8905                	and	a0,a0,1
   18312:	8fc9                	or	a5,a5,a0
   18314:	03f41513          	sll	a0,s0,0x3f
   18318:	8d5d                	or	a0,a0,a5
   1831a:	8005                	srl	s0,s0,0x1
   1831c:	86c6                	mv	a3,a7
   1831e:	88b6                	mv	a7,a3
   18320:	a87d                	j	183de <__multf3+0x3a4>
   18322:	4481                	li	s1,0
   18324:	4a01                	li	s4,0
   18326:	4c85                	li	s9,1
   18328:	b3bd                	j	18096 <__multf3+0x5c>
   1832a:	4481                	li	s1,0
   1832c:	4c89                	li	s9,2
   1832e:	b3a5                	j	18096 <__multf3+0x5c>
   18330:	008c67b3          	or	a5,s8,s0
   18334:	c7a5                	beqz	a5,1839c <__multf3+0x362>
   18336:	c81d                	beqz	s0,1836c <__multf3+0x332>
   18338:	8522                	mv	a0,s0
   1833a:	4eb000ef          	jal	19024 <__clzdi2>
   1833e:	2501                	sext.w	a0,a0
   18340:	ff150793          	add	a5,a0,-15
   18344:	03d00713          	li	a4,61
   18348:	0037869b          	addw	a3,a5,3
   1834c:	40f707bb          	subw	a5,a4,a5
   18350:	00d41433          	sll	s0,s0,a3
   18354:	00fc57b3          	srl	a5,s8,a5
   18358:	0087e733          	or	a4,a5,s0
   1835c:	00dc1433          	sll	s0,s8,a3
   18360:	77f1                	lui	a5,0xffffc
   18362:	07c5                	add	a5,a5,17 # ffffffffffffc011 <__BSS_END__+0xfffffffffffe05d9>
   18364:	8f89                	sub	a5,a5,a0
   18366:	8522                	mv	a0,s0
   18368:	843a                	mv	s0,a4
   1836a:	b3c5                	j	1814a <__multf3+0x110>
   1836c:	4b9000ef          	jal	19024 <__clzdi2>
   18370:	0405051b          	addw	a0,a0,64
   18374:	ff150793          	add	a5,a0,-15
   18378:	03c00713          	li	a4,60
   1837c:	fcf754e3          	bge	a4,a5,18344 <__multf3+0x30a>
   18380:	fc37879b          	addw	a5,a5,-61
   18384:	00fc1733          	sll	a4,s8,a5
   18388:	bfe1                	j	18360 <__multf3+0x326>
   1838a:	008c6733          	or	a4,s8,s0
   1838e:	cf01                	beqz	a4,183a6 <__multf3+0x36c>
   18390:	82c5                	srl	a3,a3,0x11
   18392:	470d                	li	a4,3
   18394:	da86ece3          	bltu	a3,s0,1814c <__multf3+0x112>
   18398:	4941                	li	s2,16
   1839a:	bb4d                	j	1814c <__multf3+0x112>
   1839c:	4401                	li	s0,0
   1839e:	4501                	li	a0,0
   183a0:	4781                	li	a5,0
   183a2:	4705                	li	a4,1
   183a4:	b365                	j	1814c <__multf3+0x112>
   183a6:	4401                	li	s0,0
   183a8:	4501                	li	a0,0
   183aa:	4709                	li	a4,2
   183ac:	b345                	j	1814c <__multf3+0x112>
   183ae:	4585                	li	a1,1
   183b0:	00f597b3          	sll	a5,a1,a5
   183b4:	5307f593          	and	a1,a5,1328
   183b8:	e9a5                	bnez	a1,18428 <__multf3+0x3ee>
   183ba:	2407f593          	and	a1,a5,576
   183be:	24059963          	bnez	a1,18610 <__multf3+0x5d6>
   183c2:	0887f793          	and	a5,a5,136
   183c6:	da0786e3          	beqz	a5,18172 <__multf3+0x138>
   183ca:	8656                	mv	a2,s5
   183cc:	4789                	li	a5,2
   183ce:	24f70963          	beq	a4,a5,18620 <__multf3+0x5e6>
   183d2:	478d                	li	a5,3
   183d4:	22f70f63          	beq	a4,a5,18612 <__multf3+0x5d8>
   183d8:	4785                	li	a5,1
   183da:	24f70863          	beq	a4,a5,1862a <__multf3+0x5f0>
   183de:	6711                	lui	a4,0x4
   183e0:	177d                	add	a4,a4,-1 # 3fff <exit-0xc0e9>
   183e2:	9746                	add	a4,a4,a7
   183e4:	0ce05f63          	blez	a4,184c2 <__multf3+0x488>
   183e8:	00757793          	and	a5,a0,7
   183ec:	c7b9                	beqz	a5,1843a <__multf3+0x400>
   183ee:	4789                	li	a5,2
   183f0:	00196913          	or	s2,s2,1
   183f4:	04f98263          	beq	s3,a5,18438 <__multf3+0x3fe>
   183f8:	478d                	li	a5,3
   183fa:	02f98b63          	beq	s3,a5,18430 <__multf3+0x3f6>
   183fe:	02099e63          	bnez	s3,1843a <__multf3+0x400>
   18402:	00f57793          	and	a5,a0,15
   18406:	4691                	li	a3,4
   18408:	02d78963          	beq	a5,a3,1843a <__multf3+0x400>
   1840c:	00450793          	add	a5,a0,4
   18410:	00a7b6b3          	sltu	a3,a5,a0
   18414:	9436                	add	s0,s0,a3
   18416:	853e                	mv	a0,a5
   18418:	a00d                	j	1843a <__multf3+0x400>
   1841a:	46bd                	li	a3,15
   1841c:	1ed78b63          	beq	a5,a3,18612 <__multf3+0x5d8>
   18420:	46ad                	li	a3,11
   18422:	865a                	mv	a2,s6
   18424:	fad783e3          	beq	a5,a3,183ca <__multf3+0x390>
   18428:	8426                	mv	s0,s1
   1842a:	855e                	mv	a0,s7
   1842c:	8766                	mv	a4,s9
   1842e:	bf79                	j	183cc <__multf3+0x392>
   18430:	e609                	bnez	a2,1843a <__multf3+0x400>
   18432:	00850793          	add	a5,a0,8
   18436:	bfe9                	j	18410 <__multf3+0x3d6>
   18438:	fe6d                	bnez	a2,18432 <__multf3+0x3f8>
   1843a:	00b41793          	sll	a5,s0,0xb
   1843e:	0007d863          	bgez	a5,1844e <__multf3+0x414>
   18442:	57fd                	li	a5,-1
   18444:	17d2                	sll	a5,a5,0x34
   18446:	17fd                	add	a5,a5,-1
   18448:	6711                	lui	a4,0x4
   1844a:	8c7d                	and	s0,s0,a5
   1844c:	9746                	add	a4,a4,a7
   1844e:	67a1                	lui	a5,0x8
   18450:	17f9                	add	a5,a5,-2 # 7ffe <exit-0x80ea>
   18452:	66a1                	lui	a3,0x8
   18454:	04e7c263          	blt	a5,a4,18498 <__multf3+0x45e>
   18458:	00355793          	srl	a5,a0,0x3
   1845c:	03d41513          	sll	a0,s0,0x3d
   18460:	8d5d                	or	a0,a0,a5
   18462:	00345793          	srl	a5,s0,0x3
   18466:	00f6161b          	sllw	a2,a2,0xf
   1846a:	01079593          	sll	a1,a5,0x10
   1846e:	8f51                	or	a4,a4,a2
   18470:	1742                	sll	a4,a4,0x30
   18472:	81c1                	srl	a1,a1,0x10
   18474:	8dd9                	or	a1,a1,a4
   18476:	00090463          	beqz	s2,1847e <__multf3+0x444>
   1847a:	00192073          	csrs	fflags,s2
   1847e:	60e6                	ld	ra,88(sp)
   18480:	6446                	ld	s0,80(sp)
   18482:	64a6                	ld	s1,72(sp)
   18484:	6906                	ld	s2,64(sp)
   18486:	79e2                	ld	s3,56(sp)
   18488:	7a42                	ld	s4,48(sp)
   1848a:	7aa2                	ld	s5,40(sp)
   1848c:	7b02                	ld	s6,32(sp)
   1848e:	6be2                	ld	s7,24(sp)
   18490:	6c42                	ld	s8,16(sp)
   18492:	6ca2                	ld	s9,8(sp)
   18494:	6125                	add	sp,sp,96
   18496:	8082                	ret
   18498:	4709                	li	a4,2
   1849a:	02e98263          	beq	s3,a4,184be <__multf3+0x484>
   1849e:	470d                	li	a4,3
   184a0:	00e98863          	beq	s3,a4,184b0 <__multf3+0x476>
   184a4:	00099763          	bnez	s3,184b2 <__multf3+0x478>
   184a8:	4501                	li	a0,0
   184aa:	fff68713          	add	a4,a3,-1 # 7fff <exit-0x80e9>
   184ae:	a021                	j	184b6 <__multf3+0x47c>
   184b0:	de65                	beqz	a2,184a8 <__multf3+0x46e>
   184b2:	557d                	li	a0,-1
   184b4:	873e                	mv	a4,a5
   184b6:	00596913          	or	s2,s2,5
   184ba:	87aa                	mv	a5,a0
   184bc:	b76d                	j	18466 <__multf3+0x42c>
   184be:	f66d                	bnez	a2,184a8 <__multf3+0x46e>
   184c0:	bfcd                	j	184b2 <__multf3+0x478>
   184c2:	4685                	li	a3,1
   184c4:	e721                	bnez	a4,1850c <__multf3+0x4d2>
   184c6:	00757693          	and	a3,a0,7
   184ca:	87a2                	mv	a5,s0
   184cc:	ca9d                	beqz	a3,18502 <__multf3+0x4c8>
   184ce:	4689                	li	a3,2
   184d0:	00196913          	or	s2,s2,1
   184d4:	02d98663          	beq	s3,a3,18500 <__multf3+0x4c6>
   184d8:	468d                	li	a3,3
   184da:	00d98f63          	beq	s3,a3,184f8 <__multf3+0x4be>
   184de:	02099263          	bnez	s3,18502 <__multf3+0x4c8>
   184e2:	00f57693          	and	a3,a0,15
   184e6:	4591                	li	a1,4
   184e8:	00b68d63          	beq	a3,a1,18502 <__multf3+0x4c8>
   184ec:	ffc53793          	sltiu	a5,a0,-4
   184f0:	0017c793          	xor	a5,a5,1
   184f4:	97a2                	add	a5,a5,s0
   184f6:	a031                	j	18502 <__multf3+0x4c8>
   184f8:	e609                	bnez	a2,18502 <__multf3+0x4c8>
   184fa:	ff853793          	sltiu	a5,a0,-8
   184fe:	bfcd                	j	184f0 <__multf3+0x4b6>
   18500:	fe6d                	bnez	a2,184fa <__multf3+0x4c0>
   18502:	0347d693          	srl	a3,a5,0x34
   18506:	0016c693          	xor	a3,a3,1
   1850a:	8a85                	and	a3,a3,1
   1850c:	4805                	li	a6,1
   1850e:	40e80833          	sub	a6,a6,a4
   18512:	07400793          	li	a5,116
   18516:	0d07c263          	blt	a5,a6,185da <__multf3+0x5a0>
   1851a:	03f00713          	li	a4,63
   1851e:	0008079b          	sext.w	a5,a6
   18522:	05074b63          	blt	a4,a6,18578 <__multf3+0x53e>
   18526:	04000593          	li	a1,64
   1852a:	9d9d                	subw	a1,a1,a5
   1852c:	00b41733          	sll	a4,s0,a1
   18530:	00f55833          	srl	a6,a0,a5
   18534:	00b515b3          	sll	a1,a0,a1
   18538:	01076733          	or	a4,a4,a6
   1853c:	00b035b3          	snez	a1,a1
   18540:	8f4d                	or	a4,a4,a1
   18542:	00f457b3          	srl	a5,s0,a5
   18546:	00777593          	and	a1,a4,7
   1854a:	c1a5                	beqz	a1,185aa <__multf3+0x570>
   1854c:	4589                	li	a1,2
   1854e:	00196913          	or	s2,s2,1
   18552:	04b98b63          	beq	s3,a1,185a8 <__multf3+0x56e>
   18556:	458d                	li	a1,3
   18558:	04b98463          	beq	s3,a1,185a0 <__multf3+0x566>
   1855c:	04099763          	bnez	s3,185aa <__multf3+0x570>
   18560:	00f77593          	and	a1,a4,15
   18564:	4511                	li	a0,4
   18566:	04a58263          	beq	a1,a0,185aa <__multf3+0x570>
   1856a:	00470593          	add	a1,a4,4 # 4004 <exit-0xc0e4>
   1856e:	00e5b533          	sltu	a0,a1,a4
   18572:	97aa                	add	a5,a5,a0
   18574:	872e                	mv	a4,a1
   18576:	a815                	j	185aa <__multf3+0x570>
   18578:	fc07871b          	addw	a4,a5,-64
   1857c:	04000893          	li	a7,64
   18580:	00e45733          	srl	a4,s0,a4
   18584:	4581                	li	a1,0
   18586:	01180763          	beq	a6,a7,18594 <__multf3+0x55a>
   1858a:	08000593          	li	a1,128
   1858e:	9d9d                	subw	a1,a1,a5
   18590:	00b415b3          	sll	a1,s0,a1
   18594:	8dc9                	or	a1,a1,a0
   18596:	00b035b3          	snez	a1,a1
   1859a:	8f4d                	or	a4,a4,a1
   1859c:	4781                	li	a5,0
   1859e:	b765                	j	18546 <__multf3+0x50c>
   185a0:	e609                	bnez	a2,185aa <__multf3+0x570>
   185a2:	00870593          	add	a1,a4,8
   185a6:	b7e1                	j	1856e <__multf3+0x534>
   185a8:	fe6d                	bnez	a2,185a2 <__multf3+0x568>
   185aa:	00c79593          	sll	a1,a5,0xc
   185ae:	0005df63          	bgez	a1,185cc <__multf3+0x592>
   185b2:	00196913          	or	s2,s2,1
   185b6:	4781                	li	a5,0
   185b8:	4501                	li	a0,0
   185ba:	4705                	li	a4,1
   185bc:	ea0685e3          	beqz	a3,18466 <__multf3+0x42c>
   185c0:	00197693          	and	a3,s2,1
   185c4:	0686                	sll	a3,a3,0x1
   185c6:	0126e933          	or	s2,a3,s2
   185ca:	bd71                	j	18466 <__multf3+0x42c>
   185cc:	830d                	srl	a4,a4,0x3
   185ce:	03d79513          	sll	a0,a5,0x3d
   185d2:	8d59                	or	a0,a0,a4
   185d4:	838d                	srl	a5,a5,0x3
   185d6:	4701                	li	a4,0
   185d8:	b7d5                	j	185bc <__multf3+0x582>
   185da:	8d41                	or	a0,a0,s0
   185dc:	cd11                	beqz	a0,185f8 <__multf3+0x5be>
   185de:	4789                	li	a5,2
   185e0:	00196913          	or	s2,s2,1
   185e4:	02f98363          	beq	s3,a5,1860a <__multf3+0x5d0>
   185e8:	478d                	li	a5,3
   185ea:	00f98c63          	beq	s3,a5,18602 <__multf3+0x5c8>
   185ee:	4505                	li	a0,1
   185f0:	00099363          	bnez	s3,185f6 <__multf3+0x5bc>
   185f4:	4515                	li	a0,5
   185f6:	810d                	srl	a0,a0,0x3
   185f8:	00296913          	or	s2,s2,2
   185fc:	4781                	li	a5,0
   185fe:	4701                	li	a4,0
   18600:	b59d                	j	18466 <__multf3+0x42c>
   18602:	4525                	li	a0,9
   18604:	da6d                	beqz	a2,185f6 <__multf3+0x5bc>
   18606:	4505                	li	a0,1
   18608:	b7fd                	j	185f6 <__multf3+0x5bc>
   1860a:	4525                	li	a0,9
   1860c:	f66d                	bnez	a2,185f6 <__multf3+0x5bc>
   1860e:	bfe5                	j	18606 <__multf3+0x5cc>
   18610:	4941                	li	s2,16
   18612:	4785                	li	a5,1
   18614:	6721                	lui	a4,0x8
   18616:	17be                	sll	a5,a5,0x2f
   18618:	4501                	li	a0,0
   1861a:	177d                	add	a4,a4,-1 # 7fff <exit-0x80e9>
   1861c:	4601                	li	a2,0
   1861e:	b5a1                	j	18466 <__multf3+0x42c>
   18620:	6721                	lui	a4,0x8
   18622:	4781                	li	a5,0
   18624:	4501                	li	a0,0
   18626:	177d                	add	a4,a4,-1 # 7fff <exit-0x80e9>
   18628:	bd3d                	j	18466 <__multf3+0x42c>
   1862a:	4781                	li	a5,0
   1862c:	4501                	li	a0,0
   1862e:	bfc1                	j	185fe <__multf3+0x5c4>

0000000000018630 <__subtf3>:
   18630:	7179                	add	sp,sp,-48
   18632:	f406                	sd	ra,40(sp)
   18634:	f022                	sd	s0,32(sp)
   18636:	ec26                	sd	s1,24(sp)
   18638:	e84a                	sd	s2,16(sp)
   1863a:	e44e                	sd	s3,8(sp)
   1863c:	e052                	sd	s4,0(sp)
   1863e:	002024f3          	frrm	s1
   18642:	577d                	li	a4,-1
   18644:	8341                	srl	a4,a4,0x10
   18646:	0305d813          	srl	a6,a1,0x30
   1864a:	03f5d913          	srl	s2,a1,0x3f
   1864e:	8df9                	and	a1,a1,a4
   18650:	058e                	sll	a1,a1,0x3
   18652:	03d55893          	srl	a7,a0,0x3d
   18656:	67a1                	lui	a5,0x8
   18658:	17fd                	add	a5,a5,-1 # 7fff <exit-0x80e9>
   1865a:	0306d313          	srl	t1,a3,0x30
   1865e:	00b8e8b3          	or	a7,a7,a1
   18662:	03f6d593          	srl	a1,a3,0x3f
   18666:	8ef9                	and	a3,a3,a4
   18668:	00f87833          	and	a6,a6,a5
   1866c:	03d65713          	srl	a4,a2,0x3d
   18670:	068e                	sll	a3,a3,0x3
   18672:	00f37333          	and	t1,t1,a5
   18676:	2481                	sext.w	s1,s1
   18678:	89c2                	mv	s3,a6
   1867a:	050e                	sll	a0,a0,0x3
   1867c:	8f55                	or	a4,a4,a3
   1867e:	060e                	sll	a2,a2,0x3
   18680:	00f31563          	bne	t1,a5,1868a <__subtf3+0x5a>
   18684:	00c767b3          	or	a5,a4,a2
   18688:	e399                	bnez	a5,1868e <__subtf3+0x5e>
   1868a:	0015c593          	xor	a1,a1,1
   1868e:	406806bb          	subw	a3,a6,t1
   18692:	6e21                	lui	t3,0x8
   18694:	0006879b          	sext.w	a5,a3
   18698:	1e7d                	add	t3,t3,-1 # 7fff <exit-0x80e9>
   1869a:	2b259763          	bne	a1,s2,18948 <__subtf3+0x318>
   1869e:	0ef05863          	blez	a5,1878e <__subtf3+0x15e>
   186a2:	06031963          	bnez	t1,18714 <__subtf3+0xe4>
   186a6:	00c767b3          	or	a5,a4,a2
   186aa:	e791                	bnez	a5,186b6 <__subtf3+0x86>
   186ac:	05c80763          	beq	a6,t3,186fa <__subtf3+0xca>
   186b0:	8746                	mv	a4,a7
   186b2:	862a                	mv	a2,a0
   186b4:	abf9                	j	18c92 <__subtf3+0x662>
   186b6:	fff6879b          	addw	a5,a3,-1
   186ba:	ef95                	bnez	a5,186f6 <__subtf3+0xc6>
   186bc:	962a                	add	a2,a2,a0
   186be:	9746                	add	a4,a4,a7
   186c0:	00a63533          	sltu	a0,a2,a0
   186c4:	972a                	add	a4,a4,a0
   186c6:	00c71693          	sll	a3,a4,0xc
   186ca:	4781                	li	a5,0
   186cc:	0e06d463          	bgez	a3,187b4 <__subtf3+0x184>
   186d0:	66a1                	lui	a3,0x8
   186d2:	0985                	add	s3,s3,1
   186d4:	16fd                	add	a3,a3,-1 # 7fff <exit-0x80e9>
   186d6:	24d98563          	beq	s3,a3,18920 <__subtf3+0x2f0>
   186da:	56fd                	li	a3,-1
   186dc:	16ce                	sll	a3,a3,0x33
   186de:	16fd                	add	a3,a3,-1
   186e0:	8ef9                	and	a3,a3,a4
   186e2:	00165713          	srl	a4,a2,0x1
   186e6:	8a05                	and	a2,a2,1
   186e8:	8f51                	or	a4,a4,a2
   186ea:	03f69613          	sll	a2,a3,0x3f
   186ee:	8e59                	or	a2,a2,a4
   186f0:	0016d713          	srl	a4,a3,0x1
   186f4:	a0c1                	j	187b4 <__subtf3+0x184>
   186f6:	03c81463          	bne	a6,t3,1871e <__subtf3+0xee>
   186fa:	00a8e633          	or	a2,a7,a0
   186fe:	6c060c63          	beqz	a2,18dd6 <__subtf3+0x7a6>
   18702:	0328d793          	srl	a5,a7,0x32
   18706:	0017c793          	xor	a5,a5,1
   1870a:	8b85                	and	a5,a5,1
   1870c:	0792                	sll	a5,a5,0x4
   1870e:	8746                	mv	a4,a7
   18710:	862a                	mv	a2,a0
   18712:	a04d                	j	187b4 <__subtf3+0x184>
   18714:	ffc803e3          	beq	a6,t3,186fa <__subtf3+0xca>
   18718:	4685                	li	a3,1
   1871a:	16ce                	sll	a3,a3,0x33
   1871c:	8f55                	or	a4,a4,a3
   1871e:	07400693          	li	a3,116
   18722:	06f6c163          	blt	a3,a5,18784 <__subtf3+0x154>
   18726:	03f00693          	li	a3,63
   1872a:	02f6c963          	blt	a3,a5,1875c <__subtf3+0x12c>
   1872e:	04000593          	li	a1,64
   18732:	9d9d                	subw	a1,a1,a5
   18734:	00b716b3          	sll	a3,a4,a1
   18738:	00f65833          	srl	a6,a2,a5
   1873c:	00b615b3          	sll	a1,a2,a1
   18740:	0106e6b3          	or	a3,a3,a6
   18744:	00b035b3          	snez	a1,a1
   18748:	8ecd                	or	a3,a3,a1
   1874a:	00f75733          	srl	a4,a4,a5
   1874e:	9536                	add	a0,a0,a3
   18750:	9746                	add	a4,a4,a7
   18752:	00d536b3          	sltu	a3,a0,a3
   18756:	862a                	mv	a2,a0
   18758:	9736                	add	a4,a4,a3
   1875a:	b7b5                	j	186c6 <__subtf3+0x96>
   1875c:	fc07869b          	addw	a3,a5,-64
   18760:	04000813          	li	a6,64
   18764:	00d756b3          	srl	a3,a4,a3
   18768:	4581                	li	a1,0
   1876a:	01078763          	beq	a5,a6,18778 <__subtf3+0x148>
   1876e:	08000593          	li	a1,128
   18772:	9d9d                	subw	a1,a1,a5
   18774:	00b715b3          	sll	a1,a4,a1
   18778:	8dd1                	or	a1,a1,a2
   1877a:	00b035b3          	snez	a1,a1
   1877e:	8ecd                	or	a3,a3,a1
   18780:	4701                	li	a4,0
   18782:	b7f1                	j	1874e <__subtf3+0x11e>
   18784:	00c766b3          	or	a3,a4,a2
   18788:	00d036b3          	snez	a3,a3
   1878c:	bfd5                	j	18780 <__subtf3+0x150>
   1878e:	c7e9                	beqz	a5,18858 <__subtf3+0x228>
   18790:	08081263          	bnez	a6,18814 <__subtf3+0x1e4>
   18794:	00a8e7b3          	or	a5,a7,a0
   18798:	e395                	bnez	a5,187bc <__subtf3+0x18c>
   1879a:	63c31c63          	bne	t1,t3,18dd2 <__subtf3+0x7a2>
   1879e:	00c767b3          	or	a5,a4,a2
   187a2:	62078663          	beqz	a5,18dce <__subtf3+0x79e>
   187a6:	03275793          	srl	a5,a4,0x32
   187aa:	0017c793          	xor	a5,a5,1
   187ae:	8b85                	and	a5,a5,1
   187b0:	0792                	sll	a5,a5,0x4
   187b2:	899a                	mv	s3,t1
   187b4:	88ba                	mv	a7,a4
   187b6:	8532                	mv	a0,a2
   187b8:	4701                	li	a4,0
   187ba:	ab31                	j	18cd6 <__subtf3+0x6a6>
   187bc:	fff6c793          	not	a5,a3
   187c0:	2781                	sext.w	a5,a5
   187c2:	eb81                	bnez	a5,187d2 <__subtf3+0x1a2>
   187c4:	962a                	add	a2,a2,a0
   187c6:	9746                	add	a4,a4,a7
   187c8:	00a63533          	sltu	a0,a2,a0
   187cc:	972a                	add	a4,a4,a0
   187ce:	899a                	mv	s3,t1
   187d0:	bddd                	j	186c6 <__subtf3+0x96>
   187d2:	fdc306e3          	beq	t1,t3,1879e <__subtf3+0x16e>
   187d6:	07400693          	li	a3,116
   187da:	06f6ca63          	blt	a3,a5,1884e <__subtf3+0x21e>
   187de:	03f00693          	li	a3,63
   187e2:	04f6c263          	blt	a3,a5,18826 <__subtf3+0x1f6>
   187e6:	04000593          	li	a1,64
   187ea:	9d9d                	subw	a1,a1,a5
   187ec:	00b896b3          	sll	a3,a7,a1
   187f0:	00f55833          	srl	a6,a0,a5
   187f4:	00b515b3          	sll	a1,a0,a1
   187f8:	0106e6b3          	or	a3,a3,a6
   187fc:	00b035b3          	snez	a1,a1
   18800:	8ecd                	or	a3,a3,a1
   18802:	00f8d7b3          	srl	a5,a7,a5
   18806:	9636                	add	a2,a2,a3
   18808:	97ba                	add	a5,a5,a4
   1880a:	00d636b3          	sltu	a3,a2,a3
   1880e:	00d78733          	add	a4,a5,a3
   18812:	bf75                	j	187ce <__subtf3+0x19e>
   18814:	f9c305e3          	beq	t1,t3,1879e <__subtf3+0x16e>
   18818:	40d007bb          	negw	a5,a3
   1881c:	4685                	li	a3,1
   1881e:	16ce                	sll	a3,a3,0x33
   18820:	00d8e8b3          	or	a7,a7,a3
   18824:	bf4d                	j	187d6 <__subtf3+0x1a6>
   18826:	fc07869b          	addw	a3,a5,-64
   1882a:	04000813          	li	a6,64
   1882e:	00d8d6b3          	srl	a3,a7,a3
   18832:	4581                	li	a1,0
   18834:	01078763          	beq	a5,a6,18842 <__subtf3+0x212>
   18838:	08000593          	li	a1,128
   1883c:	9d9d                	subw	a1,a1,a5
   1883e:	00b895b3          	sll	a1,a7,a1
   18842:	8dc9                	or	a1,a1,a0
   18844:	00b035b3          	snez	a1,a1
   18848:	8ecd                	or	a3,a3,a1
   1884a:	4781                	li	a5,0
   1884c:	bf6d                	j	18806 <__subtf3+0x1d6>
   1884e:	00a8e6b3          	or	a3,a7,a0
   18852:	00d036b3          	snez	a3,a3
   18856:	bfd5                	j	1884a <__subtf3+0x21a>
   18858:	00180693          	add	a3,a6,1
   1885c:	03169e93          	sll	t4,a3,0x31
   18860:	65a1                	lui	a1,0x8
   18862:	032ede93          	srl	t4,t4,0x32
   18866:	15f9                	add	a1,a1,-2 # 7ffe <exit-0x80ea>
   18868:	060e9d63          	bnez	t4,188e2 <__subtf3+0x2b2>
   1886c:	00a8e6b3          	or	a3,a7,a0
   18870:	02081963          	bnez	a6,188a2 <__subtf3+0x272>
   18874:	56068863          	beqz	a3,18de4 <__subtf3+0x7b4>
   18878:	00c766b3          	or	a3,a4,a2
   1887c:	56068863          	beqz	a3,18dec <__subtf3+0x7bc>
   18880:	962a                	add	a2,a2,a0
   18882:	9746                	add	a4,a4,a7
   18884:	00a63533          	sltu	a0,a2,a0
   18888:	00a708b3          	add	a7,a4,a0
   1888c:	00c89713          	sll	a4,a7,0xc
   18890:	26075b63          	bgez	a4,18b06 <__subtf3+0x4d6>
   18894:	577d                	li	a4,-1
   18896:	174e                	sll	a4,a4,0x33
   18898:	177d                	add	a4,a4,-1
   1889a:	00e8f733          	and	a4,a7,a4
   1889e:	4985                	li	s3,1
   188a0:	bf11                	j	187b4 <__subtf3+0x184>
   188a2:	03c81563          	bne	a6,t3,188cc <__subtf3+0x29c>
   188a6:	54068b63          	beqz	a3,18dfc <__subtf3+0x7cc>
   188aa:	0328d793          	srl	a5,a7,0x32
   188ae:	0017c793          	xor	a5,a5,1
   188b2:	8b85                	and	a5,a5,1
   188b4:	0792                	sll	a5,a5,0x4
   188b6:	01031e63          	bne	t1,a6,188d2 <__subtf3+0x2a2>
   188ba:	00c765b3          	or	a1,a4,a2
   188be:	c989                	beqz	a1,188d0 <__subtf3+0x2a0>
   188c0:	00d71593          	sll	a1,a4,0xd
   188c4:	0005c663          	bltz	a1,188d0 <__subtf3+0x2a0>
   188c8:	47c1                	li	a5,16
   188ca:	a019                	j	188d0 <__subtf3+0x2a0>
   188cc:	ffc307e3          	beq	t1,t3,188ba <__subtf3+0x28a>
   188d0:	c691                	beqz	a3,188dc <__subtf3+0x2ac>
   188d2:	8f51                	or	a4,a4,a2
   188d4:	2c071e63          	bnez	a4,18bb0 <__subtf3+0x580>
   188d8:	8746                	mv	a4,a7
   188da:	862a                	mv	a2,a0
   188dc:	69a1                	lui	s3,0x8
   188de:	19fd                	add	s3,s3,-1 # 7fff <exit-0x80e9>
   188e0:	bdd1                	j	187b4 <__subtf3+0x184>
   188e2:	01c68e63          	beq	a3,t3,188fe <__subtf3+0x2ce>
   188e6:	962a                	add	a2,a2,a0
   188e8:	00a63533          	sltu	a0,a2,a0
   188ec:	9746                	add	a4,a4,a7
   188ee:	972a                	add	a4,a4,a0
   188f0:	03f71593          	sll	a1,a4,0x3f
   188f4:	8205                	srl	a2,a2,0x1
   188f6:	8e4d                	or	a2,a2,a1
   188f8:	8305                	srl	a4,a4,0x1
   188fa:	89b6                	mv	s3,a3
   188fc:	bd65                	j	187b4 <__subtf3+0x184>
   188fe:	cc99                	beqz	s1,1891c <__subtf3+0x2ec>
   18900:	478d                	li	a5,3
   18902:	00f49863          	bne	s1,a5,18912 <__subtf3+0x2e2>
   18906:	00090b63          	beqz	s2,1891c <__subtf3+0x2ec>
   1890a:	577d                	li	a4,-1
   1890c:	567d                	li	a2,-1
   1890e:	89ae                	mv	s3,a1
   18910:	a815                	j	18944 <__subtf3+0x314>
   18912:	4789                	li	a5,2
   18914:	fef49be3          	bne	s1,a5,1890a <__subtf3+0x2da>
   18918:	fe0909e3          	beqz	s2,1890a <__subtf3+0x2da>
   1891c:	89b6                	mv	s3,a3
   1891e:	a00d                	j	18940 <__subtf3+0x310>
   18920:	c085                	beqz	s1,18940 <__subtf3+0x310>
   18922:	478d                	li	a5,3
   18924:	00f49963          	bne	s1,a5,18936 <__subtf3+0x306>
   18928:	00090c63          	beqz	s2,18940 <__subtf3+0x310>
   1892c:	69a1                	lui	s3,0x8
   1892e:	577d                	li	a4,-1
   18930:	567d                	li	a2,-1
   18932:	19f9                	add	s3,s3,-2 # 7ffe <exit-0x80ea>
   18934:	a801                	j	18944 <__subtf3+0x314>
   18936:	4789                	li	a5,2
   18938:	fef49ae3          	bne	s1,a5,1892c <__subtf3+0x2fc>
   1893c:	fe0908e3          	beqz	s2,1892c <__subtf3+0x2fc>
   18940:	4701                	li	a4,0
   18942:	4601                	li	a2,0
   18944:	4795                	li	a5,5
   18946:	b5bd                	j	187b4 <__subtf3+0x184>
   18948:	0af05863          	blez	a5,189f8 <__subtf3+0x3c8>
   1894c:	06031763          	bnez	t1,189ba <__subtf3+0x38a>
   18950:	00c767b3          	or	a5,a4,a2
   18954:	d4078ce3          	beqz	a5,186ac <__subtf3+0x7c>
   18958:	fff6879b          	addw	a5,a3,-1
   1895c:	e38d                	bnez	a5,1897e <__subtf3+0x34e>
   1895e:	40c50633          	sub	a2,a0,a2
   18962:	40e88733          	sub	a4,a7,a4
   18966:	00c53533          	sltu	a0,a0,a2
   1896a:	8f09                	sub	a4,a4,a0
   1896c:	00c71793          	sll	a5,a4,0xc
   18970:	3207d163          	bgez	a5,18c92 <__subtf3+0x662>
   18974:	00d71413          	sll	s0,a4,0xd
   18978:	8035                	srl	s0,s0,0xd
   1897a:	8a32                	mv	s4,a2
   1897c:	a49d                	j	18be2 <__subtf3+0x5b2>
   1897e:	d7c80ee3          	beq	a6,t3,186fa <__subtf3+0xca>
   18982:	07400693          	li	a3,116
   18986:	06f6c463          	blt	a3,a5,189ee <__subtf3+0x3be>
   1898a:	03f00693          	li	a3,63
   1898e:	02f6cc63          	blt	a3,a5,189c6 <__subtf3+0x396>
   18992:	04000593          	li	a1,64
   18996:	9d9d                	subw	a1,a1,a5
   18998:	00b716b3          	sll	a3,a4,a1
   1899c:	00f65833          	srl	a6,a2,a5
   189a0:	00b615b3          	sll	a1,a2,a1
   189a4:	0106e6b3          	or	a3,a3,a6
   189a8:	00b035b3          	snez	a1,a1
   189ac:	8ecd                	or	a3,a3,a1
   189ae:	00f75733          	srl	a4,a4,a5
   189b2:	40d506b3          	sub	a3,a0,a3
   189b6:	8636                	mv	a2,a3
   189b8:	b76d                	j	18962 <__subtf3+0x332>
   189ba:	d5c800e3          	beq	a6,t3,186fa <__subtf3+0xca>
   189be:	4685                	li	a3,1
   189c0:	16ce                	sll	a3,a3,0x33
   189c2:	8f55                	or	a4,a4,a3
   189c4:	bf7d                	j	18982 <__subtf3+0x352>
   189c6:	fc07869b          	addw	a3,a5,-64
   189ca:	04000813          	li	a6,64
   189ce:	00d756b3          	srl	a3,a4,a3
   189d2:	4581                	li	a1,0
   189d4:	01078763          	beq	a5,a6,189e2 <__subtf3+0x3b2>
   189d8:	08000593          	li	a1,128
   189dc:	9d9d                	subw	a1,a1,a5
   189de:	00b715b3          	sll	a1,a4,a1
   189e2:	8dd1                	or	a1,a1,a2
   189e4:	00b035b3          	snez	a1,a1
   189e8:	8ecd                	or	a3,a3,a1
   189ea:	4701                	li	a4,0
   189ec:	b7d9                	j	189b2 <__subtf3+0x382>
   189ee:	00c766b3          	or	a3,a4,a2
   189f2:	00d036b3          	snez	a3,a3
   189f6:	bfd5                	j	189ea <__subtf3+0x3ba>
   189f8:	cff9                	beqz	a5,18ad6 <__subtf3+0x4a6>
   189fa:	08081963          	bnez	a6,18a8c <__subtf3+0x45c>
   189fe:	00a8e7b3          	or	a5,a7,a0
   18a02:	e385                	bnez	a5,18a22 <__subtf3+0x3f2>
   18a04:	3dc31d63          	bne	t1,t3,18dde <__subtf3+0x7ae>
   18a08:	00c767b3          	or	a5,a4,a2
   18a0c:	3c078763          	beqz	a5,18dda <__subtf3+0x7aa>
   18a10:	03275793          	srl	a5,a4,0x32
   18a14:	0017c793          	xor	a5,a5,1
   18a18:	8b85                	and	a5,a5,1
   18a1a:	0792                	sll	a5,a5,0x4
   18a1c:	899a                	mv	s3,t1
   18a1e:	892e                	mv	s2,a1
   18a20:	bb51                	j	187b4 <__subtf3+0x184>
   18a22:	fff6c793          	not	a5,a3
   18a26:	2781                	sext.w	a5,a5
   18a28:	ef81                	bnez	a5,18a40 <__subtf3+0x410>
   18a2a:	40a60533          	sub	a0,a2,a0
   18a2e:	00a637b3          	sltu	a5,a2,a0
   18a32:	41170733          	sub	a4,a4,a7
   18a36:	862a                	mv	a2,a0
   18a38:	8f1d                	sub	a4,a4,a5
   18a3a:	899a                	mv	s3,t1
   18a3c:	892e                	mv	s2,a1
   18a3e:	b73d                	j	1896c <__subtf3+0x33c>
   18a40:	fdc304e3          	beq	t1,t3,18a08 <__subtf3+0x3d8>
   18a44:	07400693          	li	a3,116
   18a48:	08f6c263          	blt	a3,a5,18acc <__subtf3+0x49c>
   18a4c:	03f00693          	li	a3,63
   18a50:	04f6c763          	blt	a3,a5,18a9e <__subtf3+0x46e>
   18a54:	04000813          	li	a6,64
   18a58:	40f8083b          	subw	a6,a6,a5
   18a5c:	010896b3          	sll	a3,a7,a6
   18a60:	00f55e33          	srl	t3,a0,a5
   18a64:	01051833          	sll	a6,a0,a6
   18a68:	01c6e6b3          	or	a3,a3,t3
   18a6c:	01003833          	snez	a6,a6
   18a70:	0106e6b3          	or	a3,a3,a6
   18a74:	00f8d7b3          	srl	a5,a7,a5
   18a78:	40d606b3          	sub	a3,a2,a3
   18a7c:	00d63533          	sltu	a0,a2,a3
   18a80:	40f707b3          	sub	a5,a4,a5
   18a84:	8636                	mv	a2,a3
   18a86:	40a78733          	sub	a4,a5,a0
   18a8a:	bf45                	j	18a3a <__subtf3+0x40a>
   18a8c:	f7c30ee3          	beq	t1,t3,18a08 <__subtf3+0x3d8>
   18a90:	40d007bb          	negw	a5,a3
   18a94:	4685                	li	a3,1
   18a96:	16ce                	sll	a3,a3,0x33
   18a98:	00d8e8b3          	or	a7,a7,a3
   18a9c:	b765                	j	18a44 <__subtf3+0x414>
   18a9e:	fc07869b          	addw	a3,a5,-64
   18aa2:	04000e13          	li	t3,64
   18aa6:	00d8d6b3          	srl	a3,a7,a3
   18aaa:	4801                	li	a6,0
   18aac:	01c78863          	beq	a5,t3,18abc <__subtf3+0x48c>
   18ab0:	08000813          	li	a6,128
   18ab4:	40f8083b          	subw	a6,a6,a5
   18ab8:	01089833          	sll	a6,a7,a6
   18abc:	00a86833          	or	a6,a6,a0
   18ac0:	01003833          	snez	a6,a6
   18ac4:	0106e6b3          	or	a3,a3,a6
   18ac8:	4781                	li	a5,0
   18aca:	b77d                	j	18a78 <__subtf3+0x448>
   18acc:	00a8e6b3          	or	a3,a7,a0
   18ad0:	00d036b3          	snez	a3,a3
   18ad4:	bfd5                	j	18ac8 <__subtf3+0x498>
   18ad6:	00180693          	add	a3,a6,1
   18ada:	03169e93          	sll	t4,a3,0x31
   18ade:	032ede93          	srl	t4,t4,0x32
   18ae2:	0c0e9c63          	bnez	t4,18bba <__subtf3+0x58a>
   18ae6:	00c766b3          	or	a3,a4,a2
   18aea:	00a8eeb3          	or	t4,a7,a0
   18aee:	06081763          	bnez	a6,18b5c <__subtf3+0x52c>
   18af2:	020e9263          	bnez	t4,18b16 <__subtf3+0x4e6>
   18af6:	2e069963          	bnez	a3,18de8 <__subtf3+0x7b8>
   18afa:	ffe48913          	add	s2,s1,-2
   18afe:	00193913          	seqz	s2,s2
   18b02:	4881                	li	a7,0
   18b04:	4601                	li	a2,0
   18b06:	00c8e533          	or	a0,a7,a2
   18b0a:	18051663          	bnez	a0,18c96 <__subtf3+0x666>
   18b0e:	4881                	li	a7,0
   18b10:	4981                	li	s3,0
   18b12:	4781                	li	a5,0
   18b14:	a40d                	j	18d36 <__subtf3+0x706>
   18b16:	2c068b63          	beqz	a3,18dec <__subtf3+0x7bc>
   18b1a:	40c506b3          	sub	a3,a0,a2
   18b1e:	00d53833          	sltu	a6,a0,a3
   18b22:	40e887b3          	sub	a5,a7,a4
   18b26:	410787b3          	sub	a5,a5,a6
   18b2a:	00c79813          	sll	a6,a5,0xc
   18b2e:	00085d63          	bgez	a6,18b48 <__subtf3+0x518>
   18b32:	40a60533          	sub	a0,a2,a0
   18b36:	00a637b3          	sltu	a5,a2,a0
   18b3a:	41170733          	sub	a4,a4,a7
   18b3e:	862a                	mv	a2,a0
   18b40:	40f708b3          	sub	a7,a4,a5
   18b44:	892e                	mv	s2,a1
   18b46:	b7c1                	j	18b06 <__subtf3+0x4d6>
   18b48:	00f6e633          	or	a2,a3,a5
   18b4c:	2a061263          	bnez	a2,18df0 <__subtf3+0x7c0>
   18b50:	ffe48913          	add	s2,s1,-2
   18b54:	00193913          	seqz	s2,s2
   18b58:	4881                	li	a7,0
   18b5a:	b775                	j	18b06 <__subtf3+0x4d6>
   18b5c:	03c81963          	bne	a6,t3,18b8e <__subtf3+0x55e>
   18b60:	280e8b63          	beqz	t4,18df6 <__subtf3+0x7c6>
   18b64:	0328d793          	srl	a5,a7,0x32
   18b68:	0017c793          	xor	a5,a5,1
   18b6c:	8b85                	and	a5,a5,1
   18b6e:	0792                	sll	a5,a5,0x4
   18b70:	03031e63          	bne	t1,a6,18bac <__subtf3+0x57c>
   18b74:	ce99                	beqz	a3,18b92 <__subtf3+0x562>
   18b76:	4805                	li	a6,1
   18b78:	00d71313          	sll	t1,a4,0xd
   18b7c:	184a                	sll	a6,a6,0x32
   18b7e:	00034a63          	bltz	t1,18b92 <__subtf3+0x562>
   18b82:	892e                	mv	s2,a1
   18b84:	020e8063          	beqz	t4,18ba4 <__subtf3+0x574>
   18b88:	4901                	li	s2,0
   18b8a:	8742                	mv	a4,a6
   18b8c:	a819                	j	18ba2 <__subtf3+0x572>
   18b8e:	ffc303e3          	beq	t1,t3,18b74 <__subtf3+0x544>
   18b92:	000e9d63          	bnez	t4,18bac <__subtf3+0x57c>
   18b96:	892e                	mv	s2,a1
   18b98:	d40692e3          	bnez	a3,188dc <__subtf3+0x2ac>
   18b9c:	4705                	li	a4,1
   18b9e:	4901                	li	s2,0
   18ba0:	174a                	sll	a4,a4,0x32
   18ba2:	4601                	li	a2,0
   18ba4:	69a1                	lui	s3,0x8
   18ba6:	19fd                	add	s3,s3,-1 # 7fff <exit-0x80e9>
   18ba8:	47c1                	li	a5,16
   18baa:	b129                	j	187b4 <__subtf3+0x184>
   18bac:	d20686e3          	beqz	a3,188d8 <__subtf3+0x2a8>
   18bb0:	4705                	li	a4,1
   18bb2:	4901                	li	s2,0
   18bb4:	174a                	sll	a4,a4,0x32
   18bb6:	4601                	li	a2,0
   18bb8:	b315                	j	188dc <__subtf3+0x2ac>
   18bba:	40c507b3          	sub	a5,a0,a2
   18bbe:	00f536b3          	sltu	a3,a0,a5
   18bc2:	40e88433          	sub	s0,a7,a4
   18bc6:	8c15                	sub	s0,s0,a3
   18bc8:	00c41693          	sll	a3,s0,0xc
   18bcc:	8a3e                	mv	s4,a5
   18bce:	0606d563          	bgez	a3,18c38 <__subtf3+0x608>
   18bd2:	40a60a33          	sub	s4,a2,a0
   18bd6:	41170433          	sub	s0,a4,a7
   18bda:	01463633          	sltu	a2,a2,s4
   18bde:	8c11                	sub	s0,s0,a2
   18be0:	892e                	mv	s2,a1
   18be2:	cc39                	beqz	s0,18c40 <__subtf3+0x610>
   18be4:	8522                	mv	a0,s0
   18be6:	43e000ef          	jal	19024 <__clzdi2>
   18bea:	ff45061b          	addw	a2,a0,-12
   18bee:	04000713          	li	a4,64
   18bf2:	9f11                	subw	a4,a4,a2
   18bf4:	00c41433          	sll	s0,s0,a2
   18bf8:	00ea5733          	srl	a4,s4,a4
   18bfc:	8f41                	or	a4,a4,s0
   18bfe:	00ca1433          	sll	s0,s4,a2
   18c02:	09364163          	blt	a2,s3,18c84 <__subtf3+0x654>
   18c06:	4136063b          	subw	a2,a2,s3
   18c0a:	0016089b          	addw	a7,a2,1
   18c0e:	03f00793          	li	a5,63
   18c12:	0517c563          	blt	a5,a7,18c5c <__subtf3+0x62c>
   18c16:	04000793          	li	a5,64
   18c1a:	411787bb          	subw	a5,a5,a7
   18c1e:	00f71633          	sll	a2,a4,a5
   18c22:	011456b3          	srl	a3,s0,a7
   18c26:	00f417b3          	sll	a5,s0,a5
   18c2a:	8e55                	or	a2,a2,a3
   18c2c:	00f037b3          	snez	a5,a5
   18c30:	8e5d                	or	a2,a2,a5
   18c32:	011758b3          	srl	a7,a4,a7
   18c36:	bdc1                	j	18b06 <__subtf3+0x4d6>
   18c38:	0087e633          	or	a2,a5,s0
   18c3c:	f25d                	bnez	a2,18be2 <__subtf3+0x5b2>
   18c3e:	bf09                	j	18b50 <__subtf3+0x520>
   18c40:	8552                	mv	a0,s4
   18c42:	3e2000ef          	jal	19024 <__clzdi2>
   18c46:	0345061b          	addw	a2,a0,52
   18c4a:	03f00793          	li	a5,63
   18c4e:	fac7d0e3          	bge	a5,a2,18bee <__subtf3+0x5be>
   18c52:	ff45071b          	addw	a4,a0,-12
   18c56:	00ea1733          	sll	a4,s4,a4
   18c5a:	b765                	j	18c02 <__subtf3+0x5d2>
   18c5c:	fc16061b          	addw	a2,a2,-63
   18c60:	04000593          	li	a1,64
   18c64:	00c75633          	srl	a2,a4,a2
   18c68:	4781                	li	a5,0
   18c6a:	00b88863          	beq	a7,a1,18c7a <__subtf3+0x64a>
   18c6e:	08000793          	li	a5,128
   18c72:	411787bb          	subw	a5,a5,a7
   18c76:	00f717b3          	sll	a5,a4,a5
   18c7a:	8fc1                	or	a5,a5,s0
   18c7c:	00f037b3          	snez	a5,a5
   18c80:	8e5d                	or	a2,a2,a5
   18c82:	bdd9                	j	18b58 <__subtf3+0x528>
   18c84:	57fd                	li	a5,-1
   18c86:	17ce                	sll	a5,a5,0x33
   18c88:	17fd                	add	a5,a5,-1
   18c8a:	40c989b3          	sub	s3,s3,a2
   18c8e:	8f7d                	and	a4,a4,a5
   18c90:	8622                	mv	a2,s0
   18c92:	4781                	li	a5,0
   18c94:	b605                	j	187b4 <__subtf3+0x184>
   18c96:	00161693          	sll	a3,a2,0x1
   18c9a:	03f65793          	srl	a5,a2,0x3f
   18c9e:	00189713          	sll	a4,a7,0x1
   18ca2:	0076f593          	and	a1,a3,7
   18ca6:	973e                	add	a4,a4,a5
   18ca8:	4781                	li	a5,0
   18caa:	c185                	beqz	a1,18cca <__subtf3+0x69a>
   18cac:	4789                	li	a5,2
   18cae:	06f48463          	beq	s1,a5,18d16 <__subtf3+0x6e6>
   18cb2:	478d                	li	a5,3
   18cb4:	04f48863          	beq	s1,a5,18d04 <__subtf3+0x6d4>
   18cb8:	4785                	li	a5,1
   18cba:	e881                	bnez	s1,18cca <__subtf3+0x69a>
   18cbc:	00f6f593          	and	a1,a3,15
   18cc0:	4511                	li	a0,4
   18cc2:	ffc6b693          	sltiu	a3,a3,-4
   18cc6:	04a59463          	bne	a1,a0,18d0e <__subtf3+0x6de>
   18cca:	9351                	srl	a4,a4,0x34
   18ccc:	00174713          	xor	a4,a4,1
   18cd0:	8b05                	and	a4,a4,1
   18cd2:	8532                	mv	a0,a2
   18cd4:	4981                	li	s3,0
   18cd6:	00767693          	and	a3,a2,7
   18cda:	caa9                	beqz	a3,18d2c <__subtf3+0x6fc>
   18cdc:	4689                	li	a3,2
   18cde:	0017e793          	or	a5,a5,1
   18ce2:	04d48363          	beq	s1,a3,18d28 <__subtf3+0x6f8>
   18ce6:	468d                	li	a3,3
   18ce8:	02d48b63          	beq	s1,a3,18d1e <__subtf3+0x6ee>
   18cec:	e0a1                	bnez	s1,18d2c <__subtf3+0x6fc>
   18cee:	00f67693          	and	a3,a2,15
   18cf2:	4591                	li	a1,4
   18cf4:	02b68c63          	beq	a3,a1,18d2c <__subtf3+0x6fc>
   18cf8:	00460513          	add	a0,a2,4
   18cfc:	00c53633          	sltu	a2,a0,a2
   18d00:	98b2                	add	a7,a7,a2
   18d02:	a02d                	j	18d2c <__subtf3+0x6fc>
   18d04:	4785                	li	a5,1
   18d06:	fc0912e3          	bnez	s2,18cca <__subtf3+0x69a>
   18d0a:	ff86b693          	sltiu	a3,a3,-8
   18d0e:	0016c693          	xor	a3,a3,1
   18d12:	9736                	add	a4,a4,a3
   18d14:	bf5d                	j	18cca <__subtf3+0x69a>
   18d16:	4785                	li	a5,1
   18d18:	fa0909e3          	beqz	s2,18cca <__subtf3+0x69a>
   18d1c:	b7fd                	j	18d0a <__subtf3+0x6da>
   18d1e:	00091763          	bnez	s2,18d2c <__subtf3+0x6fc>
   18d22:	00860513          	add	a0,a2,8
   18d26:	bfd9                	j	18cfc <__subtf3+0x6cc>
   18d28:	fe091de3          	bnez	s2,18d22 <__subtf3+0x6f2>
   18d2c:	c709                	beqz	a4,18d36 <__subtf3+0x706>
   18d2e:	0017f713          	and	a4,a5,1
   18d32:	0706                	sll	a4,a4,0x1
   18d34:	8fd9                	or	a5,a5,a4
   18d36:	00c89713          	sll	a4,a7,0xc
   18d3a:	00075c63          	bgez	a4,18d52 <__subtf3+0x722>
   18d3e:	6721                	lui	a4,0x8
   18d40:	0985                	add	s3,s3,1
   18d42:	177d                	add	a4,a4,-1 # 7fff <exit-0x80e9>
   18d44:	06e98163          	beq	s3,a4,18da6 <__subtf3+0x776>
   18d48:	577d                	li	a4,-1
   18d4a:	174e                	sll	a4,a4,0x33
   18d4c:	177d                	add	a4,a4,-1
   18d4e:	00e8f8b3          	and	a7,a7,a4
   18d52:	03d89713          	sll	a4,a7,0x3d
   18d56:	810d                	srl	a0,a0,0x3
   18d58:	8d59                	or	a0,a0,a4
   18d5a:	6721                	lui	a4,0x8
   18d5c:	177d                	add	a4,a4,-1 # 7fff <exit-0x80e9>
   18d5e:	0038d893          	srl	a7,a7,0x3
   18d62:	00e99a63          	bne	s3,a4,18d76 <__subtf3+0x746>
   18d66:	01156533          	or	a0,a0,a7
   18d6a:	4881                	li	a7,0
   18d6c:	c509                	beqz	a0,18d76 <__subtf3+0x746>
   18d6e:	4885                	li	a7,1
   18d70:	18be                	sll	a7,a7,0x2f
   18d72:	4501                	li	a0,0
   18d74:	4901                	li	s2,0
   18d76:	19c6                	sll	s3,s3,0x31
   18d78:	00f9191b          	sllw	s2,s2,0xf
   18d7c:	0319d993          	srl	s3,s3,0x31
   18d80:	01089593          	sll	a1,a7,0x10
   18d84:	0129e9b3          	or	s3,s3,s2
   18d88:	19c2                	sll	s3,s3,0x30
   18d8a:	81c1                	srl	a1,a1,0x10
   18d8c:	0135e5b3          	or	a1,a1,s3
   18d90:	c399                	beqz	a5,18d96 <__subtf3+0x766>
   18d92:	0017a073          	csrs	fflags,a5
   18d96:	70a2                	ld	ra,40(sp)
   18d98:	7402                	ld	s0,32(sp)
   18d9a:	64e2                	ld	s1,24(sp)
   18d9c:	6942                	ld	s2,16(sp)
   18d9e:	69a2                	ld	s3,8(sp)
   18da0:	6a02                	ld	s4,0(sp)
   18da2:	6145                	add	sp,sp,48
   18da4:	8082                	ret
   18da6:	4501                	li	a0,0
   18da8:	cc99                	beqz	s1,18dc6 <__subtf3+0x796>
   18daa:	470d                	li	a4,3
   18dac:	00e49863          	bne	s1,a4,18dbc <__subtf3+0x78c>
   18db0:	00090b63          	beqz	s2,18dc6 <__subtf3+0x796>
   18db4:	69a1                	lui	s3,0x8
   18db6:	557d                	li	a0,-1
   18db8:	19f9                	add	s3,s3,-2 # 7ffe <exit-0x80ea>
   18dba:	a031                	j	18dc6 <__subtf3+0x796>
   18dbc:	4709                	li	a4,2
   18dbe:	fee49be3          	bne	s1,a4,18db4 <__subtf3+0x784>
   18dc2:	fe0909e3          	beqz	s2,18db4 <__subtf3+0x784>
   18dc6:	0057e793          	or	a5,a5,5
   18dca:	88aa                	mv	a7,a0
   18dcc:	b759                	j	18d52 <__subtf3+0x722>
   18dce:	4701                	li	a4,0
   18dd0:	4601                	li	a2,0
   18dd2:	899a                	mv	s3,t1
   18dd4:	bd7d                	j	18c92 <__subtf3+0x662>
   18dd6:	4701                	li	a4,0
   18dd8:	bd6d                	j	18c92 <__subtf3+0x662>
   18dda:	4701                	li	a4,0
   18ddc:	4601                	li	a2,0
   18dde:	899a                	mv	s3,t1
   18de0:	892e                	mv	s2,a1
   18de2:	bd45                	j	18c92 <__subtf3+0x662>
   18de4:	88ba                	mv	a7,a4
   18de6:	b305                	j	18b06 <__subtf3+0x4d6>
   18de8:	88ba                	mv	a7,a4
   18dea:	bba9                	j	18b44 <__subtf3+0x514>
   18dec:	862a                	mv	a2,a0
   18dee:	bb21                	j	18b06 <__subtf3+0x4d6>
   18df0:	88be                	mv	a7,a5
   18df2:	8636                	mv	a2,a3
   18df4:	bb09                	j	18b06 <__subtf3+0x4d6>
   18df6:	db0310e3          	bne	t1,a6,18b96 <__subtf3+0x566>
   18dfa:	bbad                	j	18b74 <__subtf3+0x544>
   18dfc:	9b031ce3          	bne	t1,a6,187b4 <__subtf3+0x184>
   18e00:	bc6d                	j	188ba <__subtf3+0x28a>

0000000000018e02 <__unordtf2>:
   18e02:	872a                	mv	a4,a0
   18e04:	002027f3          	frrm	a5
   18e08:	557d                	li	a0,-1
   18e0a:	01055793          	srl	a5,a0,0x10
   18e0e:	6821                	lui	a6,0x8
   18e10:	00f5f8b3          	and	a7,a1,a5
   18e14:	187d                	add	a6,a6,-1 # 7fff <exit-0x80e9>
   18e16:	91c1                	srl	a1,a1,0x30
   18e18:	8ff5                	and	a5,a5,a3
   18e1a:	0105f5b3          	and	a1,a1,a6
   18e1e:	92c1                	srl	a3,a3,0x30
   18e20:	0106f6b3          	and	a3,a3,a6
   18e24:	01059663          	bne	a1,a6,18e30 <__unordtf2+0x2e>
   18e28:	01176333          	or	t1,a4,a7
   18e2c:	02031363          	bnez	t1,18e52 <__unordtf2+0x50>
   18e30:	4501                	li	a0,0
   18e32:	05069263          	bne	a3,a6,18e76 <__unordtf2+0x74>
   18e36:	00f66833          	or	a6,a2,a5
   18e3a:	02080e63          	beqz	a6,18e76 <__unordtf2+0x74>
   18e3e:	02d59363          	bne	a1,a3,18e64 <__unordtf2+0x62>
   18e42:	01176733          	or	a4,a4,a7
   18e46:	cf01                	beqz	a4,18e5e <__unordtf2+0x5c>
   18e48:	577d                	li	a4,-1
   18e4a:	8345                	srl	a4,a4,0x11
   18e4c:	03177163          	bgeu	a4,a7,18e6e <__unordtf2+0x6c>
   18e50:	a039                	j	18e5e <__unordtf2+0x5c>
   18e52:	8145                	srl	a0,a0,0x11
   18e54:	01157d63          	bgeu	a0,a7,18e6e <__unordtf2+0x6c>
   18e58:	4505                	li	a0,1
   18e5a:	00b69e63          	bne	a3,a1,18e76 <__unordtf2+0x74>
   18e5e:	8e5d                	or	a2,a2,a5
   18e60:	4505                	li	a0,1
   18e62:	ca11                	beqz	a2,18e76 <__unordtf2+0x74>
   18e64:	577d                	li	a4,-1
   18e66:	8345                	srl	a4,a4,0x11
   18e68:	4505                	li	a0,1
   18e6a:	00f76663          	bltu	a4,a5,18e76 <__unordtf2+0x74>
   18e6e:	00186073          	csrs	fflags,16
   18e72:	4505                	li	a0,1
   18e74:	8082                	ret
   18e76:	8082                	ret

0000000000018e78 <__fixtfsi>:
   18e78:	002027f3          	frrm	a5
   18e7c:	6711                	lui	a4,0x4
   18e7e:	00159693          	sll	a3,a1,0x1
   18e82:	01059793          	sll	a5,a1,0x10
   18e86:	92c5                	srl	a3,a3,0x31
   18e88:	1779                	add	a4,a4,-2 # 3ffe <exit-0xc0ea>
   18e8a:	83c1                	srl	a5,a5,0x10
   18e8c:	91fd                	srl	a1,a1,0x3f
   18e8e:	00d74763          	blt	a4,a3,18e9c <__fixtfsi+0x24>
   18e92:	eeb1                	bnez	a3,18eee <__fixtfsi+0x76>
   18e94:	8fc9                	or	a5,a5,a0
   18e96:	4501                	li	a0,0
   18e98:	eba9                	bnez	a5,18eea <__fixtfsi+0x72>
   18e9a:	8082                	ret
   18e9c:	6711                	lui	a4,0x4
   18e9e:	0775                	add	a4,a4,29 # 401d <exit-0xc0cb>
   18ea0:	02d75063          	bge	a4,a3,18ec0 <__fixtfsi+0x48>
   18ea4:	c5b9                	beqz	a1,18ef2 <__fixtfsi+0x7a>
   18ea6:	6711                	lui	a4,0x4
   18ea8:	0779                	add	a4,a4,30 # 401e <exit-0xc0ca>
   18eaa:	04e69c63          	bne	a3,a4,18f02 <__fixtfsi+0x8a>
   18eae:	0117d713          	srl	a4,a5,0x11
   18eb2:	eb21                	bnez	a4,18f02 <__fixtfsi+0x8a>
   18eb4:	17be                	sll	a5,a5,0x2f
   18eb6:	8d5d                	or	a0,a0,a5
   18eb8:	e921                	bnez	a0,18f08 <__fixtfsi+0x90>
   18eba:	80000537          	lui	a0,0x80000
   18ebe:	8082                	ret
   18ec0:	4705                	li	a4,1
   18ec2:	1742                	sll	a4,a4,0x30
   18ec4:	8fd9                	or	a5,a5,a4
   18ec6:	6611                	lui	a2,0x4
   18ec8:	7771                	lui	a4,0xffffc
   18eca:	2745                	addw	a4,a4,17 # ffffffffffffc011 <__BSS_END__+0xfffffffffffe05d9>
   18ecc:	02f6061b          	addw	a2,a2,47 # 402f <exit-0xc0b9>
   18ed0:	9f35                	addw	a4,a4,a3
   18ed2:	9e15                	subw	a2,a2,a3
   18ed4:	00e79733          	sll	a4,a5,a4
   18ed8:	00c7d7b3          	srl	a5,a5,a2
   18edc:	8f49                	or	a4,a4,a0
   18ede:	0007851b          	sext.w	a0,a5
   18ee2:	c199                	beqz	a1,18ee8 <__fixtfsi+0x70>
   18ee4:	40a0053b          	negw	a0,a0
   18ee8:	cf01                	beqz	a4,18f00 <__fixtfsi+0x88>
   18eea:	4785                	li	a5,1
   18eec:	a801                	j	18efc <__fixtfsi+0x84>
   18eee:	4501                	li	a0,0
   18ef0:	bfed                	j	18eea <__fixtfsi+0x72>
   18ef2:	80000537          	lui	a0,0x80000
   18ef6:	fff54513          	not	a0,a0
   18efa:	47c1                	li	a5,16
   18efc:	0017a073          	csrs	fflags,a5
   18f00:	8082                	ret
   18f02:	80000537          	lui	a0,0x80000
   18f06:	bfd5                	j	18efa <__fixtfsi+0x82>
   18f08:	80000537          	lui	a0,0x80000
   18f0c:	bff9                	j	18eea <__fixtfsi+0x72>

0000000000018f0e <__floatsitf>:
   18f0e:	1101                	add	sp,sp,-32
   18f10:	ec06                	sd	ra,24(sp)
   18f12:	e822                	sd	s0,16(sp)
   18f14:	e426                	sd	s1,8(sp)
   18f16:	c139                	beqz	a0,18f5c <__floatsitf+0x4e>
   18f18:	0005079b          	sext.w	a5,a0
   18f1c:	03f55493          	srl	s1,a0,0x3f
   18f20:	00055463          	bgez	a0,18f28 <__floatsitf+0x1a>
   18f24:	40f007bb          	negw	a5,a5
   18f28:	02079413          	sll	s0,a5,0x20
   18f2c:	9001                	srl	s0,s0,0x20
   18f2e:	8522                	mv	a0,s0
   18f30:	0f4000ef          	jal	19024 <__clzdi2>
   18f34:	6591                	lui	a1,0x4
   18f36:	03e5859b          	addw	a1,a1,62 # 403e <exit-0xc0aa>
   18f3a:	9d89                	subw	a1,a1,a0
   18f3c:	3545                	addw	a0,a0,-15 # 7ffffff1 <__BSS_END__+0x7ffe45b9>
   18f3e:	00a417b3          	sll	a5,s0,a0
   18f42:	60e2                	ld	ra,24(sp)
   18f44:	6442                	ld	s0,16(sp)
   18f46:	00f4949b          	sllw	s1,s1,0xf
   18f4a:	8dc5                	or	a1,a1,s1
   18f4c:	07c2                	sll	a5,a5,0x10
   18f4e:	15c2                	sll	a1,a1,0x30
   18f50:	83c1                	srl	a5,a5,0x10
   18f52:	64a2                	ld	s1,8(sp)
   18f54:	4501                	li	a0,0
   18f56:	8ddd                	or	a1,a1,a5
   18f58:	6105                	add	sp,sp,32
   18f5a:	8082                	ret
   18f5c:	4781                	li	a5,0
   18f5e:	4581                	li	a1,0
   18f60:	4481                	li	s1,0
   18f62:	b7c5                	j	18f42 <__floatsitf+0x34>

0000000000018f64 <__extenddftf2>:
   18f64:	1101                	add	sp,sp,-32
   18f66:	e20507d3          	fmv.x.d	a5,fa0
   18f6a:	ec06                	sd	ra,24(sp)
   18f6c:	e822                	sd	s0,16(sp)
   18f6e:	e426                	sd	s1,8(sp)
   18f70:	00202773          	frrm	a4
   18f74:	0347d513          	srl	a0,a5,0x34
   18f78:	7ff57513          	and	a0,a0,2047
   18f7c:	00c79413          	sll	s0,a5,0xc
   18f80:	03f7d493          	srl	s1,a5,0x3f
   18f84:	00150793          	add	a5,a0,1
   18f88:	7fe7f793          	and	a5,a5,2046
   18f8c:	8031                	srl	s0,s0,0xc
   18f8e:	cb91                	beqz	a5,18fa2 <__extenddftf2+0x3e>
   18f90:	6791                	lui	a5,0x4
   18f92:	c0078793          	add	a5,a5,-1024 # 3c00 <exit-0xc4e8>
   18f96:	00445593          	srl	a1,s0,0x4
   18f9a:	953e                	add	a0,a0,a5
   18f9c:	1472                	sll	s0,s0,0x3c
   18f9e:	4781                	li	a5,0
   18fa0:	a8b1                	j	18ffc <__extenddftf2+0x98>
   18fa2:	ed1d                	bnez	a0,18fe0 <__extenddftf2+0x7c>
   18fa4:	4581                	li	a1,0
   18fa6:	dc65                	beqz	s0,18f9e <__extenddftf2+0x3a>
   18fa8:	8522                	mv	a0,s0
   18faa:	07a000ef          	jal	19024 <__clzdi2>
   18fae:	0005071b          	sext.w	a4,a0
   18fb2:	47b9                	li	a5,14
   18fb4:	02e7c063          	blt	a5,a4,18fd4 <__extenddftf2+0x70>
   18fb8:	45bd                	li	a1,15
   18fba:	9d89                	subw	a1,a1,a0
   18fbc:	0315079b          	addw	a5,a0,49
   18fc0:	00b455b3          	srl	a1,s0,a1
   18fc4:	00f41433          	sll	s0,s0,a5
   18fc8:	6791                	lui	a5,0x4
   18fca:	c0c7879b          	addw	a5,a5,-1012 # 3c0c <exit-0xc4dc>
   18fce:	40a7853b          	subw	a0,a5,a0
   18fd2:	b7f1                	j	18f9e <__extenddftf2+0x3a>
   18fd4:	ff15059b          	addw	a1,a0,-15
   18fd8:	00b415b3          	sll	a1,s0,a1
   18fdc:	4401                	li	s0,0
   18fde:	b7ed                	j	18fc8 <__extenddftf2+0x64>
   18fe0:	cc15                	beqz	s0,1901c <__extenddftf2+0xb8>
   18fe2:	4785                	li	a5,1
   18fe4:	17ce                	sll	a5,a5,0x33
   18fe6:	4705                	li	a4,1
   18fe8:	00f437b3          	sltu	a5,s0,a5
   18fec:	00445593          	srl	a1,s0,0x4
   18ff0:	173e                	sll	a4,a4,0x2f
   18ff2:	6521                	lui	a0,0x8
   18ff4:	0792                	sll	a5,a5,0x4
   18ff6:	1472                	sll	s0,s0,0x3c
   18ff8:	8dd9                	or	a1,a1,a4
   18ffa:	157d                	add	a0,a0,-1 # 7fff <exit-0x80e9>
   18ffc:	00f4949b          	sllw	s1,s1,0xf
   19000:	05c2                	sll	a1,a1,0x10
   19002:	8d45                	or	a0,a0,s1
   19004:	1542                	sll	a0,a0,0x30
   19006:	81c1                	srl	a1,a1,0x10
   19008:	8dc9                	or	a1,a1,a0
   1900a:	c399                	beqz	a5,19010 <__extenddftf2+0xac>
   1900c:	00186073          	csrs	fflags,16
   19010:	60e2                	ld	ra,24(sp)
   19012:	8522                	mv	a0,s0
   19014:	6442                	ld	s0,16(sp)
   19016:	64a2                	ld	s1,8(sp)
   19018:	6105                	add	sp,sp,32
   1901a:	8082                	ret
   1901c:	6521                	lui	a0,0x8
   1901e:	4581                	li	a1,0
   19020:	157d                	add	a0,a0,-1 # 7fff <exit-0x80e9>
   19022:	bfb5                	j	18f9e <__extenddftf2+0x3a>

0000000000019024 <__clzdi2>:
   19024:	03855793          	srl	a5,a0,0x38
   19028:	eb8d                	bnez	a5,1905a <__clzdi2+0x36>
   1902a:	03800793          	li	a5,56
   1902e:	17e1                	add	a5,a5,-8
   19030:	c791                	beqz	a5,1903c <__clzdi2+0x18>
   19032:	00f55733          	srl	a4,a0,a5
   19036:	0ff77713          	zext.b	a4,a4
   1903a:	db75                	beqz	a4,1902e <__clzdi2+0xa>
   1903c:	04000713          	li	a4,64
   19040:	8f1d                	sub	a4,a4,a5
   19042:	00f55533          	srl	a0,a0,a5
   19046:	00000797          	auipc	a5,0x0
   1904a:	75278793          	add	a5,a5,1874 # 19798 <__clz_tab>
   1904e:	97aa                	add	a5,a5,a0
   19050:	0007c503          	lbu	a0,0(a5)
   19054:	40a7053b          	subw	a0,a4,a0
   19058:	8082                	ret
   1905a:	03800793          	li	a5,56
   1905e:	bff9                	j	1903c <__clzdi2+0x18>
