
rv64_sum1toN-Ofast.o:     file format elf64-littleriscv


Disassembly of section .text:

00000000000100e8 <exit>:
   100e8:	1141                	add	sp,sp,-16
   100ea:	4581                	li	a1,0
   100ec:	e022                	sd	s0,0(sp)
   100ee:	e406                	sd	ra,8(sp)
   100f0:	842a                	mv	s0,a0
   100f2:	76c000ef          	jal	1085e <__call_exitprocs>
   100f6:	2381b783          	ld	a5,568(gp) # 1b470 <__stdio_exit_handler>
   100fa:	c391                	beqz	a5,100fe <exit+0x16>
   100fc:	9782                	jalr	a5
   100fe:	8522                	mv	a0,s0
   10100:	395070ef          	jal	17c94 <_exit>

0000000000010104 <main>:
   10104:	6565                	lui	a0,0x19
   10106:	1141                	add	sp,sp,-16
   10108:	02d00613          	li	a2,45
   1010c:	45a5                	li	a1,9
   1010e:	06050513          	add	a0,a0,96 # 19060 <__clzdi2+0x3c>
   10112:	e406                	sd	ra,8(sp)
   10114:	3de000ef          	jal	104f2 <printf>
   10118:	60a2                	ld	ra,8(sp)
   1011a:	4501                	li	a0,0
   1011c:	0141                	add	sp,sp,16
   1011e:	8082                	ret

0000000000010120 <register_fini>:
   10120:	00000793          	li	a5,0
   10124:	c799                	beqz	a5,10132 <register_fini+0x12>
   10126:	00004517          	auipc	a0,0x4
   1012a:	6ec50513          	add	a0,a0,1772 # 14812 <__libc_fini_array>
   1012e:	0070006f          	j	10934 <atexit>
   10132:	8082                	ret

0000000000010134 <_start>:
   10134:	0000b197          	auipc	gp,0xb
   10138:	10418193          	add	gp,gp,260 # 1b238 <__global_locale>
   1013c:	23818513          	add	a0,gp,568 # 1b470 <__stdio_exit_handler>
   10140:	0000c617          	auipc	a2,0xc
   10144:	8f860613          	add	a2,a2,-1800 # 1ba38 <__BSS_END__>
   10148:	8e09                	sub	a2,a2,a0
   1014a:	4581                	li	a1,0
   1014c:	668000ef          	jal	107b4 <memset>
   10150:	00000517          	auipc	a0,0x0
   10154:	7e450513          	add	a0,a0,2020 # 10934 <atexit>
   10158:	c519                	beqz	a0,10166 <_start+0x32>
   1015a:	00004517          	auipc	a0,0x4
   1015e:	6b850513          	add	a0,a0,1720 # 14812 <__libc_fini_array>
   10162:	7d2000ef          	jal	10934 <atexit>
   10166:	5e4000ef          	jal	1074a <__libc_init_array>
   1016a:	4502                	lw	a0,0(sp)
   1016c:	002c                	add	a1,sp,8
   1016e:	4601                	li	a2,0
   10170:	f95ff0ef          	jal	10104 <main>
   10174:	bf95                	j	100e8 <exit>

0000000000010176 <__do_global_dtors_aux>:
   10176:	1141                	add	sp,sp,-16
   10178:	e022                	sd	s0,0(sp)
   1017a:	27818413          	add	s0,gp,632 # 1b4b0 <completed.1>
   1017e:	00044783          	lbu	a5,0(s0)
   10182:	e406                	sd	ra,8(sp)
   10184:	ef99                	bnez	a5,101a2 <__do_global_dtors_aux+0x2c>
   10186:	00000793          	li	a5,0
   1018a:	cb89                	beqz	a5,1019c <__do_global_dtors_aux+0x26>
   1018c:	0000a517          	auipc	a0,0xa
   10190:	70c50513          	add	a0,a0,1804 # 1a898 <__EH_FRAME_BEGIN__>
   10194:	00000097          	auipc	ra,0x0
   10198:	000000e7          	jalr	zero # 0 <exit-0x100e8>
   1019c:	4785                	li	a5,1
   1019e:	00f40023          	sb	a5,0(s0)
   101a2:	60a2                	ld	ra,8(sp)
   101a4:	6402                	ld	s0,0(sp)
   101a6:	0141                	add	sp,sp,16
   101a8:	8082                	ret

00000000000101aa <frame_dummy>:
   101aa:	00000793          	li	a5,0
   101ae:	cb99                	beqz	a5,101c4 <frame_dummy+0x1a>
   101b0:	28018593          	add	a1,gp,640 # 1b4b8 <object.0>
   101b4:	0000a517          	auipc	a0,0xa
   101b8:	6e450513          	add	a0,a0,1764 # 1a898 <__EH_FRAME_BEGIN__>
   101bc:	00000317          	auipc	t1,0x0
   101c0:	00000067          	jr	zero # 0 <exit-0x100e8>
   101c4:	8082                	ret

00000000000101c6 <__fp_lock>:
   101c6:	4501                	li	a0,0
   101c8:	8082                	ret

00000000000101ca <stdio_exit_handler>:
   101ca:	0000a617          	auipc	a2,0xa
   101ce:	6ee60613          	add	a2,a2,1774 # 1a8b8 <__sglue>
   101d2:	00004597          	auipc	a1,0x4
   101d6:	be058593          	add	a1,a1,-1056 # 13db2 <_fclose_r>
   101da:	0000a517          	auipc	a0,0xa
   101de:	6f650513          	add	a0,a0,1782 # 1a8d0 <_impure_data>
   101e2:	a4b5                	j	1044e <_fwalk_sglue>

00000000000101e4 <cleanup_stdio>:
   101e4:	650c                	ld	a1,8(a0)
   101e6:	1141                	add	sp,sp,-16
   101e8:	e022                	sd	s0,0(sp)
   101ea:	e406                	sd	ra,8(sp)
   101ec:	2b018793          	add	a5,gp,688 # 1b4e8 <__sf>
   101f0:	842a                	mv	s0,a0
   101f2:	00f58463          	beq	a1,a5,101fa <cleanup_stdio+0x16>
   101f6:	3bd030ef          	jal	13db2 <_fclose_r>
   101fa:	680c                	ld	a1,16(s0)
   101fc:	36018793          	add	a5,gp,864 # 1b598 <__sf+0xb0>
   10200:	00f58563          	beq	a1,a5,1020a <cleanup_stdio+0x26>
   10204:	8522                	mv	a0,s0
   10206:	3ad030ef          	jal	13db2 <_fclose_r>
   1020a:	6c0c                	ld	a1,24(s0)
   1020c:	41018793          	add	a5,gp,1040 # 1b648 <__sf+0x160>
   10210:	00f58863          	beq	a1,a5,10220 <cleanup_stdio+0x3c>
   10214:	8522                	mv	a0,s0
   10216:	6402                	ld	s0,0(sp)
   10218:	60a2                	ld	ra,8(sp)
   1021a:	0141                	add	sp,sp,16
   1021c:	3970306f          	j	13db2 <_fclose_r>
   10220:	60a2                	ld	ra,8(sp)
   10222:	6402                	ld	s0,0(sp)
   10224:	0141                	add	sp,sp,16
   10226:	8082                	ret

0000000000010228 <__fp_unlock>:
   10228:	4501                	li	a0,0
   1022a:	8082                	ret

000000000001022c <global_stdio_init.part.0>:
   1022c:	7179                	add	sp,sp,-48
   1022e:	00000797          	auipc	a5,0x0
   10232:	f9c78793          	add	a5,a5,-100 # 101ca <stdio_exit_handler>
   10236:	f406                	sd	ra,40(sp)
   10238:	f022                	sd	s0,32(sp)
   1023a:	ec26                	sd	s1,24(sp)
   1023c:	2b018413          	add	s0,gp,688 # 1b4e8 <__sf>
   10240:	e84a                	sd	s2,16(sp)
   10242:	e44e                	sd	s3,8(sp)
   10244:	e052                	sd	s4,0(sp)
   10246:	22f1bc23          	sd	a5,568(gp) # 1b470 <__stdio_exit_handler>
   1024a:	4621                	li	a2,8
   1024c:	4791                	li	a5,4
   1024e:	4581                	li	a1,0
   10250:	35418513          	add	a0,gp,852 # 1b58c <__sf+0xa4>
   10254:	c81c                	sw	a5,16(s0)
   10256:	00043023          	sd	zero,0(s0)
   1025a:	00043423          	sd	zero,8(s0)
   1025e:	0a042623          	sw	zero,172(s0)
   10262:	00043c23          	sd	zero,24(s0)
   10266:	02042023          	sw	zero,32(s0)
   1026a:	02042423          	sw	zero,40(s0)
   1026e:	546000ef          	jal	107b4 <memset>
   10272:	67c1                	lui	a5,0x10
   10274:	00000a17          	auipc	s4,0x0
   10278:	2aaa0a13          	add	s4,s4,682 # 1051e <__sread>
   1027c:	00000997          	auipc	s3,0x0
   10280:	2de98993          	add	s3,s3,734 # 1055a <__swrite>
   10284:	00000917          	auipc	s2,0x0
   10288:	32890913          	add	s2,s2,808 # 105ac <__sseek>
   1028c:	00000497          	auipc	s1,0x0
   10290:	37248493          	add	s1,s1,882 # 105fe <__sclose>
   10294:	07a5                	add	a5,a5,9 # 10009 <exit-0xdf>
   10296:	4621                	li	a2,8
   10298:	4581                	li	a1,0
   1029a:	40418513          	add	a0,gp,1028 # 1b63c <__sf+0x154>
   1029e:	03443c23          	sd	s4,56(s0)
   102a2:	05343023          	sd	s3,64(s0)
   102a6:	05243423          	sd	s2,72(s0)
   102aa:	e824                	sd	s1,80(s0)
   102ac:	0cf42023          	sw	a5,192(s0)
   102b0:	f800                	sd	s0,48(s0)
   102b2:	0a043823          	sd	zero,176(s0)
   102b6:	0a043c23          	sd	zero,184(s0)
   102ba:	14042e23          	sw	zero,348(s0)
   102be:	0c043423          	sd	zero,200(s0)
   102c2:	0c042823          	sw	zero,208(s0)
   102c6:	0c042c23          	sw	zero,216(s0)
   102ca:	4ea000ef          	jal	107b4 <memset>
   102ce:	000207b7          	lui	a5,0x20
   102d2:	07c9                	add	a5,a5,18 # 20012 <__BSS_END__+0x45da>
   102d4:	36018713          	add	a4,gp,864 # 1b598 <__sf+0xb0>
   102d8:	4621                	li	a2,8
   102da:	4581                	li	a1,0
   102dc:	4b418513          	add	a0,gp,1204 # 1b6ec <__sf+0x204>
   102e0:	0f443423          	sd	s4,232(s0)
   102e4:	0f343823          	sd	s3,240(s0)
   102e8:	0f243c23          	sd	s2,248(s0)
   102ec:	10943023          	sd	s1,256(s0)
   102f0:	16f42823          	sw	a5,368(s0)
   102f4:	f078                	sd	a4,224(s0)
   102f6:	16043023          	sd	zero,352(s0)
   102fa:	16043423          	sd	zero,360(s0)
   102fe:	20042623          	sw	zero,524(s0)
   10302:	16043c23          	sd	zero,376(s0)
   10306:	18042023          	sw	zero,384(s0)
   1030a:	18042423          	sw	zero,392(s0)
   1030e:	4a6000ef          	jal	107b4 <memset>
   10312:	41018793          	add	a5,gp,1040 # 1b648 <__sf+0x160>
   10316:	19443c23          	sd	s4,408(s0)
   1031a:	1b343023          	sd	s3,416(s0)
   1031e:	1b243423          	sd	s2,424(s0)
   10322:	1a943823          	sd	s1,432(s0)
   10326:	70a2                	ld	ra,40(sp)
   10328:	18f43823          	sd	a5,400(s0)
   1032c:	7402                	ld	s0,32(sp)
   1032e:	64e2                	ld	s1,24(sp)
   10330:	6942                	ld	s2,16(sp)
   10332:	69a2                	ld	s3,8(sp)
   10334:	6a02                	ld	s4,0(sp)
   10336:	6145                	add	sp,sp,48
   10338:	8082                	ret

000000000001033a <__sfp>:
   1033a:	7179                	add	sp,sp,-48
   1033c:	e84a                	sd	s2,16(sp)
   1033e:	f406                	sd	ra,40(sp)
   10340:	f022                	sd	s0,32(sp)
   10342:	ec26                	sd	s1,24(sp)
   10344:	e44e                	sd	s3,8(sp)
   10346:	2381b783          	ld	a5,568(gp) # 1b470 <__stdio_exit_handler>
   1034a:	892a                	mv	s2,a0
   1034c:	c7d5                	beqz	a5,103f8 <__sfp+0xbe>
   1034e:	0000a497          	auipc	s1,0xa
   10352:	56a48493          	add	s1,s1,1386 # 1a8b8 <__sglue>
   10356:	0b000993          	li	s3,176
   1035a:	4498                	lw	a4,8(s1)
   1035c:	6880                	ld	s0,16(s1)
   1035e:	06e05463          	blez	a4,103c6 <__sfp+0x8c>
   10362:	1702                	sll	a4,a4,0x20
   10364:	9301                	srl	a4,a4,0x20
   10366:	03370733          	mul	a4,a4,s3
   1036a:	9722                	add	a4,a4,s0
   1036c:	a029                	j	10376 <__sfp+0x3c>
   1036e:	0b040413          	add	s0,s0,176
   10372:	04870a63          	beq	a4,s0,103c6 <__sfp+0x8c>
   10376:	01041783          	lh	a5,16(s0)
   1037a:	fbf5                	bnez	a5,1036e <__sfp+0x34>
   1037c:	77c1                	lui	a5,0xffff0
   1037e:	0785                	add	a5,a5,1 # ffffffffffff0001 <__BSS_END__+0xfffffffffffd45c9>
   10380:	c81c                	sw	a5,16(s0)
   10382:	0a042623          	sw	zero,172(s0)
   10386:	00043023          	sd	zero,0(s0)
   1038a:	00043423          	sd	zero,8(s0)
   1038e:	00043c23          	sd	zero,24(s0)
   10392:	02042023          	sw	zero,32(s0)
   10396:	02042423          	sw	zero,40(s0)
   1039a:	4621                	li	a2,8
   1039c:	4581                	li	a1,0
   1039e:	0a440513          	add	a0,s0,164
   103a2:	412000ef          	jal	107b4 <memset>
   103a6:	04043c23          	sd	zero,88(s0)
   103aa:	06042023          	sw	zero,96(s0)
   103ae:	06043c23          	sd	zero,120(s0)
   103b2:	08042023          	sw	zero,128(s0)
   103b6:	70a2                	ld	ra,40(sp)
   103b8:	8522                	mv	a0,s0
   103ba:	7402                	ld	s0,32(sp)
   103bc:	64e2                	ld	s1,24(sp)
   103be:	6942                	ld	s2,16(sp)
   103c0:	69a2                	ld	s3,8(sp)
   103c2:	6145                	add	sp,sp,48
   103c4:	8082                	ret
   103c6:	6080                	ld	s0,0(s1)
   103c8:	c019                	beqz	s0,103ce <__sfp+0x94>
   103ca:	84a2                	mv	s1,s0
   103cc:	b779                	j	1035a <__sfp+0x20>
   103ce:	2d800593          	li	a1,728
   103d2:	854a                	mv	a0,s2
   103d4:	089000ef          	jal	10c5c <_malloc_r>
   103d8:	842a                	mv	s0,a0
   103da:	c115                	beqz	a0,103fe <__sfp+0xc4>
   103dc:	0561                	add	a0,a0,24
   103de:	4791                	li	a5,4
   103e0:	00043023          	sd	zero,0(s0)
   103e4:	c41c                	sw	a5,8(s0)
   103e6:	e808                	sd	a0,16(s0)
   103e8:	2c000613          	li	a2,704
   103ec:	4581                	li	a1,0
   103ee:	3c6000ef          	jal	107b4 <memset>
   103f2:	e080                	sd	s0,0(s1)
   103f4:	84a2                	mv	s1,s0
   103f6:	b795                	j	1035a <__sfp+0x20>
   103f8:	e35ff0ef          	jal	1022c <global_stdio_init.part.0>
   103fc:	bf89                	j	1034e <__sfp+0x14>
   103fe:	0004b023          	sd	zero,0(s1)
   10402:	47b1                	li	a5,12
   10404:	00f92023          	sw	a5,0(s2)
   10408:	b77d                	j	103b6 <__sfp+0x7c>

000000000001040a <__sinit>:
   1040a:	653c                	ld	a5,72(a0)
   1040c:	c391                	beqz	a5,10410 <__sinit+0x6>
   1040e:	8082                	ret
   10410:	00000797          	auipc	a5,0x0
   10414:	dd478793          	add	a5,a5,-556 # 101e4 <cleanup_stdio>
   10418:	e53c                	sd	a5,72(a0)
   1041a:	2381b783          	ld	a5,568(gp) # 1b470 <__stdio_exit_handler>
   1041e:	fbe5                	bnez	a5,1040e <__sinit+0x4>
   10420:	b531                	j	1022c <global_stdio_init.part.0>

0000000000010422 <__sfp_lock_acquire>:
   10422:	8082                	ret

0000000000010424 <__sfp_lock_release>:
   10424:	8082                	ret

0000000000010426 <__fp_lock_all>:
   10426:	0000a617          	auipc	a2,0xa
   1042a:	49260613          	add	a2,a2,1170 # 1a8b8 <__sglue>
   1042e:	00000597          	auipc	a1,0x0
   10432:	d9858593          	add	a1,a1,-616 # 101c6 <__fp_lock>
   10436:	4501                	li	a0,0
   10438:	a819                	j	1044e <_fwalk_sglue>

000000000001043a <__fp_unlock_all>:
   1043a:	0000a617          	auipc	a2,0xa
   1043e:	47e60613          	add	a2,a2,1150 # 1a8b8 <__sglue>
   10442:	00000597          	auipc	a1,0x0
   10446:	de658593          	add	a1,a1,-538 # 10228 <__fp_unlock>
   1044a:	4501                	li	a0,0
   1044c:	a009                	j	1044e <_fwalk_sglue>

000000000001044e <_fwalk_sglue>:
   1044e:	715d                	add	sp,sp,-80
   10450:	f84a                	sd	s2,48(sp)
   10452:	f44e                	sd	s3,40(sp)
   10454:	f052                	sd	s4,32(sp)
   10456:	ec56                	sd	s5,24(sp)
   10458:	e85a                	sd	s6,16(sp)
   1045a:	e45e                	sd	s7,8(sp)
   1045c:	e062                	sd	s8,0(sp)
   1045e:	e486                	sd	ra,72(sp)
   10460:	e0a2                	sd	s0,64(sp)
   10462:	fc26                	sd	s1,56(sp)
   10464:	8a2a                	mv	s4,a0
   10466:	8b2e                	mv	s6,a1
   10468:	89b2                	mv	s3,a2
   1046a:	4901                	li	s2,0
   1046c:	0b000b93          	li	s7,176
   10470:	4c05                	li	s8,1
   10472:	5afd                	li	s5,-1
   10474:	0089a483          	lw	s1,8(s3)
   10478:	0109b403          	ld	s0,16(s3)
   1047c:	02905963          	blez	s1,104ae <_fwalk_sglue+0x60>
   10480:	1482                	sll	s1,s1,0x20
   10482:	9081                	srl	s1,s1,0x20
   10484:	037484b3          	mul	s1,s1,s7
   10488:	94a2                	add	s1,s1,s0
   1048a:	01045783          	lhu	a5,16(s0)
   1048e:	00fc7c63          	bgeu	s8,a5,104a6 <_fwalk_sglue+0x58>
   10492:	01241783          	lh	a5,18(s0)
   10496:	85a2                	mv	a1,s0
   10498:	8552                	mv	a0,s4
   1049a:	01578663          	beq	a5,s5,104a6 <_fwalk_sglue+0x58>
   1049e:	9b02                	jalr	s6
   104a0:	01256933          	or	s2,a0,s2
   104a4:	2901                	sext.w	s2,s2
   104a6:	0b040413          	add	s0,s0,176
   104aa:	fe9410e3          	bne	s0,s1,1048a <_fwalk_sglue+0x3c>
   104ae:	0009b983          	ld	s3,0(s3)
   104b2:	fc0991e3          	bnez	s3,10474 <_fwalk_sglue+0x26>
   104b6:	60a6                	ld	ra,72(sp)
   104b8:	6406                	ld	s0,64(sp)
   104ba:	74e2                	ld	s1,56(sp)
   104bc:	79a2                	ld	s3,40(sp)
   104be:	7a02                	ld	s4,32(sp)
   104c0:	6ae2                	ld	s5,24(sp)
   104c2:	6b42                	ld	s6,16(sp)
   104c4:	6ba2                	ld	s7,8(sp)
   104c6:	6c02                	ld	s8,0(sp)
   104c8:	854a                	mv	a0,s2
   104ca:	7942                	ld	s2,48(sp)
   104cc:	6161                	add	sp,sp,80
   104ce:	8082                	ret

00000000000104d0 <_printf_r>:
   104d0:	715d                	add	sp,sp,-80
   104d2:	f032                	sd	a2,32(sp)
   104d4:	f436                	sd	a3,40(sp)
   104d6:	f83a                	sd	a4,48(sp)
   104d8:	fc3e                	sd	a5,56(sp)
   104da:	e0c2                	sd	a6,64(sp)
   104dc:	e4c6                	sd	a7,72(sp)
   104de:	862e                	mv	a2,a1
   104e0:	690c                	ld	a1,16(a0)
   104e2:	1014                	add	a3,sp,32
   104e4:	ec06                	sd	ra,24(sp)
   104e6:	e436                	sd	a3,8(sp)
   104e8:	585000ef          	jal	1126c <_vfprintf_r>
   104ec:	60e2                	ld	ra,24(sp)
   104ee:	6161                	add	sp,sp,80
   104f0:	8082                	ret

00000000000104f2 <printf>:
   104f2:	711d                	add	sp,sp,-96
   104f4:	f832                	sd	a2,48(sp)
   104f6:	fc36                	sd	a3,56(sp)
   104f8:	2201b303          	ld	t1,544(gp) # 1b458 <_impure_ptr>
   104fc:	f42e                	sd	a1,40(sp)
   104fe:	e0ba                	sd	a4,64(sp)
   10500:	e4be                	sd	a5,72(sp)
   10502:	e8c2                	sd	a6,80(sp)
   10504:	ecc6                	sd	a7,88(sp)
   10506:	01033583          	ld	a1,16(t1) # 101cc <stdio_exit_handler+0x2>
   1050a:	1034                	add	a3,sp,40
   1050c:	862a                	mv	a2,a0
   1050e:	851a                	mv	a0,t1
   10510:	ec06                	sd	ra,24(sp)
   10512:	e436                	sd	a3,8(sp)
   10514:	559000ef          	jal	1126c <_vfprintf_r>
   10518:	60e2                	ld	ra,24(sp)
   1051a:	6125                	add	sp,sp,96
   1051c:	8082                	ret

000000000001051e <__sread>:
   1051e:	1141                	add	sp,sp,-16
   10520:	e022                	sd	s0,0(sp)
   10522:	842e                	mv	s0,a1
   10524:	01259583          	lh	a1,18(a1)
   10528:	e406                	sd	ra,8(sp)
   1052a:	1b4000ef          	jal	106de <_read_r>
   1052e:	00054963          	bltz	a0,10540 <__sread+0x22>
   10532:	685c                	ld	a5,144(s0)
   10534:	60a2                	ld	ra,8(sp)
   10536:	97aa                	add	a5,a5,a0
   10538:	e85c                	sd	a5,144(s0)
   1053a:	6402                	ld	s0,0(sp)
   1053c:	0141                	add	sp,sp,16
   1053e:	8082                	ret
   10540:	01045783          	lhu	a5,16(s0)
   10544:	777d                	lui	a4,0xfffff
   10546:	177d                	add	a4,a4,-1 # ffffffffffffefff <__BSS_END__+0xfffffffffffe35c7>
   10548:	8ff9                	and	a5,a5,a4
   1054a:	60a2                	ld	ra,8(sp)
   1054c:	00f41823          	sh	a5,16(s0)
   10550:	6402                	ld	s0,0(sp)
   10552:	0141                	add	sp,sp,16
   10554:	8082                	ret

0000000000010556 <__seofread>:
   10556:	4501                	li	a0,0
   10558:	8082                	ret

000000000001055a <__swrite>:
   1055a:	01059783          	lh	a5,16(a1)
   1055e:	7179                	add	sp,sp,-48
   10560:	f022                	sd	s0,32(sp)
   10562:	ec26                	sd	s1,24(sp)
   10564:	e84a                	sd	s2,16(sp)
   10566:	e44e                	sd	s3,8(sp)
   10568:	f406                	sd	ra,40(sp)
   1056a:	1007f713          	and	a4,a5,256
   1056e:	842e                	mv	s0,a1
   10570:	84aa                	mv	s1,a0
   10572:	8932                	mv	s2,a2
   10574:	89b6                	mv	s3,a3
   10576:	e315                	bnez	a4,1059a <__swrite+0x40>
   10578:	777d                	lui	a4,0xfffff
   1057a:	177d                	add	a4,a4,-1 # ffffffffffffefff <__BSS_END__+0xfffffffffffe35c7>
   1057c:	8ff9                	and	a5,a5,a4
   1057e:	01241583          	lh	a1,18(s0)
   10582:	00f41823          	sh	a5,16(s0)
   10586:	7402                	ld	s0,32(sp)
   10588:	70a2                	ld	ra,40(sp)
   1058a:	86ce                	mv	a3,s3
   1058c:	864a                	mv	a2,s2
   1058e:	69a2                	ld	s3,8(sp)
   10590:	6942                	ld	s2,16(sp)
   10592:	8526                	mv	a0,s1
   10594:	64e2                	ld	s1,24(sp)
   10596:	6145                	add	sp,sp,48
   10598:	aab5                	j	10714 <_write_r>
   1059a:	01259583          	lh	a1,18(a1)
   1059e:	4689                	li	a3,2
   105a0:	4601                	li	a2,0
   105a2:	106000ef          	jal	106a8 <_lseek_r>
   105a6:	01041783          	lh	a5,16(s0)
   105aa:	b7f9                	j	10578 <__swrite+0x1e>

00000000000105ac <__sseek>:
   105ac:	1141                	add	sp,sp,-16
   105ae:	e022                	sd	s0,0(sp)
   105b0:	842e                	mv	s0,a1
   105b2:	01259583          	lh	a1,18(a1)
   105b6:	e406                	sd	ra,8(sp)
   105b8:	0f0000ef          	jal	106a8 <_lseek_r>
   105bc:	57fd                	li	a5,-1
   105be:	02f50163          	beq	a0,a5,105e0 <__sseek+0x34>
   105c2:	01045783          	lhu	a5,16(s0)
   105c6:	6705                	lui	a4,0x1
   105c8:	60a2                	ld	ra,8(sp)
   105ca:	8fd9                	or	a5,a5,a4
   105cc:	0107979b          	sllw	a5,a5,0x10
   105d0:	4107d79b          	sraw	a5,a5,0x10
   105d4:	e848                	sd	a0,144(s0)
   105d6:	00f41823          	sh	a5,16(s0)
   105da:	6402                	ld	s0,0(sp)
   105dc:	0141                	add	sp,sp,16
   105de:	8082                	ret
   105e0:	01045783          	lhu	a5,16(s0)
   105e4:	777d                	lui	a4,0xfffff
   105e6:	177d                	add	a4,a4,-1 # ffffffffffffefff <__BSS_END__+0xfffffffffffe35c7>
   105e8:	8ff9                	and	a5,a5,a4
   105ea:	0107979b          	sllw	a5,a5,0x10
   105ee:	4107d79b          	sraw	a5,a5,0x10
   105f2:	60a2                	ld	ra,8(sp)
   105f4:	00f41823          	sh	a5,16(s0)
   105f8:	6402                	ld	s0,0(sp)
   105fa:	0141                	add	sp,sp,16
   105fc:	8082                	ret

00000000000105fe <__sclose>:
   105fe:	01259583          	lh	a1,18(a1)
   10602:	a009                	j	10604 <_close_r>

0000000000010604 <_close_r>:
   10604:	1141                	add	sp,sp,-16
   10606:	e022                	sd	s0,0(sp)
   10608:	842a                	mv	s0,a0
   1060a:	852e                	mv	a0,a1
   1060c:	2401a023          	sw	zero,576(gp) # 1b478 <errno>
   10610:	e406                	sd	ra,8(sp)
   10612:	656070ef          	jal	17c68 <_close>
   10616:	57fd                	li	a5,-1
   10618:	00f50663          	beq	a0,a5,10624 <_close_r+0x20>
   1061c:	60a2                	ld	ra,8(sp)
   1061e:	6402                	ld	s0,0(sp)
   10620:	0141                	add	sp,sp,16
   10622:	8082                	ret
   10624:	2401a783          	lw	a5,576(gp) # 1b478 <errno>
   10628:	dbf5                	beqz	a5,1061c <_close_r+0x18>
   1062a:	60a2                	ld	ra,8(sp)
   1062c:	c01c                	sw	a5,0(s0)
   1062e:	6402                	ld	s0,0(sp)
   10630:	0141                	add	sp,sp,16
   10632:	8082                	ret

0000000000010634 <_reclaim_reent>:
   10634:	2201b783          	ld	a5,544(gp) # 1b458 <_impure_ptr>
   10638:	06a78763          	beq	a5,a0,106a6 <_reclaim_reent+0x72>
   1063c:	752c                	ld	a1,104(a0)
   1063e:	7179                	add	sp,sp,-48
   10640:	ec26                	sd	s1,24(sp)
   10642:	f406                	sd	ra,40(sp)
   10644:	84aa                	mv	s1,a0
   10646:	c99d                	beqz	a1,1067c <_reclaim_reent+0x48>
   10648:	e84a                	sd	s2,16(sp)
   1064a:	e44e                	sd	s3,8(sp)
   1064c:	f022                	sd	s0,32(sp)
   1064e:	4901                	li	s2,0
   10650:	20000993          	li	s3,512
   10654:	012587b3          	add	a5,a1,s2
   10658:	6380                	ld	s0,0(a5)
   1065a:	c801                	beqz	s0,1066a <_reclaim_reent+0x36>
   1065c:	85a2                	mv	a1,s0
   1065e:	6000                	ld	s0,0(s0)
   10660:	8526                	mv	a0,s1
   10662:	3ae000ef          	jal	10a10 <_free_r>
   10666:	f87d                	bnez	s0,1065c <_reclaim_reent+0x28>
   10668:	74ac                	ld	a1,104(s1)
   1066a:	0921                	add	s2,s2,8
   1066c:	ff3914e3          	bne	s2,s3,10654 <_reclaim_reent+0x20>
   10670:	8526                	mv	a0,s1
   10672:	39e000ef          	jal	10a10 <_free_r>
   10676:	7402                	ld	s0,32(sp)
   10678:	6942                	ld	s2,16(sp)
   1067a:	69a2                	ld	s3,8(sp)
   1067c:	68ac                	ld	a1,80(s1)
   1067e:	c581                	beqz	a1,10686 <_reclaim_reent+0x52>
   10680:	8526                	mv	a0,s1
   10682:	38e000ef          	jal	10a10 <_free_r>
   10686:	7cac                	ld	a1,120(s1)
   10688:	c581                	beqz	a1,10690 <_reclaim_reent+0x5c>
   1068a:	8526                	mv	a0,s1
   1068c:	384000ef          	jal	10a10 <_free_r>
   10690:	64bc                	ld	a5,72(s1)
   10692:	c791                	beqz	a5,1069e <_reclaim_reent+0x6a>
   10694:	70a2                	ld	ra,40(sp)
   10696:	8526                	mv	a0,s1
   10698:	64e2                	ld	s1,24(sp)
   1069a:	6145                	add	sp,sp,48
   1069c:	8782                	jr	a5
   1069e:	70a2                	ld	ra,40(sp)
   106a0:	64e2                	ld	s1,24(sp)
   106a2:	6145                	add	sp,sp,48
   106a4:	8082                	ret
   106a6:	8082                	ret

00000000000106a8 <_lseek_r>:
   106a8:	1141                	add	sp,sp,-16
   106aa:	872e                	mv	a4,a1
   106ac:	e022                	sd	s0,0(sp)
   106ae:	85b2                	mv	a1,a2
   106b0:	842a                	mv	s0,a0
   106b2:	8636                	mv	a2,a3
   106b4:	853a                	mv	a0,a4
   106b6:	2401a023          	sw	zero,576(gp) # 1b478 <errno>
   106ba:	e406                	sd	ra,8(sp)
   106bc:	678070ef          	jal	17d34 <_lseek>
   106c0:	57fd                	li	a5,-1
   106c2:	00f50663          	beq	a0,a5,106ce <_lseek_r+0x26>
   106c6:	60a2                	ld	ra,8(sp)
   106c8:	6402                	ld	s0,0(sp)
   106ca:	0141                	add	sp,sp,16
   106cc:	8082                	ret
   106ce:	2401a783          	lw	a5,576(gp) # 1b478 <errno>
   106d2:	dbf5                	beqz	a5,106c6 <_lseek_r+0x1e>
   106d4:	60a2                	ld	ra,8(sp)
   106d6:	c01c                	sw	a5,0(s0)
   106d8:	6402                	ld	s0,0(sp)
   106da:	0141                	add	sp,sp,16
   106dc:	8082                	ret

00000000000106de <_read_r>:
   106de:	1141                	add	sp,sp,-16
   106e0:	872e                	mv	a4,a1
   106e2:	e022                	sd	s0,0(sp)
   106e4:	85b2                	mv	a1,a2
   106e6:	842a                	mv	s0,a0
   106e8:	8636                	mv	a2,a3
   106ea:	853a                	mv	a0,a4
   106ec:	2401a023          	sw	zero,576(gp) # 1b478 <errno>
   106f0:	e406                	sd	ra,8(sp)
   106f2:	66e070ef          	jal	17d60 <_read>
   106f6:	57fd                	li	a5,-1
   106f8:	00f50663          	beq	a0,a5,10704 <_read_r+0x26>
   106fc:	60a2                	ld	ra,8(sp)
   106fe:	6402                	ld	s0,0(sp)
   10700:	0141                	add	sp,sp,16
   10702:	8082                	ret
   10704:	2401a783          	lw	a5,576(gp) # 1b478 <errno>
   10708:	dbf5                	beqz	a5,106fc <_read_r+0x1e>
   1070a:	60a2                	ld	ra,8(sp)
   1070c:	c01c                	sw	a5,0(s0)
   1070e:	6402                	ld	s0,0(sp)
   10710:	0141                	add	sp,sp,16
   10712:	8082                	ret

0000000000010714 <_write_r>:
   10714:	1141                	add	sp,sp,-16
   10716:	872e                	mv	a4,a1
   10718:	e022                	sd	s0,0(sp)
   1071a:	85b2                	mv	a1,a2
   1071c:	842a                	mv	s0,a0
   1071e:	8636                	mv	a2,a3
   10720:	853a                	mv	a0,a4
   10722:	2401a023          	sw	zero,576(gp) # 1b478 <errno>
   10726:	e406                	sd	ra,8(sp)
   10728:	6b4070ef          	jal	17ddc <_write>
   1072c:	57fd                	li	a5,-1
   1072e:	00f50663          	beq	a0,a5,1073a <_write_r+0x26>
   10732:	60a2                	ld	ra,8(sp)
   10734:	6402                	ld	s0,0(sp)
   10736:	0141                	add	sp,sp,16
   10738:	8082                	ret
   1073a:	2401a783          	lw	a5,576(gp) # 1b478 <errno>
   1073e:	dbf5                	beqz	a5,10732 <_write_r+0x1e>
   10740:	60a2                	ld	ra,8(sp)
   10742:	c01c                	sw	a5,0(s0)
   10744:	6402                	ld	s0,0(sp)
   10746:	0141                	add	sp,sp,16
   10748:	8082                	ret

000000000001074a <__libc_init_array>:
   1074a:	1101                	add	sp,sp,-32
   1074c:	e822                	sd	s0,16(sp)
   1074e:	e04a                	sd	s2,0(sp)
   10750:	0000a797          	auipc	a5,0xa
   10754:	14c78793          	add	a5,a5,332 # 1a89c <__preinit_array_end>
   10758:	0000a417          	auipc	s0,0xa
   1075c:	14440413          	add	s0,s0,324 # 1a89c <__preinit_array_end>
   10760:	ec06                	sd	ra,24(sp)
   10762:	e426                	sd	s1,8(sp)
   10764:	40878933          	sub	s2,a5,s0
   10768:	00878b63          	beq	a5,s0,1077e <__libc_init_array+0x34>
   1076c:	40395913          	sra	s2,s2,0x3
   10770:	4481                	li	s1,0
   10772:	601c                	ld	a5,0(s0)
   10774:	0485                	add	s1,s1,1
   10776:	0421                	add	s0,s0,8
   10778:	9782                	jalr	a5
   1077a:	ff24ece3          	bltu	s1,s2,10772 <__libc_init_array+0x28>
   1077e:	0000a797          	auipc	a5,0xa
   10782:	13278793          	add	a5,a5,306 # 1a8b0 <__do_global_dtors_aux_fini_array_entry>
   10786:	0000a417          	auipc	s0,0xa
   1078a:	11a40413          	add	s0,s0,282 # 1a8a0 <__init_array_start>
   1078e:	40878933          	sub	s2,a5,s0
   10792:	40395913          	sra	s2,s2,0x3
   10796:	00878963          	beq	a5,s0,107a8 <__libc_init_array+0x5e>
   1079a:	4481                	li	s1,0
   1079c:	601c                	ld	a5,0(s0)
   1079e:	0485                	add	s1,s1,1
   107a0:	0421                	add	s0,s0,8
   107a2:	9782                	jalr	a5
   107a4:	ff24ece3          	bltu	s1,s2,1079c <__libc_init_array+0x52>
   107a8:	60e2                	ld	ra,24(sp)
   107aa:	6442                	ld	s0,16(sp)
   107ac:	64a2                	ld	s1,8(sp)
   107ae:	6902                	ld	s2,0(sp)
   107b0:	6105                	add	sp,sp,32
   107b2:	8082                	ret

00000000000107b4 <memset>:
   107b4:	433d                	li	t1,15
   107b6:	872a                	mv	a4,a0
   107b8:	02c37163          	bgeu	t1,a2,107da <memset+0x26>
   107bc:	00f77793          	and	a5,a4,15
   107c0:	e3c1                	bnez	a5,10840 <memset+0x8c>
   107c2:	e1bd                	bnez	a1,10828 <memset+0x74>
   107c4:	ff067693          	and	a3,a2,-16
   107c8:	8a3d                	and	a2,a2,15
   107ca:	96ba                	add	a3,a3,a4
   107cc:	e30c                	sd	a1,0(a4)
   107ce:	e70c                	sd	a1,8(a4)
   107d0:	0741                	add	a4,a4,16
   107d2:	fed76de3          	bltu	a4,a3,107cc <memset+0x18>
   107d6:	e211                	bnez	a2,107da <memset+0x26>
   107d8:	8082                	ret
   107da:	40c306b3          	sub	a3,t1,a2
   107de:	068a                	sll	a3,a3,0x2
   107e0:	00000297          	auipc	t0,0x0
   107e4:	9696                	add	a3,a3,t0
   107e6:	00a68067          	jr	10(a3)
   107ea:	00b70723          	sb	a1,14(a4)
   107ee:	00b706a3          	sb	a1,13(a4)
   107f2:	00b70623          	sb	a1,12(a4)
   107f6:	00b705a3          	sb	a1,11(a4)
   107fa:	00b70523          	sb	a1,10(a4)
   107fe:	00b704a3          	sb	a1,9(a4)
   10802:	00b70423          	sb	a1,8(a4)
   10806:	00b703a3          	sb	a1,7(a4)
   1080a:	00b70323          	sb	a1,6(a4)
   1080e:	00b702a3          	sb	a1,5(a4)
   10812:	00b70223          	sb	a1,4(a4)
   10816:	00b701a3          	sb	a1,3(a4)
   1081a:	00b70123          	sb	a1,2(a4)
   1081e:	00b700a3          	sb	a1,1(a4)
   10822:	00b70023          	sb	a1,0(a4)
   10826:	8082                	ret
   10828:	0ff5f593          	zext.b	a1,a1
   1082c:	00859693          	sll	a3,a1,0x8
   10830:	8dd5                	or	a1,a1,a3
   10832:	01059693          	sll	a3,a1,0x10
   10836:	8dd5                	or	a1,a1,a3
   10838:	02059693          	sll	a3,a1,0x20
   1083c:	8dd5                	or	a1,a1,a3
   1083e:	b759                	j	107c4 <memset+0x10>
   10840:	00279693          	sll	a3,a5,0x2
   10844:	00000297          	auipc	t0,0x0
   10848:	9696                	add	a3,a3,t0
   1084a:	8286                	mv	t0,ra
   1084c:	fa2680e7          	jalr	-94(a3)
   10850:	8096                	mv	ra,t0
   10852:	17c1                	add	a5,a5,-16
   10854:	8f1d                	sub	a4,a4,a5
   10856:	963e                	add	a2,a2,a5
   10858:	f8c371e3          	bgeu	t1,a2,107da <memset+0x26>
   1085c:	b79d                	j	107c2 <memset+0xe>

000000000001085e <__call_exitprocs>:
   1085e:	715d                	add	sp,sp,-80
   10860:	f052                	sd	s4,32(sp)
   10862:	24818a13          	add	s4,gp,584 # 1b480 <__atexit>
   10866:	f84a                	sd	s2,48(sp)
   10868:	000a3903          	ld	s2,0(s4)
   1086c:	e486                	sd	ra,72(sp)
   1086e:	06090d63          	beqz	s2,108e8 <__call_exitprocs+0x8a>
   10872:	f44e                	sd	s3,40(sp)
   10874:	ec56                	sd	s5,24(sp)
   10876:	e85a                	sd	s6,16(sp)
   10878:	e45e                	sd	s7,8(sp)
   1087a:	e0a2                	sd	s0,64(sp)
   1087c:	fc26                	sd	s1,56(sp)
   1087e:	e062                	sd	s8,0(sp)
   10880:	8b2a                	mv	s6,a0
   10882:	8bae                	mv	s7,a1
   10884:	59fd                	li	s3,-1
   10886:	4a85                	li	s5,1
   10888:	00892483          	lw	s1,8(s2)
   1088c:	fff4841b          	addw	s0,s1,-1
   10890:	04044563          	bltz	s0,108da <__call_exitprocs+0x7c>
   10894:	048e                	sll	s1,s1,0x3
   10896:	94ca                	add	s1,s1,s2
   10898:	040b9d63          	bnez	s7,108f2 <__call_exitprocs+0x94>
   1089c:	00892783          	lw	a5,8(s2)
   108a0:	6498                	ld	a4,8(s1)
   108a2:	37fd                	addw	a5,a5,-1
   108a4:	08878263          	beq	a5,s0,10928 <__call_exitprocs+0xca>
   108a8:	0004b423          	sd	zero,8(s1)
   108ac:	c31d                	beqz	a4,108d2 <__call_exitprocs+0x74>
   108ae:	31092783          	lw	a5,784(s2)
   108b2:	008a96bb          	sllw	a3,s5,s0
   108b6:	00892c03          	lw	s8,8(s2)
   108ba:	8ff5                	and	a5,a5,a3
   108bc:	2781                	sext.w	a5,a5
   108be:	e3b9                	bnez	a5,10904 <__call_exitprocs+0xa6>
   108c0:	9702                	jalr	a4
   108c2:	00892703          	lw	a4,8(s2)
   108c6:	000a3783          	ld	a5,0(s4)
   108ca:	05871c63          	bne	a4,s8,10922 <__call_exitprocs+0xc4>
   108ce:	05279a63          	bne	a5,s2,10922 <__call_exitprocs+0xc4>
   108d2:	347d                	addw	s0,s0,-1
   108d4:	14e1                	add	s1,s1,-8
   108d6:	fd3411e3          	bne	s0,s3,10898 <__call_exitprocs+0x3a>
   108da:	6406                	ld	s0,64(sp)
   108dc:	74e2                	ld	s1,56(sp)
   108de:	79a2                	ld	s3,40(sp)
   108e0:	6ae2                	ld	s5,24(sp)
   108e2:	6b42                	ld	s6,16(sp)
   108e4:	6ba2                	ld	s7,8(sp)
   108e6:	6c02                	ld	s8,0(sp)
   108e8:	60a6                	ld	ra,72(sp)
   108ea:	7942                	ld	s2,48(sp)
   108ec:	7a02                	ld	s4,32(sp)
   108ee:	6161                	add	sp,sp,80
   108f0:	8082                	ret
   108f2:	2084b783          	ld	a5,520(s1)
   108f6:	fb7783e3          	beq	a5,s7,1089c <__call_exitprocs+0x3e>
   108fa:	347d                	addw	s0,s0,-1
   108fc:	14e1                	add	s1,s1,-8
   108fe:	ff341ae3          	bne	s0,s3,108f2 <__call_exitprocs+0x94>
   10902:	bfe1                	j	108da <__call_exitprocs+0x7c>
   10904:	31492783          	lw	a5,788(s2)
   10908:	1084b583          	ld	a1,264(s1)
   1090c:	8ff5                	and	a5,a5,a3
   1090e:	2781                	sext.w	a5,a5
   10910:	ef99                	bnez	a5,1092e <__call_exitprocs+0xd0>
   10912:	855a                	mv	a0,s6
   10914:	9702                	jalr	a4
   10916:	00892703          	lw	a4,8(s2)
   1091a:	000a3783          	ld	a5,0(s4)
   1091e:	fb8708e3          	beq	a4,s8,108ce <__call_exitprocs+0x70>
   10922:	dfc5                	beqz	a5,108da <__call_exitprocs+0x7c>
   10924:	893e                	mv	s2,a5
   10926:	b78d                	j	10888 <__call_exitprocs+0x2a>
   10928:	00892423          	sw	s0,8(s2)
   1092c:	b741                	j	108ac <__call_exitprocs+0x4e>
   1092e:	852e                	mv	a0,a1
   10930:	9702                	jalr	a4
   10932:	bf41                	j	108c2 <__call_exitprocs+0x64>

0000000000010934 <atexit>:
   10934:	85aa                	mv	a1,a0
   10936:	4681                	li	a3,0
   10938:	4601                	li	a2,0
   1093a:	4501                	li	a0,0
   1093c:	3660406f          	j	14ca2 <__register_exitproc>

0000000000010940 <_malloc_trim_r>:
   10940:	7179                	add	sp,sp,-48
   10942:	f022                	sd	s0,32(sp)
   10944:	ec26                	sd	s1,24(sp)
   10946:	e84a                	sd	s2,16(sp)
   10948:	e44e                	sd	s3,8(sp)
   1094a:	e052                	sd	s4,0(sp)
   1094c:	89ae                	mv	s3,a1
   1094e:	f406                	sd	ra,40(sp)
   10950:	892a                	mv	s2,a0
   10952:	0000aa17          	auipc	s4,0xa
   10956:	0d6a0a13          	add	s4,s4,214 # 1aa28 <__malloc_av_>
   1095a:	10f000ef          	jal	11268 <__malloc_lock>
   1095e:	010a3703          	ld	a4,16(s4)
   10962:	6785                	lui	a5,0x1
   10964:	fdf78793          	add	a5,a5,-33 # fdf <exit-0xf109>
   10968:	6704                	ld	s1,8(a4)
   1096a:	6705                	lui	a4,0x1
   1096c:	98f1                	and	s1,s1,-4
   1096e:	00f48433          	add	s0,s1,a5
   10972:	41340433          	sub	s0,s0,s3
   10976:	8031                	srl	s0,s0,0xc
   10978:	147d                	add	s0,s0,-1
   1097a:	0432                	sll	s0,s0,0xc
   1097c:	00e44b63          	blt	s0,a4,10992 <_malloc_trim_r+0x52>
   10980:	4581                	li	a1,0
   10982:	854a                	mv	a0,s2
   10984:	65f030ef          	jal	147e2 <_sbrk_r>
   10988:	010a3783          	ld	a5,16(s4)
   1098c:	97a6                	add	a5,a5,s1
   1098e:	00f50e63          	beq	a0,a5,109aa <_malloc_trim_r+0x6a>
   10992:	854a                	mv	a0,s2
   10994:	0d7000ef          	jal	1126a <__malloc_unlock>
   10998:	70a2                	ld	ra,40(sp)
   1099a:	7402                	ld	s0,32(sp)
   1099c:	64e2                	ld	s1,24(sp)
   1099e:	6942                	ld	s2,16(sp)
   109a0:	69a2                	ld	s3,8(sp)
   109a2:	6a02                	ld	s4,0(sp)
   109a4:	4501                	li	a0,0
   109a6:	6145                	add	sp,sp,48
   109a8:	8082                	ret
   109aa:	408005b3          	neg	a1,s0
   109ae:	854a                	mv	a0,s2
   109b0:	633030ef          	jal	147e2 <_sbrk_r>
   109b4:	57fd                	li	a5,-1
   109b6:	02f50963          	beq	a0,a5,109e8 <_malloc_trim_r+0xa8>
   109ba:	4c018713          	add	a4,gp,1216 # 1b6f8 <__malloc_current_mallinfo>
   109be:	431c                	lw	a5,0(a4)
   109c0:	010a3683          	ld	a3,16(s4)
   109c4:	8c81                	sub	s1,s1,s0
   109c6:	0014e493          	or	s1,s1,1
   109ca:	9f81                	subw	a5,a5,s0
   109cc:	854a                	mv	a0,s2
   109ce:	e684                	sd	s1,8(a3)
   109d0:	c31c                	sw	a5,0(a4)
   109d2:	099000ef          	jal	1126a <__malloc_unlock>
   109d6:	70a2                	ld	ra,40(sp)
   109d8:	7402                	ld	s0,32(sp)
   109da:	64e2                	ld	s1,24(sp)
   109dc:	6942                	ld	s2,16(sp)
   109de:	69a2                	ld	s3,8(sp)
   109e0:	6a02                	ld	s4,0(sp)
   109e2:	4505                	li	a0,1
   109e4:	6145                	add	sp,sp,48
   109e6:	8082                	ret
   109e8:	4581                	li	a1,0
   109ea:	854a                	mv	a0,s2
   109ec:	5f7030ef          	jal	147e2 <_sbrk_r>
   109f0:	010a3703          	ld	a4,16(s4)
   109f4:	46fd                	li	a3,31
   109f6:	40e507b3          	sub	a5,a0,a4
   109fa:	f8f6dce3          	bge	a3,a5,10992 <_malloc_trim_r+0x52>
   109fe:	2281b683          	ld	a3,552(gp) # 1b460 <__malloc_sbrk_base>
   10a02:	8d15                	sub	a0,a0,a3
   10a04:	0017e793          	or	a5,a5,1
   10a08:	4ca1a023          	sw	a0,1216(gp) # 1b6f8 <__malloc_current_mallinfo>
   10a0c:	e71c                	sd	a5,8(a4)
   10a0e:	b751                	j	10992 <_malloc_trim_r+0x52>

0000000000010a10 <_free_r>:
   10a10:	12058363          	beqz	a1,10b36 <_free_r+0x126>
   10a14:	1101                	add	sp,sp,-32
   10a16:	e822                	sd	s0,16(sp)
   10a18:	e426                	sd	s1,8(sp)
   10a1a:	842e                	mv	s0,a1
   10a1c:	84aa                	mv	s1,a0
   10a1e:	ec06                	sd	ra,24(sp)
   10a20:	049000ef          	jal	11268 <__malloc_lock>
   10a24:	ff843583          	ld	a1,-8(s0)
   10a28:	ff040713          	add	a4,s0,-16
   10a2c:	0000a517          	auipc	a0,0xa
   10a30:	ffc50513          	add	a0,a0,-4 # 1aa28 <__malloc_av_>
   10a34:	ffe5f793          	and	a5,a1,-2
   10a38:	00f70633          	add	a2,a4,a5
   10a3c:	6614                	ld	a3,8(a2)
   10a3e:	01053803          	ld	a6,16(a0)
   10a42:	9af1                	and	a3,a3,-4
   10a44:	12c80b63          	beq	a6,a2,10b7a <_free_r+0x16a>
   10a48:	e614                	sd	a3,8(a2)
   10a4a:	8985                	and	a1,a1,1
   10a4c:	00d60833          	add	a6,a2,a3
   10a50:	e1c1                	bnez	a1,10ad0 <_free_r+0xc0>
   10a52:	ff043303          	ld	t1,-16(s0)
   10a56:	00883583          	ld	a1,8(a6)
   10a5a:	0000a897          	auipc	a7,0xa
   10a5e:	fde88893          	add	a7,a7,-34 # 1aa38 <__malloc_av_+0x10>
   10a62:	40670733          	sub	a4,a4,t1
   10a66:	01073803          	ld	a6,16(a4) # 1010 <exit-0xf0d8>
   10a6a:	979a                	add	a5,a5,t1
   10a6c:	8985                	and	a1,a1,1
   10a6e:	0f180a63          	beq	a6,a7,10b62 <_free_r+0x152>
   10a72:	01873303          	ld	t1,24(a4)
   10a76:	00683c23          	sd	t1,24(a6)
   10a7a:	01033823          	sd	a6,16(t1)
   10a7e:	12058763          	beqz	a1,10bac <_free_r+0x19c>
   10a82:	0017e693          	or	a3,a5,1
   10a86:	e714                	sd	a3,8(a4)
   10a88:	e21c                	sd	a5,0(a2)
   10a8a:	1ff00693          	li	a3,511
   10a8e:	04f6ee63          	bltu	a3,a5,10aea <_free_r+0xda>
   10a92:	838d                	srl	a5,a5,0x3
   10a94:	0017869b          	addw	a3,a5,1
   10a98:	0016969b          	sllw	a3,a3,0x1
   10a9c:	068e                	sll	a3,a3,0x3
   10a9e:	00853803          	ld	a6,8(a0)
   10aa2:	96aa                	add	a3,a3,a0
   10aa4:	628c                	ld	a1,0(a3)
   10aa6:	4027d61b          	sraw	a2,a5,0x2
   10aaa:	4785                	li	a5,1
   10aac:	00c797b3          	sll	a5,a5,a2
   10ab0:	0107e7b3          	or	a5,a5,a6
   10ab4:	ff068613          	add	a2,a3,-16
   10ab8:	ef10                	sd	a2,24(a4)
   10aba:	eb0c                	sd	a1,16(a4)
   10abc:	e51c                	sd	a5,8(a0)
   10abe:	e298                	sd	a4,0(a3)
   10ac0:	ed98                	sd	a4,24(a1)
   10ac2:	6442                	ld	s0,16(sp)
   10ac4:	60e2                	ld	ra,24(sp)
   10ac6:	8526                	mv	a0,s1
   10ac8:	64a2                	ld	s1,8(sp)
   10aca:	6105                	add	sp,sp,32
   10acc:	79e0006f          	j	1126a <__malloc_unlock>
   10ad0:	00883583          	ld	a1,8(a6)
   10ad4:	8985                	and	a1,a1,1
   10ad6:	c1ad                	beqz	a1,10b38 <_free_r+0x128>
   10ad8:	0017e693          	or	a3,a5,1
   10adc:	fed43c23          	sd	a3,-8(s0)
   10ae0:	e21c                	sd	a5,0(a2)
   10ae2:	1ff00693          	li	a3,511
   10ae6:	faf6f6e3          	bgeu	a3,a5,10a92 <_free_r+0x82>
   10aea:	0097d693          	srl	a3,a5,0x9
   10aee:	4611                	li	a2,4
   10af0:	0cd66063          	bltu	a2,a3,10bb0 <_free_r+0x1a0>
   10af4:	0067d693          	srl	a3,a5,0x6
   10af8:	0396859b          	addw	a1,a3,57
   10afc:	0015959b          	sllw	a1,a1,0x1
   10b00:	0386861b          	addw	a2,a3,56
   10b04:	058e                	sll	a1,a1,0x3
   10b06:	95aa                	add	a1,a1,a0
   10b08:	6194                	ld	a3,0(a1)
   10b0a:	15c1                	add	a1,a1,-16
   10b0c:	00d59663          	bne	a1,a3,10b18 <_free_r+0x108>
   10b10:	a0ed                	j	10bfa <_free_r+0x1ea>
   10b12:	6a94                	ld	a3,16(a3)
   10b14:	00d58663          	beq	a1,a3,10b20 <_free_r+0x110>
   10b18:	6690                	ld	a2,8(a3)
   10b1a:	9a71                	and	a2,a2,-4
   10b1c:	fec7ebe3          	bltu	a5,a2,10b12 <_free_r+0x102>
   10b20:	6e8c                	ld	a1,24(a3)
   10b22:	ef0c                	sd	a1,24(a4)
   10b24:	eb14                	sd	a3,16(a4)
   10b26:	6442                	ld	s0,16(sp)
   10b28:	60e2                	ld	ra,24(sp)
   10b2a:	e998                	sd	a4,16(a1)
   10b2c:	8526                	mv	a0,s1
   10b2e:	64a2                	ld	s1,8(sp)
   10b30:	ee98                	sd	a4,24(a3)
   10b32:	6105                	add	sp,sp,32
   10b34:	af1d                	j	1126a <__malloc_unlock>
   10b36:	8082                	ret
   10b38:	97b6                	add	a5,a5,a3
   10b3a:	0000a897          	auipc	a7,0xa
   10b3e:	efe88893          	add	a7,a7,-258 # 1aa38 <__malloc_av_+0x10>
   10b42:	6a14                	ld	a3,16(a2)
   10b44:	09168f63          	beq	a3,a7,10be2 <_free_r+0x1d2>
   10b48:	01863803          	ld	a6,24(a2)
   10b4c:	0017e593          	or	a1,a5,1
   10b50:	00f70633          	add	a2,a4,a5
   10b54:	0106bc23          	sd	a6,24(a3)
   10b58:	00d83823          	sd	a3,16(a6)
   10b5c:	e70c                	sd	a1,8(a4)
   10b5e:	e21c                	sd	a5,0(a2)
   10b60:	b72d                	j	10a8a <_free_r+0x7a>
   10b62:	e9e5                	bnez	a1,10c52 <_free_r+0x242>
   10b64:	6a0c                	ld	a1,16(a2)
   10b66:	6e10                	ld	a2,24(a2)
   10b68:	96be                	add	a3,a3,a5
   10b6a:	0016e793          	or	a5,a3,1
   10b6e:	ed90                	sd	a2,24(a1)
   10b70:	ea0c                	sd	a1,16(a2)
   10b72:	e71c                	sd	a5,8(a4)
   10b74:	9736                	add	a4,a4,a3
   10b76:	e314                	sd	a3,0(a4)
   10b78:	b7a9                	j	10ac2 <_free_r+0xb2>
   10b7a:	8985                	and	a1,a1,1
   10b7c:	96be                	add	a3,a3,a5
   10b7e:	e989                	bnez	a1,10b90 <_free_r+0x180>
   10b80:	ff043583          	ld	a1,-16(s0)
   10b84:	8f0d                	sub	a4,a4,a1
   10b86:	6f1c                	ld	a5,24(a4)
   10b88:	6b10                	ld	a2,16(a4)
   10b8a:	96ae                	add	a3,a3,a1
   10b8c:	ee1c                	sd	a5,24(a2)
   10b8e:	eb90                	sd	a2,16(a5)
   10b90:	0016e793          	or	a5,a3,1
   10b94:	e71c                	sd	a5,8(a4)
   10b96:	e918                	sd	a4,16(a0)
   10b98:	2301b783          	ld	a5,560(gp) # 1b468 <__malloc_trim_threshold>
   10b9c:	f2f6e3e3          	bltu	a3,a5,10ac2 <_free_r+0xb2>
   10ba0:	2601b583          	ld	a1,608(gp) # 1b498 <__malloc_top_pad>
   10ba4:	8526                	mv	a0,s1
   10ba6:	d9bff0ef          	jal	10940 <_malloc_trim_r>
   10baa:	bf21                	j	10ac2 <_free_r+0xb2>
   10bac:	97b6                	add	a5,a5,a3
   10bae:	bf51                	j	10b42 <_free_r+0x132>
   10bb0:	4651                	li	a2,20
   10bb2:	02d67063          	bgeu	a2,a3,10bd2 <_free_r+0x1c2>
   10bb6:	05400613          	li	a2,84
   10bba:	04d66b63          	bltu	a2,a3,10c10 <_free_r+0x200>
   10bbe:	00c7d693          	srl	a3,a5,0xc
   10bc2:	06f6859b          	addw	a1,a3,111
   10bc6:	0015959b          	sllw	a1,a1,0x1
   10bca:	06e6861b          	addw	a2,a3,110
   10bce:	058e                	sll	a1,a1,0x3
   10bd0:	bf1d                	j	10b06 <_free_r+0xf6>
   10bd2:	05c6859b          	addw	a1,a3,92
   10bd6:	0015959b          	sllw	a1,a1,0x1
   10bda:	05b6861b          	addw	a2,a3,91
   10bde:	058e                	sll	a1,a1,0x3
   10be0:	b71d                	j	10b06 <_free_r+0xf6>
   10be2:	f518                	sd	a4,40(a0)
   10be4:	f118                	sd	a4,32(a0)
   10be6:	0017e693          	or	a3,a5,1
   10bea:	01173c23          	sd	a7,24(a4)
   10bee:	01173823          	sd	a7,16(a4)
   10bf2:	e714                	sd	a3,8(a4)
   10bf4:	973e                	add	a4,a4,a5
   10bf6:	e31c                	sd	a5,0(a4)
   10bf8:	b5e9                	j	10ac2 <_free_r+0xb2>
   10bfa:	00853803          	ld	a6,8(a0)
   10bfe:	4026561b          	sraw	a2,a2,0x2
   10c02:	4785                	li	a5,1
   10c04:	00c797b3          	sll	a5,a5,a2
   10c08:	0107e7b3          	or	a5,a5,a6
   10c0c:	e51c                	sd	a5,8(a0)
   10c0e:	bf11                	j	10b22 <_free_r+0x112>
   10c10:	15400613          	li	a2,340
   10c14:	00d66c63          	bltu	a2,a3,10c2c <_free_r+0x21c>
   10c18:	00f7d693          	srl	a3,a5,0xf
   10c1c:	0786859b          	addw	a1,a3,120
   10c20:	0015959b          	sllw	a1,a1,0x1
   10c24:	0776861b          	addw	a2,a3,119
   10c28:	058e                	sll	a1,a1,0x3
   10c2a:	bdf1                	j	10b06 <_free_r+0xf6>
   10c2c:	55400613          	li	a2,1364
   10c30:	00d66c63          	bltu	a2,a3,10c48 <_free_r+0x238>
   10c34:	0127d693          	srl	a3,a5,0x12
   10c38:	07d6859b          	addw	a1,a3,125
   10c3c:	0015959b          	sllw	a1,a1,0x1
   10c40:	07c6861b          	addw	a2,a3,124
   10c44:	058e                	sll	a1,a1,0x3
   10c46:	b5c1                	j	10b06 <_free_r+0xf6>
   10c48:	7f000593          	li	a1,2032
   10c4c:	07e00613          	li	a2,126
   10c50:	bd5d                	j	10b06 <_free_r+0xf6>
   10c52:	0017e693          	or	a3,a5,1
   10c56:	e714                	sd	a3,8(a4)
   10c58:	e21c                	sd	a5,0(a2)
   10c5a:	b5a5                	j	10ac2 <_free_r+0xb2>

0000000000010c5c <_malloc_r>:
   10c5c:	711d                	add	sp,sp,-96
   10c5e:	e4a6                	sd	s1,72(sp)
   10c60:	e0ca                	sd	s2,64(sp)
   10c62:	ec86                	sd	ra,88(sp)
   10c64:	e8a2                	sd	s0,80(sp)
   10c66:	fc4e                	sd	s3,56(sp)
   10c68:	01758493          	add	s1,a1,23
   10c6c:	02e00793          	li	a5,46
   10c70:	892a                	mv	s2,a0
   10c72:	0497ee63          	bltu	a5,s1,10cce <_malloc_r+0x72>
   10c76:	02000793          	li	a5,32
   10c7a:	18b7ec63          	bltu	a5,a1,10e12 <_malloc_r+0x1b6>
   10c7e:	5ea000ef          	jal	11268 <__malloc_lock>
   10c82:	05000793          	li	a5,80
   10c86:	4591                	li	a1,4
   10c88:	02000493          	li	s1,32
   10c8c:	0000a997          	auipc	s3,0xa
   10c90:	d9c98993          	add	s3,s3,-612 # 1aa28 <__malloc_av_>
   10c94:	97ce                	add	a5,a5,s3
   10c96:	6780                	ld	s0,8(a5)
   10c98:	ff078713          	add	a4,a5,-16
   10c9c:	28e40163          	beq	s0,a4,10f1e <_malloc_r+0x2c2>
   10ca0:	641c                	ld	a5,8(s0)
   10ca2:	6c14                	ld	a3,24(s0)
   10ca4:	6810                	ld	a2,16(s0)
   10ca6:	9bf1                	and	a5,a5,-4
   10ca8:	97a2                	add	a5,a5,s0
   10caa:	6798                	ld	a4,8(a5)
   10cac:	ee14                	sd	a3,24(a2)
   10cae:	ea90                	sd	a2,16(a3)
   10cb0:	00176713          	or	a4,a4,1
   10cb4:	854a                	mv	a0,s2
   10cb6:	e798                	sd	a4,8(a5)
   10cb8:	5b2000ef          	jal	1126a <__malloc_unlock>
   10cbc:	01040513          	add	a0,s0,16
   10cc0:	60e6                	ld	ra,88(sp)
   10cc2:	6446                	ld	s0,80(sp)
   10cc4:	64a6                	ld	s1,72(sp)
   10cc6:	6906                	ld	s2,64(sp)
   10cc8:	79e2                	ld	s3,56(sp)
   10cca:	6125                	add	sp,sp,96
   10ccc:	8082                	ret
   10cce:	800007b7          	lui	a5,0x80000
   10cd2:	98c1                	and	s1,s1,-16
   10cd4:	fff7c793          	not	a5,a5
   10cd8:	1297ed63          	bltu	a5,s1,10e12 <_malloc_r+0x1b6>
   10cdc:	12b4eb63          	bltu	s1,a1,10e12 <_malloc_r+0x1b6>
   10ce0:	588000ef          	jal	11268 <__malloc_lock>
   10ce4:	1f700793          	li	a5,503
   10ce8:	3297f663          	bgeu	a5,s1,11014 <_malloc_r+0x3b8>
   10cec:	0094d793          	srl	a5,s1,0x9
   10cf0:	12078663          	beqz	a5,10e1c <_malloc_r+0x1c0>
   10cf4:	4711                	li	a4,4
   10cf6:	26f76b63          	bltu	a4,a5,10f6c <_malloc_r+0x310>
   10cfa:	0064d793          	srl	a5,s1,0x6
   10cfe:	0397859b          	addw	a1,a5,57 # ffffffff80000039 <__BSS_END__+0xffffffff7ffe4601>
   10d02:	0015961b          	sllw	a2,a1,0x1
   10d06:	0387881b          	addw	a6,a5,56
   10d0a:	060e                	sll	a2,a2,0x3
   10d0c:	0000a997          	auipc	s3,0xa
   10d10:	d1c98993          	add	s3,s3,-740 # 1aa28 <__malloc_av_>
   10d14:	964e                	add	a2,a2,s3
   10d16:	6600                	ld	s0,8(a2)
   10d18:	1641                	add	a2,a2,-16
   10d1a:	02860163          	beq	a2,s0,10d3c <_malloc_r+0xe0>
   10d1e:	457d                	li	a0,31
   10d20:	a039                	j	10d2e <_malloc_r+0xd2>
   10d22:	6c14                	ld	a3,24(s0)
   10d24:	1e075b63          	bgez	a4,10f1a <_malloc_r+0x2be>
   10d28:	00d60a63          	beq	a2,a3,10d3c <_malloc_r+0xe0>
   10d2c:	8436                	mv	s0,a3
   10d2e:	641c                	ld	a5,8(s0)
   10d30:	9bf1                	and	a5,a5,-4
   10d32:	40978733          	sub	a4,a5,s1
   10d36:	fee556e3          	bge	a0,a4,10d22 <_malloc_r+0xc6>
   10d3a:	85c2                	mv	a1,a6
   10d3c:	0209b403          	ld	s0,32(s3)
   10d40:	0000a897          	auipc	a7,0xa
   10d44:	cf888893          	add	a7,a7,-776 # 1aa38 <__malloc_av_+0x10>
   10d48:	1d140663          	beq	s0,a7,10f14 <_malloc_r+0x2b8>
   10d4c:	641c                	ld	a5,8(s0)
   10d4e:	46fd                	li	a3,31
   10d50:	9bf1                	and	a5,a5,-4
   10d52:	40978733          	sub	a4,a5,s1
   10d56:	28e6c863          	blt	a3,a4,10fe6 <_malloc_r+0x38a>
   10d5a:	0319b423          	sd	a7,40(s3)
   10d5e:	0319b023          	sd	a7,32(s3)
   10d62:	26075763          	bgez	a4,10fd0 <_malloc_r+0x374>
   10d66:	1ff00713          	li	a4,511
   10d6a:	0089b503          	ld	a0,8(s3)
   10d6e:	1af76d63          	bltu	a4,a5,10f28 <_malloc_r+0x2cc>
   10d72:	838d                	srl	a5,a5,0x3
   10d74:	0017871b          	addw	a4,a5,1
   10d78:	0017171b          	sllw	a4,a4,0x1
   10d7c:	070e                	sll	a4,a4,0x3
   10d7e:	974e                	add	a4,a4,s3
   10d80:	6310                	ld	a2,0(a4)
   10d82:	4027d79b          	sraw	a5,a5,0x2
   10d86:	4685                	li	a3,1
   10d88:	00f697b3          	sll	a5,a3,a5
   10d8c:	8d5d                	or	a0,a0,a5
   10d8e:	ff070793          	add	a5,a4,-16
   10d92:	ec1c                	sd	a5,24(s0)
   10d94:	e810                	sd	a2,16(s0)
   10d96:	00a9b423          	sd	a0,8(s3)
   10d9a:	e300                	sd	s0,0(a4)
   10d9c:	ee00                	sd	s0,24(a2)
   10d9e:	4025d79b          	sraw	a5,a1,0x2
   10da2:	4605                	li	a2,1
   10da4:	00f61633          	sll	a2,a2,a5
   10da8:	08c56163          	bltu	a0,a2,10e2a <_malloc_r+0x1ce>
   10dac:	00a677b3          	and	a5,a2,a0
   10db0:	ef81                	bnez	a5,10dc8 <_malloc_r+0x16c>
   10db2:	0606                	sll	a2,a2,0x1
   10db4:	99f1                	and	a1,a1,-4
   10db6:	00a677b3          	and	a5,a2,a0
   10dba:	2591                	addw	a1,a1,4
   10dbc:	e791                	bnez	a5,10dc8 <_malloc_r+0x16c>
   10dbe:	0606                	sll	a2,a2,0x1
   10dc0:	00a677b3          	and	a5,a2,a0
   10dc4:	2591                	addw	a1,a1,4
   10dc6:	dfe5                	beqz	a5,10dbe <_malloc_r+0x162>
   10dc8:	487d                	li	a6,31
   10dca:	0015831b          	addw	t1,a1,1
   10dce:	0013131b          	sllw	t1,t1,0x1
   10dd2:	030e                	sll	t1,t1,0x3
   10dd4:	1341                	add	t1,t1,-16
   10dd6:	934e                	add	t1,t1,s3
   10dd8:	851a                	mv	a0,t1
   10dda:	6d1c                	ld	a5,24(a0)
   10ddc:	8e2e                	mv	t3,a1
   10dde:	1af50863          	beq	a0,a5,10f8e <_malloc_r+0x332>
   10de2:	6798                	ld	a4,8(a5)
   10de4:	843e                	mv	s0,a5
   10de6:	6f9c                	ld	a5,24(a5)
   10de8:	9b71                	and	a4,a4,-4
   10dea:	409706b3          	sub	a3,a4,s1
   10dee:	1ad84763          	blt	a6,a3,10f9c <_malloc_r+0x340>
   10df2:	fe06c6e3          	bltz	a3,10dde <_malloc_r+0x182>
   10df6:	9722                	add	a4,a4,s0
   10df8:	6714                	ld	a3,8(a4)
   10dfa:	6810                	ld	a2,16(s0)
   10dfc:	854a                	mv	a0,s2
   10dfe:	0016e693          	or	a3,a3,1
   10e02:	e714                	sd	a3,8(a4)
   10e04:	ee1c                	sd	a5,24(a2)
   10e06:	eb90                	sd	a2,16(a5)
   10e08:	462000ef          	jal	1126a <__malloc_unlock>
   10e0c:	01040513          	add	a0,s0,16
   10e10:	bd45                	j	10cc0 <_malloc_r+0x64>
   10e12:	47b1                	li	a5,12
   10e14:	00f92023          	sw	a5,0(s2)
   10e18:	4501                	li	a0,0
   10e1a:	b55d                	j	10cc0 <_malloc_r+0x64>
   10e1c:	40000613          	li	a2,1024
   10e20:	04000593          	li	a1,64
   10e24:	03f00813          	li	a6,63
   10e28:	b5d5                	j	10d0c <_malloc_r+0xb0>
   10e2a:	0109b403          	ld	s0,16(s3)
   10e2e:	f456                	sd	s5,40(sp)
   10e30:	641c                	ld	a5,8(s0)
   10e32:	ffc7fa93          	and	s5,a5,-4
   10e36:	009ae763          	bltu	s5,s1,10e44 <_malloc_r+0x1e8>
   10e3a:	409a8733          	sub	a4,s5,s1
   10e3e:	47fd                	li	a5,31
   10e40:	0ae7c463          	blt	a5,a4,10ee8 <_malloc_r+0x28c>
   10e44:	e466                	sd	s9,8(sp)
   10e46:	22818c93          	add	s9,gp,552 # 1b460 <__malloc_sbrk_base>
   10e4a:	000cb703          	ld	a4,0(s9)
   10e4e:	f852                	sd	s4,48(sp)
   10e50:	ec5e                	sd	s7,24(sp)
   10e52:	2601ba03          	ld	s4,608(gp) # 1b498 <__malloc_top_pad>
   10e56:	f05a                	sd	s6,32(sp)
   10e58:	57fd                	li	a5,-1
   10e5a:	01540bb3          	add	s7,s0,s5
   10e5e:	9a26                	add	s4,s4,s1
   10e60:	2ef70863          	beq	a4,a5,11150 <_malloc_r+0x4f4>
   10e64:	6785                	lui	a5,0x1
   10e66:	07fd                	add	a5,a5,31 # 101f <exit-0xf0c9>
   10e68:	9a3e                	add	s4,s4,a5
   10e6a:	77fd                	lui	a5,0xfffff
   10e6c:	00fa7a33          	and	s4,s4,a5
   10e70:	85d2                	mv	a1,s4
   10e72:	854a                	mv	a0,s2
   10e74:	16f030ef          	jal	147e2 <_sbrk_r>
   10e78:	57fd                	li	a5,-1
   10e7a:	8b2a                	mv	s6,a0
   10e7c:	36f50063          	beq	a0,a5,111dc <_malloc_r+0x580>
   10e80:	e862                	sd	s8,16(sp)
   10e82:	1b756c63          	bltu	a0,s7,1103a <_malloc_r+0x3de>
   10e86:	4c018c13          	add	s8,gp,1216 # 1b6f8 <__malloc_current_mallinfo>
   10e8a:	000c2783          	lw	a5,0(s8)
   10e8e:	0147873b          	addw	a4,a5,s4
   10e92:	00ec2023          	sw	a4,0(s8)
   10e96:	86ba                	mv	a3,a4
   10e98:	20ab9763          	bne	s7,a0,110a6 <_malloc_r+0x44a>
   10e9c:	03451793          	sll	a5,a0,0x34
   10ea0:	20079363          	bnez	a5,110a6 <_malloc_r+0x44a>
   10ea4:	0109bb03          	ld	s6,16(s3)
   10ea8:	014a87b3          	add	a5,s5,s4
   10eac:	0017e793          	or	a5,a5,1
   10eb0:	00fb3423          	sd	a5,8(s6)
   10eb4:	25818693          	add	a3,gp,600 # 1b490 <__malloc_max_sbrked_mem>
   10eb8:	6290                	ld	a2,0(a3)
   10eba:	00e67363          	bgeu	a2,a4,10ec0 <_malloc_r+0x264>
   10ebe:	e298                	sd	a4,0(a3)
   10ec0:	25018693          	add	a3,gp,592 # 1b488 <__malloc_max_total_mem>
   10ec4:	6290                	ld	a2,0(a3)
   10ec6:	00e67363          	bgeu	a2,a4,10ecc <_malloc_r+0x270>
   10eca:	e298                	sd	a4,0(a3)
   10ecc:	6c42                	ld	s8,16(sp)
   10ece:	845a                	mv	s0,s6
   10ed0:	9bf1                	and	a5,a5,-4
   10ed2:	40978733          	sub	a4,a5,s1
   10ed6:	2a97ed63          	bltu	a5,s1,11190 <_malloc_r+0x534>
   10eda:	47fd                	li	a5,31
   10edc:	2ae7da63          	bge	a5,a4,11190 <_malloc_r+0x534>
   10ee0:	7a42                	ld	s4,48(sp)
   10ee2:	7b02                	ld	s6,32(sp)
   10ee4:	6be2                	ld	s7,24(sp)
   10ee6:	6ca2                	ld	s9,8(sp)
   10ee8:	0014e793          	or	a5,s1,1
   10eec:	e41c                	sd	a5,8(s0)
   10eee:	94a2                	add	s1,s1,s0
   10ef0:	0099b823          	sd	s1,16(s3)
   10ef4:	00176713          	or	a4,a4,1
   10ef8:	854a                	mv	a0,s2
   10efa:	e498                	sd	a4,8(s1)
   10efc:	36e000ef          	jal	1126a <__malloc_unlock>
   10f00:	60e6                	ld	ra,88(sp)
   10f02:	01040513          	add	a0,s0,16
   10f06:	6446                	ld	s0,80(sp)
   10f08:	7aa2                	ld	s5,40(sp)
   10f0a:	64a6                	ld	s1,72(sp)
   10f0c:	6906                	ld	s2,64(sp)
   10f0e:	79e2                	ld	s3,56(sp)
   10f10:	6125                	add	sp,sp,96
   10f12:	8082                	ret
   10f14:	0089b503          	ld	a0,8(s3)
   10f18:	b559                	j	10d9e <_malloc_r+0x142>
   10f1a:	6810                	ld	a2,16(s0)
   10f1c:	b371                	j	10ca8 <_malloc_r+0x4c>
   10f1e:	6f80                	ld	s0,24(a5)
   10f20:	2589                	addw	a1,a1,2
   10f22:	e0878de3          	beq	a5,s0,10d3c <_malloc_r+0xe0>
   10f26:	bbad                	j	10ca0 <_malloc_r+0x44>
   10f28:	0097d713          	srl	a4,a5,0x9
   10f2c:	4691                	li	a3,4
   10f2e:	0ee6fc63          	bgeu	a3,a4,11026 <_malloc_r+0x3ca>
   10f32:	46d1                	li	a3,20
   10f34:	26e6e863          	bltu	a3,a4,111a4 <_malloc_r+0x548>
   10f38:	05c7061b          	addw	a2,a4,92
   10f3c:	0016161b          	sllw	a2,a2,0x1
   10f40:	05b7069b          	addw	a3,a4,91
   10f44:	060e                	sll	a2,a2,0x3
   10f46:	964e                	add	a2,a2,s3
   10f48:	6218                	ld	a4,0(a2)
   10f4a:	1641                	add	a2,a2,-16
   10f4c:	00e61663          	bne	a2,a4,10f58 <_malloc_r+0x2fc>
   10f50:	a419                	j	11156 <_malloc_r+0x4fa>
   10f52:	6b18                	ld	a4,16(a4)
   10f54:	00e60663          	beq	a2,a4,10f60 <_malloc_r+0x304>
   10f58:	6714                	ld	a3,8(a4)
   10f5a:	9af1                	and	a3,a3,-4
   10f5c:	fed7ebe3          	bltu	a5,a3,10f52 <_malloc_r+0x2f6>
   10f60:	6f10                	ld	a2,24(a4)
   10f62:	ec10                	sd	a2,24(s0)
   10f64:	e818                	sd	a4,16(s0)
   10f66:	ea00                	sd	s0,16(a2)
   10f68:	ef00                	sd	s0,24(a4)
   10f6a:	bd15                	j	10d9e <_malloc_r+0x142>
   10f6c:	4751                	li	a4,20
   10f6e:	0cf77d63          	bgeu	a4,a5,11048 <_malloc_r+0x3ec>
   10f72:	05400713          	li	a4,84
   10f76:	24f76563          	bltu	a4,a5,111c0 <_malloc_r+0x564>
   10f7a:	00c4d793          	srl	a5,s1,0xc
   10f7e:	06f7859b          	addw	a1,a5,111 # fffffffffffff06f <__BSS_END__+0xfffffffffffe3637>
   10f82:	0015961b          	sllw	a2,a1,0x1
   10f86:	06e7881b          	addw	a6,a5,110
   10f8a:	060e                	sll	a2,a2,0x3
   10f8c:	b341                	j	10d0c <_malloc_r+0xb0>
   10f8e:	2e05                	addw	t3,t3,1
   10f90:	003e7793          	and	a5,t3,3
   10f94:	0541                	add	a0,a0,16
   10f96:	c7f1                	beqz	a5,11062 <_malloc_r+0x406>
   10f98:	6d1c                	ld	a5,24(a0)
   10f9a:	b591                	j	10dde <_malloc_r+0x182>
   10f9c:	6810                	ld	a2,16(s0)
   10f9e:	0014e593          	or	a1,s1,1
   10fa2:	e40c                	sd	a1,8(s0)
   10fa4:	ee1c                	sd	a5,24(a2)
   10fa6:	eb90                	sd	a2,16(a5)
   10fa8:	94a2                	add	s1,s1,s0
   10faa:	0299b423          	sd	s1,40(s3)
   10fae:	0299b023          	sd	s1,32(s3)
   10fb2:	0016e793          	or	a5,a3,1
   10fb6:	0114bc23          	sd	a7,24(s1)
   10fba:	0114b823          	sd	a7,16(s1)
   10fbe:	e49c                	sd	a5,8(s1)
   10fc0:	9722                	add	a4,a4,s0
   10fc2:	854a                	mv	a0,s2
   10fc4:	e314                	sd	a3,0(a4)
   10fc6:	2a4000ef          	jal	1126a <__malloc_unlock>
   10fca:	01040513          	add	a0,s0,16
   10fce:	b9cd                	j	10cc0 <_malloc_r+0x64>
   10fd0:	97a2                	add	a5,a5,s0
   10fd2:	6798                	ld	a4,8(a5)
   10fd4:	854a                	mv	a0,s2
   10fd6:	00176713          	or	a4,a4,1
   10fda:	e798                	sd	a4,8(a5)
   10fdc:	28e000ef          	jal	1126a <__malloc_unlock>
   10fe0:	01040513          	add	a0,s0,16
   10fe4:	b9f1                	j	10cc0 <_malloc_r+0x64>
   10fe6:	0014e693          	or	a3,s1,1
   10fea:	e414                	sd	a3,8(s0)
   10fec:	94a2                	add	s1,s1,s0
   10fee:	0299b423          	sd	s1,40(s3)
   10ff2:	0299b023          	sd	s1,32(s3)
   10ff6:	00176693          	or	a3,a4,1
   10ffa:	0114bc23          	sd	a7,24(s1)
   10ffe:	0114b823          	sd	a7,16(s1)
   11002:	e494                	sd	a3,8(s1)
   11004:	97a2                	add	a5,a5,s0
   11006:	854a                	mv	a0,s2
   11008:	e398                	sd	a4,0(a5)
   1100a:	260000ef          	jal	1126a <__malloc_unlock>
   1100e:	01040513          	add	a0,s0,16
   11012:	b17d                	j	10cc0 <_malloc_r+0x64>
   11014:	0034d593          	srl	a1,s1,0x3
   11018:	0015879b          	addw	a5,a1,1
   1101c:	0017979b          	sllw	a5,a5,0x1
   11020:	2581                	sext.w	a1,a1
   11022:	078e                	sll	a5,a5,0x3
   11024:	b1a5                	j	10c8c <_malloc_r+0x30>
   11026:	0067d713          	srl	a4,a5,0x6
   1102a:	0397061b          	addw	a2,a4,57
   1102e:	0016161b          	sllw	a2,a2,0x1
   11032:	0387069b          	addw	a3,a4,56
   11036:	060e                	sll	a2,a2,0x3
   11038:	b739                	j	10f46 <_malloc_r+0x2ea>
   1103a:	05340e63          	beq	s0,s3,11096 <_malloc_r+0x43a>
   1103e:	0109b403          	ld	s0,16(s3)
   11042:	6c42                	ld	s8,16(sp)
   11044:	641c                	ld	a5,8(s0)
   11046:	b569                	j	10ed0 <_malloc_r+0x274>
   11048:	05c7859b          	addw	a1,a5,92
   1104c:	0015961b          	sllw	a2,a1,0x1
   11050:	05b7881b          	addw	a6,a5,91
   11054:	060e                	sll	a2,a2,0x3
   11056:	b95d                	j	10d0c <_malloc_r+0xb0>
   11058:	01033783          	ld	a5,16(t1)
   1105c:	35fd                	addw	a1,a1,-1
   1105e:	20679263          	bne	a5,t1,11262 <_malloc_r+0x606>
   11062:	0035f793          	and	a5,a1,3
   11066:	1341                	add	t1,t1,-16
   11068:	fbe5                	bnez	a5,11058 <_malloc_r+0x3fc>
   1106a:	0089b703          	ld	a4,8(s3)
   1106e:	fff64793          	not	a5,a2
   11072:	8ff9                	and	a5,a5,a4
   11074:	00f9b423          	sd	a5,8(s3)
   11078:	0606                	sll	a2,a2,0x1
   1107a:	dac7e8e3          	bltu	a5,a2,10e2a <_malloc_r+0x1ce>
   1107e:	da0606e3          	beqz	a2,10e2a <_malloc_r+0x1ce>
   11082:	00f67733          	and	a4,a2,a5
   11086:	e711                	bnez	a4,11092 <_malloc_r+0x436>
   11088:	0606                	sll	a2,a2,0x1
   1108a:	00f67733          	and	a4,a2,a5
   1108e:	2e11                	addw	t3,t3,4
   11090:	df65                	beqz	a4,11088 <_malloc_r+0x42c>
   11092:	85f2                	mv	a1,t3
   11094:	bb1d                	j	10dca <_malloc_r+0x16e>
   11096:	4c018c13          	add	s8,gp,1216 # 1b6f8 <__malloc_current_mallinfo>
   1109a:	000c2783          	lw	a5,0(s8)
   1109e:	014786bb          	addw	a3,a5,s4
   110a2:	00dc2023          	sw	a3,0(s8)
   110a6:	000cb703          	ld	a4,0(s9)
   110aa:	57fd                	li	a5,-1
   110ac:	12f70c63          	beq	a4,a5,111e4 <_malloc_r+0x588>
   110b0:	417b07b3          	sub	a5,s6,s7
   110b4:	9fb5                	addw	a5,a5,a3
   110b6:	00fc2023          	sw	a5,0(s8)
   110ba:	00fb7c93          	and	s9,s6,15
   110be:	0a0c8563          	beqz	s9,11168 <_malloc_r+0x50c>
   110c2:	419b0b33          	sub	s6,s6,s9
   110c6:	6705                	lui	a4,0x1
   110c8:	0741                	add	a4,a4,16 # 1010 <exit-0xf0d8>
   110ca:	0b41                	add	s6,s6,16
   110cc:	41970bb3          	sub	s7,a4,s9
   110d0:	9a5a                	add	s4,s4,s6
   110d2:	414b8bb3          	sub	s7,s7,s4
   110d6:	1bd2                	sll	s7,s7,0x34
   110d8:	034bdb93          	srl	s7,s7,0x34
   110dc:	85de                	mv	a1,s7
   110de:	854a                	mv	a0,s2
   110e0:	702030ef          	jal	147e2 <_sbrk_r>
   110e4:	57fd                	li	a5,-1
   110e6:	12f50e63          	beq	a0,a5,11222 <_malloc_r+0x5c6>
   110ea:	41650533          	sub	a0,a0,s6
   110ee:	000b869b          	sext.w	a3,s7
   110f2:	01750a33          	add	s4,a0,s7
   110f6:	000c2703          	lw	a4,0(s8)
   110fa:	0169b823          	sd	s6,16(s3)
   110fe:	001a6793          	or	a5,s4,1
   11102:	9f35                	addw	a4,a4,a3
   11104:	00ec2023          	sw	a4,0(s8)
   11108:	00fb3423          	sd	a5,8(s6)
   1110c:	db3404e3          	beq	s0,s3,10eb4 <_malloc_r+0x258>
   11110:	467d                	li	a2,31
   11112:	07567b63          	bgeu	a2,s5,11188 <_malloc_r+0x52c>
   11116:	6414                	ld	a3,8(s0)
   11118:	fe8a8793          	add	a5,s5,-24
   1111c:	9bc1                	and	a5,a5,-16
   1111e:	8a85                	and	a3,a3,1
   11120:	8edd                	or	a3,a3,a5
   11122:	e414                	sd	a3,8(s0)
   11124:	45a5                	li	a1,9
   11126:	00f406b3          	add	a3,s0,a5
   1112a:	e68c                	sd	a1,8(a3)
   1112c:	ea8c                	sd	a1,16(a3)
   1112e:	00f66563          	bltu	a2,a5,11138 <_malloc_r+0x4dc>
   11132:	008b3783          	ld	a5,8(s6)
   11136:	bbbd                	j	10eb4 <_malloc_r+0x258>
   11138:	01040593          	add	a1,s0,16
   1113c:	854a                	mv	a0,s2
   1113e:	8d3ff0ef          	jal	10a10 <_free_r>
   11142:	0109bb03          	ld	s6,16(s3)
   11146:	000c2703          	lw	a4,0(s8)
   1114a:	008b3783          	ld	a5,8(s6)
   1114e:	b39d                	j	10eb4 <_malloc_r+0x258>
   11150:	020a0a13          	add	s4,s4,32
   11154:	bb31                	j	10e70 <_malloc_r+0x214>
   11156:	4026d69b          	sraw	a3,a3,0x2
   1115a:	4785                	li	a5,1
   1115c:	00d797b3          	sll	a5,a5,a3
   11160:	8d5d                	or	a0,a0,a5
   11162:	00a9b423          	sd	a0,8(s3)
   11166:	bbf5                	j	10f62 <_malloc_r+0x306>
   11168:	014b0bb3          	add	s7,s6,s4
   1116c:	41700bb3          	neg	s7,s7
   11170:	1bd2                	sll	s7,s7,0x34
   11172:	034bdb93          	srl	s7,s7,0x34
   11176:	85de                	mv	a1,s7
   11178:	854a                	mv	a0,s2
   1117a:	668030ef          	jal	147e2 <_sbrk_r>
   1117e:	57fd                	li	a5,-1
   11180:	4681                	li	a3,0
   11182:	f6f514e3          	bne	a0,a5,110ea <_malloc_r+0x48e>
   11186:	bf85                	j	110f6 <_malloc_r+0x49a>
   11188:	6c42                	ld	s8,16(sp)
   1118a:	4785                	li	a5,1
   1118c:	00fb3423          	sd	a5,8(s6)
   11190:	854a                	mv	a0,s2
   11192:	0d8000ef          	jal	1126a <__malloc_unlock>
   11196:	4501                	li	a0,0
   11198:	7a42                	ld	s4,48(sp)
   1119a:	7aa2                	ld	s5,40(sp)
   1119c:	7b02                	ld	s6,32(sp)
   1119e:	6be2                	ld	s7,24(sp)
   111a0:	6ca2                	ld	s9,8(sp)
   111a2:	be39                	j	10cc0 <_malloc_r+0x64>
   111a4:	05400693          	li	a3,84
   111a8:	04e6e163          	bltu	a3,a4,111ea <_malloc_r+0x58e>
   111ac:	00c7d713          	srl	a4,a5,0xc
   111b0:	06f7061b          	addw	a2,a4,111
   111b4:	0016161b          	sllw	a2,a2,0x1
   111b8:	06e7069b          	addw	a3,a4,110
   111bc:	060e                	sll	a2,a2,0x3
   111be:	b361                	j	10f46 <_malloc_r+0x2ea>
   111c0:	15400713          	li	a4,340
   111c4:	04f76163          	bltu	a4,a5,11206 <_malloc_r+0x5aa>
   111c8:	00f4d793          	srl	a5,s1,0xf
   111cc:	0787859b          	addw	a1,a5,120
   111d0:	0015961b          	sllw	a2,a1,0x1
   111d4:	0777881b          	addw	a6,a5,119
   111d8:	060e                	sll	a2,a2,0x3
   111da:	be0d                	j	10d0c <_malloc_r+0xb0>
   111dc:	0109b403          	ld	s0,16(s3)
   111e0:	641c                	ld	a5,8(s0)
   111e2:	b1fd                	j	10ed0 <_malloc_r+0x274>
   111e4:	016cb023          	sd	s6,0(s9)
   111e8:	bdc9                	j	110ba <_malloc_r+0x45e>
   111ea:	15400693          	li	a3,340
   111ee:	04e6e063          	bltu	a3,a4,1122e <_malloc_r+0x5d2>
   111f2:	00f7d713          	srl	a4,a5,0xf
   111f6:	0787061b          	addw	a2,a4,120
   111fa:	0016161b          	sllw	a2,a2,0x1
   111fe:	0777069b          	addw	a3,a4,119
   11202:	060e                	sll	a2,a2,0x3
   11204:	b389                	j	10f46 <_malloc_r+0x2ea>
   11206:	55400713          	li	a4,1364
   1120a:	04f76063          	bltu	a4,a5,1124a <_malloc_r+0x5ee>
   1120e:	0124d793          	srl	a5,s1,0x12
   11212:	07d7859b          	addw	a1,a5,125
   11216:	0015961b          	sllw	a2,a1,0x1
   1121a:	07c7881b          	addw	a6,a5,124
   1121e:	060e                	sll	a2,a2,0x3
   11220:	b4f5                	j	10d0c <_malloc_r+0xb0>
   11222:	1cc1                	add	s9,s9,-16
   11224:	9a66                	add	s4,s4,s9
   11226:	416a0a33          	sub	s4,s4,s6
   1122a:	4681                	li	a3,0
   1122c:	b5e9                	j	110f6 <_malloc_r+0x49a>
   1122e:	55400693          	li	a3,1364
   11232:	02e6e363          	bltu	a3,a4,11258 <_malloc_r+0x5fc>
   11236:	0127d713          	srl	a4,a5,0x12
   1123a:	07d7061b          	addw	a2,a4,125
   1123e:	0016161b          	sllw	a2,a2,0x1
   11242:	07c7069b          	addw	a3,a4,124
   11246:	060e                	sll	a2,a2,0x3
   11248:	b9fd                	j	10f46 <_malloc_r+0x2ea>
   1124a:	7f000613          	li	a2,2032
   1124e:	07f00593          	li	a1,127
   11252:	07e00813          	li	a6,126
   11256:	bc5d                	j	10d0c <_malloc_r+0xb0>
   11258:	7f000613          	li	a2,2032
   1125c:	07e00693          	li	a3,126
   11260:	b1dd                	j	10f46 <_malloc_r+0x2ea>
   11262:	0089b783          	ld	a5,8(s3)
   11266:	bd09                	j	11078 <_malloc_r+0x41c>

0000000000011268 <__malloc_lock>:
   11268:	8082                	ret

000000000001126a <__malloc_unlock>:
   1126a:	8082                	ret

000000000001126c <_vfprintf_r>:
   1126c:	db010113          	add	sp,sp,-592
   11270:	24113423          	sd	ra,584(sp)
   11274:	24813023          	sd	s0,576(sp)
   11278:	22913c23          	sd	s1,568(sp)
   1127c:	21713423          	sd	s7,520(sp)
   11280:	84ae                	mv	s1,a1
   11282:	8bb2                	mv	s7,a2
   11284:	f036                	sd	a3,32(sp)
   11286:	842a                	mv	s0,a0
   11288:	e42a                	sd	a0,8(sp)
   1128a:	54c030ef          	jal	147d6 <_localeconv_r>
   1128e:	611c                	ld	a5,0(a0)
   11290:	853e                	mv	a0,a5
   11292:	e8be                	sd	a5,80(sp)
   11294:	7ce030ef          	jal	14a62 <strlen>
   11298:	e4aa                	sd	a0,72(sp)
   1129a:	e982                	sd	zero,208(sp)
   1129c:	ed82                	sd	zero,216(sp)
   1129e:	c409                	beqz	s0,112a8 <_vfprintf_r+0x3c>
   112a0:	6438                	ld	a4,72(s0)
   112a2:	e319                	bnez	a4,112a8 <_vfprintf_r+0x3c>
   112a4:	2ce0106f          	j	12572 <_vfprintf_r+0x1306>
   112a8:	01049703          	lh	a4,16(s1)
   112ac:	03271693          	sll	a3,a4,0x32
   112b0:	0206c163          	bltz	a3,112d2 <_vfprintf_r+0x66>
   112b4:	0ac4a683          	lw	a3,172(s1)
   112b8:	6589                	lui	a1,0x2
   112ba:	7679                	lui	a2,0xffffe
   112bc:	8f4d                	or	a4,a4,a1
   112be:	167d                	add	a2,a2,-1 # ffffffffffffdfff <__BSS_END__+0xfffffffffffe25c7>
   112c0:	0107171b          	sllw	a4,a4,0x10
   112c4:	4107571b          	sraw	a4,a4,0x10
   112c8:	8ef1                	and	a3,a3,a2
   112ca:	00e49823          	sh	a4,16(s1)
   112ce:	0ad4a623          	sw	a3,172(s1)
   112d2:	00877693          	and	a3,a4,8
   112d6:	26068163          	beqz	a3,11538 <_vfprintf_r+0x2cc>
   112da:	6c94                	ld	a3,24(s1)
   112dc:	24068e63          	beqz	a3,11538 <_vfprintf_r+0x2cc>
   112e0:	8b69                	and	a4,a4,26
   112e2:	46a9                	li	a3,10
   112e4:	26d70763          	beq	a4,a3,11552 <_vfprintf_r+0x2e6>
   112e8:	23213823          	sd	s2,560(sp)
   112ec:	23313423          	sd	s3,552(sp)
   112f0:	f7ee                	sd	s11,488(sp)
   112f2:	23413023          	sd	s4,544(sp)
   112f6:	21513c23          	sd	s5,536(sp)
   112fa:	21613823          	sd	s6,528(sp)
   112fe:	21813023          	sd	s8,512(sp)
   11302:	ffe6                	sd	s9,504(sp)
   11304:	fbea                	sd	s10,496(sp)
   11306:	8dde                	mv	s11,s7
   11308:	000dc703          	lbu	a4,0(s11)
   1130c:	16010993          	add	s3,sp,352
   11310:	f1ce                	sd	s3,224(sp)
   11312:	f982                	sd	zero,240(sp)
   11314:	d582                	sw	zero,232(sp)
   11316:	f802                	sd	zero,48(sp)
   11318:	ec82                	sd	zero,88(sp)
   1131a:	f482                	sd	zero,104(sp)
   1131c:	fc82                	sd	zero,120(sp)
   1131e:	e102                	sd	zero,128(sp)
   11320:	f882                	sd	zero,112(sp)
   11322:	e802                	sd	zero,16(sp)
   11324:	4441                	li	s0,16
   11326:	894e                	mv	s2,s3
   11328:	1a070c63          	beqz	a4,114e0 <_vfprintf_r+0x274>
   1132c:	8aee                	mv	s5,s11
   1132e:	02500693          	li	a3,37
   11332:	2ed70a63          	beq	a4,a3,11626 <_vfprintf_r+0x3ba>
   11336:	001ac703          	lbu	a4,1(s5)
   1133a:	0a85                	add	s5,s5,1
   1133c:	fb7d                	bnez	a4,11332 <_vfprintf_r+0xc6>
   1133e:	41ba8a3b          	subw	s4,s5,s11
   11342:	180a0f63          	beqz	s4,114e0 <_vfprintf_r+0x274>
   11346:	572e                	lw	a4,232(sp)
   11348:	76ce                	ld	a3,240(sp)
   1134a:	01b93023          	sd	s11,0(s2)
   1134e:	2705                	addw	a4,a4,1
   11350:	96d2                	add	a3,a3,s4
   11352:	01493423          	sd	s4,8(s2)
   11356:	f9b6                	sd	a3,240(sp)
   11358:	d5ba                	sw	a4,232(sp)
   1135a:	0007069b          	sext.w	a3,a4
   1135e:	471d                	li	a4,7
   11360:	0941                	add	s2,s2,16
   11362:	2cd74963          	blt	a4,a3,11634 <_vfprintf_r+0x3c8>
   11366:	67c2                	ld	a5,16(sp)
   11368:	000ac703          	lbu	a4,0(s5)
   1136c:	014787bb          	addw	a5,a5,s4
   11370:	e83e                	sd	a5,16(sp)
   11372:	16070763          	beqz	a4,114e0 <_vfprintf_r+0x274>
   11376:	001ac303          	lbu	t1,1(s5)
   1137a:	0a0107a3          	sb	zero,175(sp)
   1137e:	0a85                	add	s5,s5,1
   11380:	5b7d                	li	s6,-1
   11382:	4c01                	li	s8,0
   11384:	4d01                	li	s10,0
   11386:	05a00a13          	li	s4,90
   1138a:	0a85                	add	s5,s5,1
   1138c:	2301                	sext.w	t1,t1
   1138e:	fe03079b          	addw	a5,t1,-32
   11392:	0007871b          	sext.w	a4,a5
   11396:	04ea6963          	bltu	s4,a4,113e8 <_vfprintf_r+0x17c>
   1139a:	02079713          	sll	a4,a5,0x20
   1139e:	01e75793          	srl	a5,a4,0x1e
   113a2:	00008717          	auipc	a4,0x8
   113a6:	e2e70713          	add	a4,a4,-466 # 191d0 <__clzdi2+0x1ac>
   113aa:	97ba                	add	a5,a5,a4
   113ac:	439c                	lw	a5,0(a5)
   113ae:	97ba                	add	a5,a5,a4
   113b0:	8782                	jr	a5
   113b2:	4c01                	li	s8,0
   113b4:	46a5                	li	a3,9
   113b6:	000ac703          	lbu	a4,0(s5)
   113ba:	002c179b          	sllw	a5,s8,0x2
   113be:	01878c3b          	addw	s8,a5,s8
   113c2:	fd03031b          	addw	t1,t1,-48
   113c6:	001c1c1b          	sllw	s8,s8,0x1
   113ca:	fd07079b          	addw	a5,a4,-48
   113ce:	01830c3b          	addw	s8,t1,s8
   113d2:	0a85                	add	s5,s5,1
   113d4:	0007031b          	sext.w	t1,a4
   113d8:	fcf6ffe3          	bgeu	a3,a5,113b6 <_vfprintf_r+0x14a>
   113dc:	fe03079b          	addw	a5,t1,-32
   113e0:	0007871b          	sext.w	a4,a5
   113e4:	faea7be3          	bgeu	s4,a4,1139a <_vfprintf_r+0x12e>
   113e8:	0e030c63          	beqz	t1,114e0 <_vfprintf_r+0x274>
   113ec:	0e610c23          	sb	t1,248(sp)
   113f0:	0a0107a3          	sb	zero,175(sp)
   113f4:	4b85                	li	s7,1
   113f6:	4685                	li	a3,1
   113f8:	0f810d93          	add	s11,sp,248
   113fc:	ec02                	sd	zero,24(sp)
   113fe:	4b01                	li	s6,0
   11400:	e082                	sd	zero,64(sp)
   11402:	fc02                	sd	zero,56(sp)
   11404:	f402                	sd	zero,40(sp)
   11406:	002d7293          	and	t0,s10,2
   1140a:	00028363          	beqz	t0,11410 <_vfprintf_r+0x1a4>
   1140e:	2b89                	addw	s7,s7,2
   11410:	084d7f93          	and	t6,s10,132
   11414:	7a4e                	ld	s4,240(sp)
   11416:	000f9663          	bnez	t6,11422 <_vfprintf_r+0x1b6>
   1141a:	417c073b          	subw	a4,s8,s7
   1141e:	34e040e3          	bgtz	a4,11f5e <_vfprintf_r+0xcf2>
   11422:	0af14703          	lbu	a4,175(sp)
   11426:	c31d                	beqz	a4,1144c <_vfprintf_r+0x1e0>
   11428:	572e                	lw	a4,232(sp)
   1142a:	0af10613          	add	a2,sp,175
   1142e:	00c93023          	sd	a2,0(s2)
   11432:	2705                	addw	a4,a4,1
   11434:	4605                	li	a2,1
   11436:	0a05                	add	s4,s4,1
   11438:	00c93423          	sd	a2,8(s2)
   1143c:	d5ba                	sw	a4,232(sp)
   1143e:	0007061b          	sext.w	a2,a4
   11442:	f9d2                	sd	s4,240(sp)
   11444:	471d                	li	a4,7
   11446:	0941                	add	s2,s2,16
   11448:	50c74b63          	blt	a4,a2,1195e <_vfprintf_r+0x6f2>
   1144c:	02028363          	beqz	t0,11472 <_vfprintf_r+0x206>
   11450:	572e                	lw	a4,232(sp)
   11452:	4609                	li	a2,2
   11454:	0a09                	add	s4,s4,2
   11456:	2705                	addw	a4,a4,1
   11458:	191c                	add	a5,sp,176
   1145a:	00c93423          	sd	a2,8(s2)
   1145e:	00f93023          	sd	a5,0(s2)
   11462:	0007061b          	sext.w	a2,a4
   11466:	d5ba                	sw	a4,232(sp)
   11468:	f9d2                	sd	s4,240(sp)
   1146a:	471d                	li	a4,7
   1146c:	0941                	add	s2,s2,16
   1146e:	3ac742e3          	blt	a4,a2,12012 <_vfprintf_r+0xda6>
   11472:	08000713          	li	a4,128
   11476:	16ef80e3          	beq	t6,a4,11dd6 <_vfprintf_r+0xb6a>
   1147a:	40db0b3b          	subw	s6,s6,a3
   1147e:	216041e3          	bgtz	s6,11e80 <_vfprintf_r+0xc14>
   11482:	100d7713          	and	a4,s10,256
   11486:	04071ce3          	bnez	a4,11cde <_vfprintf_r+0xa72>
   1148a:	572e                	lw	a4,232(sp)
   1148c:	9a36                	add	s4,s4,a3
   1148e:	01b93023          	sd	s11,0(s2)
   11492:	2705                	addw	a4,a4,1
   11494:	00d93423          	sd	a3,8(s2)
   11498:	f9d2                	sd	s4,240(sp)
   1149a:	d5ba                	sw	a4,232(sp)
   1149c:	479d                	li	a5,7
   1149e:	56e7ce63          	blt	a5,a4,11a1a <_vfprintf_r+0x7ae>
   114a2:	0941                	add	s2,s2,16
   114a4:	004d7e13          	and	t3,s10,4
   114a8:	000e0663          	beqz	t3,114b4 <_vfprintf_r+0x248>
   114ac:	417c0b3b          	subw	s6,s8,s7
   114b0:	396042e3          	bgtz	s6,12034 <_vfprintf_r+0xdc8>
   114b4:	87e2                	mv	a5,s8
   114b6:	017c5363          	bge	s8,s7,114bc <_vfprintf_r+0x250>
   114ba:	87de                	mv	a5,s7
   114bc:	6742                	ld	a4,16(sp)
   114be:	9fb9                	addw	a5,a5,a4
   114c0:	e83e                	sd	a5,16(sp)
   114c2:	240a1ee3          	bnez	s4,11f1e <_vfprintf_r+0xcb2>
   114c6:	67e2                	ld	a5,24(sp)
   114c8:	d582                	sw	zero,232(sp)
   114ca:	c789                	beqz	a5,114d4 <_vfprintf_r+0x268>
   114cc:	65e2                	ld	a1,24(sp)
   114ce:	6522                	ld	a0,8(sp)
   114d0:	d40ff0ef          	jal	10a10 <_free_r>
   114d4:	894e                	mv	s2,s3
   114d6:	8dd6                	mv	s11,s5
   114d8:	000dc703          	lbu	a4,0(s11)
   114dc:	e40718e3          	bnez	a4,1132c <_vfprintf_r+0xc0>
   114e0:	77ce                	ld	a5,240(sp)
   114e2:	c399                	beqz	a5,114e8 <_vfprintf_r+0x27c>
   114e4:	47c0106f          	j	12960 <_vfprintf_r+0x16f4>
   114e8:	0104d783          	lhu	a5,16(s1)
   114ec:	23013903          	ld	s2,560(sp)
   114f0:	22813983          	ld	s3,552(sp)
   114f4:	0407f793          	and	a5,a5,64
   114f8:	22013a03          	ld	s4,544(sp)
   114fc:	21813a83          	ld	s5,536(sp)
   11500:	21013b03          	ld	s6,528(sp)
   11504:	20013c03          	ld	s8,512(sp)
   11508:	7cfe                	ld	s9,504(sp)
   1150a:	7d5e                	ld	s10,496(sp)
   1150c:	7dbe                	ld	s11,488(sp)
   1150e:	c399                	beqz	a5,11514 <_vfprintf_r+0x2a8>
   11510:	77e0106f          	j	12c8e <_vfprintf_r+0x1a22>
   11514:	24813083          	ld	ra,584(sp)
   11518:	24013403          	ld	s0,576(sp)
   1151c:	6542                	ld	a0,16(sp)
   1151e:	23813483          	ld	s1,568(sp)
   11522:	20813b83          	ld	s7,520(sp)
   11526:	25010113          	add	sp,sp,592
   1152a:	8082                	ret
   1152c:	010d6d13          	or	s10,s10,16
   11530:	000ac303          	lbu	t1,0(s5)
   11534:	2d01                	sext.w	s10,s10
   11536:	bd91                	j	1138a <_vfprintf_r+0x11e>
   11538:	6522                	ld	a0,8(sp)
   1153a:	85a6                	mv	a1,s1
   1153c:	6ad020ef          	jal	143e8 <__swsetup_r>
   11540:	c119                	beqz	a0,11546 <_vfprintf_r+0x2da>
   11542:	74c0106f          	j	12c8e <_vfprintf_r+0x1a22>
   11546:	01049703          	lh	a4,16(s1)
   1154a:	46a9                	li	a3,10
   1154c:	8b69                	and	a4,a4,26
   1154e:	d8d71de3          	bne	a4,a3,112e8 <_vfprintf_r+0x7c>
   11552:	01249703          	lh	a4,18(s1)
   11556:	d80749e3          	bltz	a4,112e8 <_vfprintf_r+0x7c>
   1155a:	7682                	ld	a3,32(sp)
   1155c:	6522                	ld	a0,8(sp)
   1155e:	865e                	mv	a2,s7
   11560:	85a6                	mv	a1,s1
   11562:	133010ef          	jal	12e94 <__sbprintf>
   11566:	e82a                	sd	a0,16(sp)
   11568:	b775                	j	11514 <_vfprintf_r+0x2a8>
   1156a:	010d6e13          	or	t3,s10,16
   1156e:	000e0d1b          	sext.w	s10,t3
   11572:	7682                	ld	a3,32(sp)
   11574:	020d7793          	and	a5,s10,32
   11578:	00868713          	add	a4,a3,8
   1157c:	4c078863          	beqz	a5,11a4c <_vfprintf_r+0x7e0>
   11580:	629c                	ld	a5,0(a3)
   11582:	8a3e                	mv	s4,a5
   11584:	4e07c663          	bltz	a5,11a70 <_vfprintf_r+0x804>
   11588:	540b4ce3          	bltz	s6,122e0 <_vfprintf_r+0x1074>
   1158c:	f7fd7b93          	and	s7,s10,-129
   11590:	2b81                	sext.w	s7,s7
   11592:	000a0463          	beqz	s4,1159a <_vfprintf_r+0x32e>
   11596:	0220106f          	j	125b8 <_vfprintf_r+0x134c>
   1159a:	000b0463          	beqz	s6,115a2 <_vfprintf_r+0x336>
   1159e:	7680106f          	j	12d06 <_vfprintf_r+0x1a9a>
   115a2:	4681                	li	a3,0
   115a4:	f03a                	sd	a4,32(sp)
   115a6:	8d5e                	mv	s10,s7
   115a8:	15c10d93          	add	s11,sp,348
   115ac:	0af14703          	lbu	a4,175(sp)
   115b0:	885a                	mv	a6,s6
   115b2:	00db5363          	bge	s6,a3,115b8 <_vfprintf_r+0x34c>
   115b6:	8836                	mv	a6,a3
   115b8:	ec02                	sd	zero,24(sp)
   115ba:	e082                	sd	zero,64(sp)
   115bc:	fc02                	sd	zero,56(sp)
   115be:	f402                	sd	zero,40(sp)
   115c0:	00080b9b          	sext.w	s7,a6
   115c4:	e40701e3          	beqz	a4,11406 <_vfprintf_r+0x19a>
   115c8:	2b85                	addw	s7,s7,1
   115ca:	bd35                	j	11406 <_vfprintf_r+0x19a>
   115cc:	010d6e13          	or	t3,s10,16
   115d0:	000e0d1b          	sext.w	s10,t3
   115d4:	7682                	ld	a3,32(sp)
   115d6:	020d7793          	and	a5,s10,32
   115da:	00868713          	add	a4,a3,8
   115de:	44078863          	beqz	a5,11a2e <_vfprintf_r+0x7c2>
   115e2:	0006ba03          	ld	s4,0(a3)
   115e6:	bffd7b93          	and	s7,s10,-1025
   115ea:	2b81                	sext.w	s7,s7
   115ec:	f03a                	sd	a4,32(sp)
   115ee:	4781                	li	a5,0
   115f0:	4701                	li	a4,0
   115f2:	0ae107a3          	sb	a4,175(sp)
   115f6:	480b4863          	bltz	s6,11a86 <_vfprintf_r+0x81a>
   115fa:	f7fbfe13          	and	t3,s7,-129
   115fe:	000e0d1b          	sext.w	s10,t3
   11602:	120a1de3          	bnez	s4,11f3c <_vfprintf_r+0xcd0>
   11606:	780b1d63          	bnez	s6,11da0 <_vfprintf_r+0xb34>
   1160a:	44079de3          	bnez	a5,12264 <_vfprintf_r+0xff8>
   1160e:	001bf693          	and	a3,s7,1
   11612:	15c10d93          	add	s11,sp,348
   11616:	dad9                	beqz	a3,115ac <_vfprintf_r+0x340>
   11618:	03000793          	li	a5,48
   1161c:	14f10da3          	sb	a5,347(sp)
   11620:	15b10d93          	add	s11,sp,347
   11624:	b761                	j	115ac <_vfprintf_r+0x340>
   11626:	41ba8a3b          	subw	s4,s5,s11
   1162a:	d00a1ee3          	bnez	s4,11346 <_vfprintf_r+0xda>
   1162e:	000ac703          	lbu	a4,0(s5)
   11632:	b381                	j	11372 <_vfprintf_r+0x106>
   11634:	6522                	ld	a0,8(sp)
   11636:	1190                	add	a2,sp,224
   11638:	85a6                	mv	a1,s1
   1163a:	1b5010ef          	jal	12fee <__sprint_r>
   1163e:	ea0515e3          	bnez	a0,114e8 <_vfprintf_r+0x27c>
   11642:	894e                	mv	s2,s3
   11644:	b30d                	j	11366 <_vfprintf_r+0xfa>
   11646:	008d7713          	and	a4,s10,8
   1164a:	46071de3          	bnez	a4,122c4 <_vfprintf_r+0x1058>
   1164e:	7782                	ld	a5,32(sp)
   11650:	ec1a                	sd	t1,24(sp)
   11652:	2388                	fld	fa0,0(a5)
   11654:	00878c93          	add	s9,a5,8
   11658:	10d070ef          	jal	18f64 <__extenddftf2>
   1165c:	6362                	ld	t1,24(sp)
   1165e:	872a                	mv	a4,a0
   11660:	f066                	sd	s9,32(sp)
   11662:	0988                	add	a0,sp,208
   11664:	ec1a                	sd	t1,24(sp)
   11666:	e9ba                	sd	a4,208(sp)
   11668:	edae                	sd	a1,216(sp)
   1166a:	037030ef          	jal	14ea0 <_ldcheck>
   1166e:	dd2a                	sw	a0,184(sp)
   11670:	4709                	li	a4,2
   11672:	6362                	ld	t1,24(sp)
   11674:	74e504e3          	beq	a0,a4,125bc <_vfprintf_r+0x1350>
   11678:	4705                	li	a4,1
   1167a:	00e51463          	bne	a0,a4,11682 <_vfprintf_r+0x416>
   1167e:	0740106f          	j	126f2 <_vfprintf_r+0x1486>
   11682:	06100713          	li	a4,97
   11686:	5ee30ce3          	beq	t1,a4,1247e <_vfprintf_r+0x1212>
   1168a:	04100713          	li	a4,65
   1168e:	05800793          	li	a5,88
   11692:	5ee308e3          	beq	t1,a4,12482 <_vfprintf_r+0x1216>
   11696:	577d                	li	a4,-1
   11698:	00eb1463          	bne	s6,a4,116a0 <_vfprintf_r+0x434>
   1169c:	6620106f          	j	12cfe <_vfprintf_r+0x1a92>
   116a0:	fdf37713          	and	a4,t1,-33
   116a4:	04700693          	li	a3,71
   116a8:	ec02                	sd	zero,24(sp)
   116aa:	00d71463          	bne	a4,a3,116b2 <_vfprintf_r+0x446>
   116ae:	65e0106f          	j	12d0c <_vfprintf_r+0x1aa0>
   116b2:	67ce                	ld	a5,208(sp)
   116b4:	6eee                	ld	t4,216(sp)
   116b6:	100d6713          	or	a4,s10,256
   116ba:	f43e                	sd	a5,40(sp)
   116bc:	f082                	sd	zero,96(sp)
   116be:	00070a1b          	sext.w	s4,a4
   116c2:	000ed463          	bgez	t4,116ca <_vfprintf_r+0x45e>
   116c6:	44e0106f          	j	12b14 <_vfprintf_r+0x18a8>
   116ca:	fbf3069b          	addw	a3,t1,-65
   116ce:	02500713          	li	a4,37
   116d2:	00d77463          	bgeu	a4,a3,116da <_vfprintf_r+0x46e>
   116d6:	4a20106f          	j	12b78 <_vfprintf_r+0x190c>
   116da:	4705                	li	a4,1
   116dc:	4b85                	li	s7,1
   116de:	1716                	sll	a4,a4,0x25
   116e0:	00db96b3          	sll	a3,s7,a3
   116e4:	02070713          	add	a4,a4,32
   116e8:	8f75                	and	a4,a4,a3
   116ea:	c319                	beqz	a4,116f0 <_vfprintf_r+0x484>
   116ec:	3440106f          	j	12a30 <_vfprintf_r+0x17c4>
   116f0:	4705                	li	a4,1
   116f2:	1712                	sll	a4,a4,0x24
   116f4:	0741                	add	a4,a4,16
   116f6:	8f75                	and	a4,a4,a3
   116f8:	c319                	beqz	a4,116fe <_vfprintf_r+0x492>
   116fa:	5f60106f          	j	12cf0 <_vfprintf_r+0x1a84>
   116fe:	4705                	li	a4,1
   11700:	1702                	sll	a4,a4,0x20
   11702:	0705                	add	a4,a4,1
   11704:	8ef9                	and	a3,a3,a4
   11706:	e299                	bnez	a3,1170c <_vfprintf_r+0x4a0>
   11708:	2ac0106f          	j	129b4 <_vfprintf_r+0x1748>
   1170c:	7522                	ld	a0,40(sp)
   1170e:	85f6                	mv	a1,t4
   11710:	1930                	add	a2,sp,184
   11712:	f81a                	sd	t1,48(sp)
   11714:	4da030ef          	jal	14bee <frexpl>
   11718:	00008717          	auipc	a4,0x8
   1171c:	c4870713          	add	a4,a4,-952 # 19360 <blanks.1+0x10>
   11720:	6310                	ld	a2,0(a4)
   11722:	6714                	ld	a3,8(a4)
   11724:	117060ef          	jal	1803a <__multf3>
   11728:	4601                	li	a2,0
   1172a:	4681                	li	a3,0
   1172c:	8caa                	mv	s9,a0
   1172e:	8a2e                	mv	s4,a1
   11730:	726060ef          	jal	17e56 <__eqtf2>
   11734:	7342                	ld	t1,48(sp)
   11736:	e111                	bnez	a0,1173a <_vfprintf_r+0x4ce>
   11738:	dd5e                	sw	s7,184(sp)
   1173a:	00008797          	auipc	a5,0x8
   1173e:	98678793          	add	a5,a5,-1658 # 190c0 <__clzdi2+0x9c>
   11742:	06100713          	li	a4,97
   11746:	fc3e                	sd	a5,56(sp)
   11748:	00e31763          	bne	t1,a4,11756 <_vfprintf_r+0x4ea>
   1174c:	00008797          	auipc	a5,0x8
   11750:	95c78793          	add	a5,a5,-1700 # 190a8 <__clzdi2+0x84>
   11754:	fc3e                	sd	a5,56(sp)
   11756:	00008697          	auipc	a3,0x8
   1175a:	c1a68693          	add	a3,a3,-998 # 19370 <blanks.1+0x20>
   1175e:	629c                	ld	a5,0(a3)
   11760:	020b1713          	sll	a4,s6,0x20
   11764:	9301                	srl	a4,a4,0x20
   11766:	f43e                	sd	a5,40(sp)
   11768:	669c                	ld	a5,8(a3)
   1176a:	0705                	add	a4,a4,1
   1176c:	000b069b          	sext.w	a3,s6
   11770:	f83e                	sd	a5,48(sp)
   11772:	00ed87b3          	add	a5,s11,a4
   11776:	e0d6                	sd	s5,64(sp)
   11778:	e54a                	sd	s2,136(sp)
   1177a:	8ba6                	mv	s7,s1
   1177c:	7ae2                	ld	s5,56(sp)
   1177e:	f49a                	sd	t1,104(sp)
   11780:	e936                	sd	a3,144(sp)
   11782:	896e                	mv	s2,s11
   11784:	84be                	mv	s1,a5
   11786:	a801                	j	11796 <_vfprintf_r+0x52a>
   11788:	4601                	li	a2,0
   1178a:	4681                	li	a3,0
   1178c:	6ca060ef          	jal	17e56 <__eqtf2>
   11790:	e119                	bnez	a0,11796 <_vfprintf_r+0x52a>
   11792:	62a0106f          	j	12dbc <_vfprintf_r+0x1b50>
   11796:	7622                	ld	a2,40(sp)
   11798:	76c2                	ld	a3,48(sp)
   1179a:	8566                	mv	a0,s9
   1179c:	85d2                	mv	a1,s4
   1179e:	09d060ef          	jal	1803a <__multf3>
   117a2:	8a2e                	mv	s4,a1
   117a4:	8caa                	mv	s9,a0
   117a6:	6d2070ef          	jal	18e78 <__fixtfsi>
   117aa:	00050b1b          	sext.w	s6,a0
   117ae:	760070ef          	jal	18f0e <__floatsitf>
   117b2:	86ae                	mv	a3,a1
   117b4:	862a                	mv	a2,a0
   117b6:	85d2                	mv	a1,s4
   117b8:	8566                	mv	a0,s9
   117ba:	677060ef          	jal	18630 <__subtf3>
   117be:	016a86b3          	add	a3,s5,s6
   117c2:	0006c683          	lbu	a3,0(a3)
   117c6:	88ca                	mv	a7,s2
   117c8:	0905                	add	s2,s2,1
   117ca:	fed90fa3          	sb	a3,-1(s2)
   117ce:	8caa                	mv	s9,a0
   117d0:	8a2e                	mv	s4,a1
   117d2:	fb249be3          	bne	s1,s2,11788 <_vfprintf_r+0x51c>
   117d6:	00008697          	auipc	a3,0x8
   117da:	baa68693          	add	a3,a3,-1110 # 19380 <blanks.1+0x30>
   117de:	7326                	ld	t1,104(sp)
   117e0:	6290                	ld	a2,0(a3)
   117e2:	6694                	ld	a3,8(a3)
   117e4:	f81a                	sd	t1,48(sp)
   117e6:	f446                	sd	a7,40(sp)
   117e8:	6a86                	ld	s5,64(sp)
   117ea:	f4b2                	sd	a2,104(sp)
   117ec:	e0b6                	sd	a3,64(sp)
   117ee:	710060ef          	jal	17efe <__getf2>
   117f2:	84de                	mv	s1,s7
   117f4:	78a2                	ld	a7,40(sp)
   117f6:	8bca                	mv	s7,s2
   117f8:	7342                	ld	t1,48(sp)
   117fa:	692a                	ld	s2,136(sp)
   117fc:	02a04163          	bgtz	a0,1181e <_vfprintf_r+0x5b2>
   11800:	7626                	ld	a2,104(sp)
   11802:	6686                	ld	a3,64(sp)
   11804:	8566                	mv	a0,s9
   11806:	85d2                	mv	a1,s4
   11808:	f41a                	sd	t1,40(sp)
   1180a:	f846                	sd	a7,48(sp)
   1180c:	64a060ef          	jal	17e56 <__eqtf2>
   11810:	7322                	ld	t1,40(sp)
   11812:	e539                	bnez	a0,11860 <_vfprintf_r+0x5f4>
   11814:	001b7b13          	and	s6,s6,1
   11818:	78c2                	ld	a7,48(sp)
   1181a:	040b0363          	beqz	s6,11860 <_vfprintf_r+0x5f4>
   1181e:	77e2                	ld	a5,56(sp)
   11820:	e5c6                	sd	a7,200(sp)
   11822:	fffbc603          	lbu	a2,-1(s7)
   11826:	00f7c583          	lbu	a1,15(a5)
   1182a:	86de                	mv	a3,s7
   1182c:	00b61e63          	bne	a2,a1,11848 <_vfprintf_r+0x5dc>
   11830:	03000513          	li	a0,48
   11834:	fea68fa3          	sb	a0,-1(a3)
   11838:	66ae                	ld	a3,200(sp)
   1183a:	fff68793          	add	a5,a3,-1
   1183e:	e5be                	sd	a5,200(sp)
   11840:	fff6c603          	lbu	a2,-1(a3)
   11844:	fec588e3          	beq	a1,a2,11834 <_vfprintf_r+0x5c8>
   11848:	0016059b          	addw	a1,a2,1
   1184c:	03900513          	li	a0,57
   11850:	0ff5f593          	zext.b	a1,a1
   11854:	00a61463          	bne	a2,a0,1185c <_vfprintf_r+0x5f0>
   11858:	1ba0106f          	j	12a12 <_vfprintf_r+0x17a6>
   1185c:	feb68fa3          	sb	a1,-1(a3)
   11860:	86de                	mv	a3,s7
   11862:	57ea                	lw	a5,184(sp)
   11864:	41b6873b          	subw	a4,a3,s11
   11868:	f83a                	sd	a4,48(sp)
   1186a:	fff7871b          	addw	a4,a5,-1
   1186e:	f43e                	sd	a5,40(sp)
   11870:	06100613          	li	a2,97
   11874:	dd3a                	sw	a4,184(sp)
   11876:	00c31463          	bne	t1,a2,1187e <_vfprintf_r+0x612>
   1187a:	5960106f          	j	12e10 <_vfprintf_r+0x1ba4>
   1187e:	04100613          	li	a2,65
   11882:	05000693          	li	a3,80
   11886:	00c30463          	beq	t1,a2,1188e <_vfprintf_r+0x622>
   1188a:	17e0106f          	j	12a08 <_vfprintf_r+0x179c>
   1188e:	4605                	li	a2,1
   11890:	0cd10023          	sb	a3,192(sp)
   11894:	02b00693          	li	a3,43
   11898:	00075763          	bgez	a4,118a6 <_vfprintf_r+0x63a>
   1189c:	77a2                	ld	a5,40(sp)
   1189e:	4705                	li	a4,1
   118a0:	02d00693          	li	a3,45
   118a4:	9f1d                	subw	a4,a4,a5
   118a6:	0cd100a3          	sb	a3,193(sp)
   118aa:	46a5                	li	a3,9
   118ac:	00e6c463          	blt	a3,a4,118b4 <_vfprintf_r+0x648>
   118b0:	4160106f          	j	12cc6 <_vfprintf_r+0x1a5a>
   118b4:	0cf10893          	add	a7,sp,207
   118b8:	8546                	mv	a0,a7
   118ba:	4829                	li	a6,10
   118bc:	06300f13          	li	t5,99
   118c0:	030767bb          	remw	a5,a4,a6
   118c4:	86aa                	mv	a3,a0
   118c6:	863a                	mv	a2,a4
   118c8:	157d                	add	a0,a0,-1
   118ca:	0307879b          	addw	a5,a5,48
   118ce:	fef68fa3          	sb	a5,-1(a3)
   118d2:	0307473b          	divw	a4,a4,a6
   118d6:	fecf45e3          	blt	t5,a2,118c0 <_vfprintf_r+0x654>
   118da:	0307059b          	addw	a1,a4,48
   118de:	feb50fa3          	sb	a1,-1(a0)
   118e2:	ffe68713          	add	a4,a3,-2
   118e6:	01176463          	bltu	a4,a7,118ee <_vfprintf_r+0x682>
   118ea:	52e0106f          	j	12e18 <_vfprintf_r+0x1bac>
   118ee:	0c210613          	add	a2,sp,194
   118f2:	00074783          	lbu	a5,0(a4)
   118f6:	0705                	add	a4,a4,1
   118f8:	0605                	add	a2,a2,1
   118fa:	fef60fa3          	sb	a5,-1(a2)
   118fe:	ff171ae3          	bne	a4,a7,118f2 <_vfprintf_r+0x686>
   11902:	139c                	add	a5,sp,480
   11904:	40d786b3          	sub	a3,a5,a3
   11908:	ef36879b          	addw	a5,a3,-269
   1190c:	f4be                	sd	a5,104(sp)
   1190e:	7726                	ld	a4,104(sp)
   11910:	77c2                	ld	a5,48(sp)
   11912:	4605                	li	a2,1
   11914:	00e786bb          	addw	a3,a5,a4
   11918:	8736                	mv	a4,a3
   1191a:	00f64463          	blt	a2,a5,11922 <_vfprintf_r+0x6b6>
   1191e:	3fc0106f          	j	12d1a <_vfprintf_r+0x1aae>
   11922:	67a6                	ld	a5,72(sp)
   11924:	00f706bb          	addw	a3,a4,a5
   11928:	fff6c813          	not	a6,a3
   1192c:	bffd7e13          	and	t3,s10,-1025
   11930:	43f85813          	sra	a6,a6,0x3f
   11934:	2e01                	sext.w	t3,t3
   11936:	0106f833          	and	a6,a3,a6
   1193a:	100e6d13          	or	s10,t3,256
   1193e:	00080b9b          	sext.w	s7,a6
   11942:	e082                	sd	zero,64(sp)
   11944:	fc02                	sd	zero,56(sp)
   11946:	f402                	sd	zero,40(sp)
   11948:	7786                	ld	a5,96(sp)
   1194a:	e399                	bnez	a5,11950 <_vfprintf_r+0x6e4>
   1194c:	0d40106f          	j	12a20 <_vfprintf_r+0x17b4>
   11950:	02d00713          	li	a4,45
   11954:	0ae107a3          	sb	a4,175(sp)
   11958:	4b01                	li	s6,0
   1195a:	2b85                	addw	s7,s7,1
   1195c:	b46d                	j	11406 <_vfprintf_r+0x19a>
   1195e:	6522                	ld	a0,8(sp)
   11960:	1190                	add	a2,sp,224
   11962:	85a6                	mv	a1,s1
   11964:	ed36                	sd	a3,152(sp)
   11966:	e91a                	sd	t1,144(sp)
   11968:	e57e                	sd	t6,136(sp)
   1196a:	f096                	sd	t0,96(sp)
   1196c:	682010ef          	jal	12fee <__sprint_r>
   11970:	5a051e63          	bnez	a0,11f2c <_vfprintf_r+0xcc0>
   11974:	7a4e                	ld	s4,240(sp)
   11976:	66ea                	ld	a3,152(sp)
   11978:	634a                	ld	t1,144(sp)
   1197a:	6faa                	ld	t6,136(sp)
   1197c:	7286                	ld	t0,96(sp)
   1197e:	894e                	mv	s2,s3
   11980:	b4f1                	j	1144c <_vfprintf_r+0x1e0>
   11982:	56ae                	lw	a3,232(sp)
   11984:	77c2                	ld	a5,48(sp)
   11986:	4605                	li	a2,1
   11988:	00168b1b          	addw	s6,a3,1
   1198c:	01b93023          	sd	s11,0(s2)
   11990:	0a05                	add	s4,s4,1
   11992:	86da                	mv	a3,s6
   11994:	01090c93          	add	s9,s2,16
   11998:	02f651e3          	bge	a2,a5,121ba <_vfprintf_r+0xf4e>
   1199c:	4605                	li	a2,1
   1199e:	d5b6                	sw	a3,232(sp)
   119a0:	00c93423          	sd	a2,8(s2)
   119a4:	f9d2                	sd	s4,240(sp)
   119a6:	469d                	li	a3,7
   119a8:	3366c3e3          	blt	a3,s6,124ce <_vfprintf_r+0x1262>
   119ac:	67a6                	ld	a5,72(sp)
   119ae:	6746                	ld	a4,80(sp)
   119b0:	2b05                	addw	s6,s6,1
   119b2:	9a3e                	add	s4,s4,a5
   119b4:	00ecb023          	sd	a4,0(s9)
   119b8:	00fcb423          	sd	a5,8(s9)
   119bc:	f9d2                	sd	s4,240(sp)
   119be:	d5da                	sw	s6,232(sp)
   119c0:	469d                	li	a3,7
   119c2:	0cc1                	add	s9,s9,16
   119c4:	3366c1e3          	blt	a3,s6,124e6 <_vfprintf_r+0x127a>
   119c8:	77c2                	ld	a5,48(sp)
   119ca:	654e                	ld	a0,208(sp)
   119cc:	65ee                	ld	a1,216(sp)
   119ce:	4601                	li	a2,0
   119d0:	4681                	li	a3,0
   119d2:	fff7891b          	addw	s2,a5,-1
   119d6:	480060ef          	jal	17e56 <__eqtf2>
   119da:	000507e3          	beqz	a0,121e8 <_vfprintf_r+0xf7c>
   119de:	001d8793          	add	a5,s11,1
   119e2:	2b05                	addw	s6,s6,1
   119e4:	9a4a                	add	s4,s4,s2
   119e6:	00fcb023          	sd	a5,0(s9)
   119ea:	012cb423          	sd	s2,8(s9)
   119ee:	f9d2                	sd	s4,240(sp)
   119f0:	d5da                	sw	s6,232(sp)
   119f2:	479d                	li	a5,7
   119f4:	7d67ce63          	blt	a5,s6,121d0 <_vfprintf_r+0xf64>
   119f8:	0cc1                	add	s9,s9,16
   119fa:	7726                	ld	a4,104(sp)
   119fc:	019c                	add	a5,sp,192
   119fe:	001b069b          	addw	a3,s6,1
   11a02:	9a3a                	add	s4,s4,a4
   11a04:	00fcb023          	sd	a5,0(s9)
   11a08:	00ecb423          	sd	a4,8(s9)
   11a0c:	f9d2                	sd	s4,240(sp)
   11a0e:	d5b6                	sw	a3,232(sp)
   11a10:	479d                	li	a5,7
   11a12:	010c8913          	add	s2,s9,16
   11a16:	a8d7d7e3          	bge	a5,a3,114a4 <_vfprintf_r+0x238>
   11a1a:	6522                	ld	a0,8(sp)
   11a1c:	1190                	add	a2,sp,224
   11a1e:	85a6                	mv	a1,s1
   11a20:	5ce010ef          	jal	12fee <__sprint_r>
   11a24:	50051463          	bnez	a0,11f2c <_vfprintf_r+0xcc0>
   11a28:	7a4e                	ld	s4,240(sp)
   11a2a:	894e                	mv	s2,s3
   11a2c:	bca5                	j	114a4 <_vfprintf_r+0x238>
   11a2e:	010d7793          	and	a5,s10,16
   11a32:	080794e3          	bnez	a5,122ba <_vfprintf_r+0x104e>
   11a36:	7682                	ld	a3,32(sp)
   11a38:	040d7793          	and	a5,s10,64
   11a3c:	0006aa03          	lw	s4,0(a3)
   11a40:	460785e3          	beqz	a5,126aa <_vfprintf_r+0x143e>
   11a44:	1a42                	sll	s4,s4,0x30
   11a46:	030a5a13          	srl	s4,s4,0x30
   11a4a:	be71                	j	115e6 <_vfprintf_r+0x37a>
   11a4c:	010d7793          	and	a5,s10,16
   11a50:	020799e3          	bnez	a5,12282 <_vfprintf_r+0x1016>
   11a54:	7682                	ld	a3,32(sp)
   11a56:	040d7793          	and	a5,s10,64
   11a5a:	0006aa03          	lw	s4,0(a3)
   11a5e:	44078ee3          	beqz	a5,126ba <_vfprintf_r+0x144e>
   11a62:	010a1a1b          	sllw	s4,s4,0x10
   11a66:	410a5a1b          	sraw	s4,s4,0x10
   11a6a:	87d2                	mv	a5,s4
   11a6c:	b007dee3          	bgez	a5,11588 <_vfprintf_r+0x31c>
   11a70:	f03a                	sd	a4,32(sp)
   11a72:	02d00713          	li	a4,45
   11a76:	0ae107a3          	sb	a4,175(sp)
   11a7a:	41400a33          	neg	s4,s4
   11a7e:	8bea                	mv	s7,s10
   11a80:	4785                	li	a5,1
   11a82:	b60b5ce3          	bgez	s6,115fa <_vfprintf_r+0x38e>
   11a86:	4705                	li	a4,1
   11a88:	4ae78e63          	beq	a5,a4,11f44 <_vfprintf_r+0xcd8>
   11a8c:	4709                	li	a4,2
   11a8e:	32e78063          	beq	a5,a4,11dae <_vfprintf_r+0xb42>
   11a92:	0af4                	add	a3,sp,348
   11a94:	8db6                	mv	s11,a3
   11a96:	007a7713          	and	a4,s4,7
   11a9a:	03070713          	add	a4,a4,48
   11a9e:	feed8fa3          	sb	a4,-1(s11)
   11aa2:	003a5a13          	srl	s4,s4,0x3
   11aa6:	866e                	mv	a2,s11
   11aa8:	1dfd                	add	s11,s11,-1
   11aaa:	fe0a16e3          	bnez	s4,11a96 <_vfprintf_r+0x82a>
   11aae:	001bf593          	and	a1,s7,1
   11ab2:	30058d63          	beqz	a1,11dcc <_vfprintf_r+0xb60>
   11ab6:	03000593          	li	a1,48
   11aba:	30b70963          	beq	a4,a1,11dcc <_vfprintf_r+0xb60>
   11abe:	1679                	add	a2,a2,-2
   11ac0:	febd8fa3          	sb	a1,-1(s11)
   11ac4:	9e91                	subw	a3,a3,a2
   11ac6:	8d5e                	mv	s10,s7
   11ac8:	8db2                	mv	s11,a2
   11aca:	b4cd                	j	115ac <_vfprintf_r+0x340>
   11acc:	7782                	ld	a5,32(sp)
   11ace:	0a0107a3          	sb	zero,175(sp)
   11ad2:	0007bd83          	ld	s11,0(a5)
   11ad6:	00878c93          	add	s9,a5,8
   11ada:	100d82e3          	beqz	s11,123de <_vfprintf_r+0x1172>
   11ade:	320b46e3          	bltz	s6,1260a <_vfprintf_r+0x139e>
   11ae2:	865a                	mv	a2,s6
   11ae4:	4581                	li	a1,0
   11ae6:	856e                	mv	a0,s11
   11ae8:	f01a                	sd	t1,32(sp)
   11aea:	2ef020ef          	jal	145d8 <memchr>
   11aee:	ec2a                	sd	a0,24(sp)
   11af0:	7302                	ld	t1,32(sp)
   11af2:	e119                	bnez	a0,11af8 <_vfprintf_r+0x88c>
   11af4:	0680106f          	j	12b5c <_vfprintf_r+0x18f0>
   11af8:	67e2                	ld	a5,24(sp)
   11afa:	0af14703          	lbu	a4,175(sp)
   11afe:	f066                	sd	s9,32(sp)
   11b00:	41b786bb          	subw	a3,a5,s11
   11b04:	fff6c813          	not	a6,a3
   11b08:	43f85813          	sra	a6,a6,0x3f
   11b0c:	ec02                	sd	zero,24(sp)
   11b0e:	e082                	sd	zero,64(sp)
   11b10:	fc02                	sd	zero,56(sp)
   11b12:	f402                	sd	zero,40(sp)
   11b14:	00d87bb3          	and	s7,a6,a3
   11b18:	4b01                	li	s6,0
   11b1a:	aa0717e3          	bnez	a4,115c8 <_vfprintf_r+0x35c>
   11b1e:	b0e5                	j	11406 <_vfprintf_r+0x19a>
   11b20:	7702                	ld	a4,32(sp)
   11b22:	0a0107a3          	sb	zero,175(sp)
   11b26:	4b85                	li	s7,1
   11b28:	431c                	lw	a5,0(a4)
   11b2a:	0721                	add	a4,a4,8
   11b2c:	f03a                	sd	a4,32(sp)
   11b2e:	0ef10c23          	sb	a5,248(sp)
   11b32:	4685                	li	a3,1
   11b34:	0f810d93          	add	s11,sp,248
   11b38:	b0d1                	j	113fc <_vfprintf_r+0x190>
   11b3a:	7782                	ld	a5,32(sp)
   11b3c:	0007ac03          	lw	s8,0(a5)
   11b40:	07a1                	add	a5,a5,8
   11b42:	720c5b63          	bgez	s8,12278 <_vfprintf_r+0x100c>
   11b46:	41800c3b          	negw	s8,s8
   11b4a:	f03e                	sd	a5,32(sp)
   11b4c:	004d6d13          	or	s10,s10,4
   11b50:	000ac303          	lbu	t1,0(s5)
   11b54:	2d01                	sext.w	s10,s10
   11b56:	835ff06f          	j	1138a <_vfprintf_r+0x11e>
   11b5a:	02b00793          	li	a5,43
   11b5e:	000ac303          	lbu	t1,0(s5)
   11b62:	0af107a3          	sb	a5,175(sp)
   11b66:	825ff06f          	j	1138a <_vfprintf_r+0x11e>
   11b6a:	080d6d13          	or	s10,s10,128
   11b6e:	000ac303          	lbu	t1,0(s5)
   11b72:	2d01                	sext.w	s10,s10
   11b74:	817ff06f          	j	1138a <_vfprintf_r+0x11e>
   11b78:	000ac303          	lbu	t1,0(s5)
   11b7c:	02a00693          	li	a3,42
   11b80:	001a8713          	add	a4,s5,1
   11b84:	00d31463          	bne	t1,a3,11b8c <_vfprintf_r+0x920>
   11b88:	2c80106f          	j	12e50 <_vfprintf_r+0x1be4>
   11b8c:	fd03079b          	addw	a5,t1,-48
   11b90:	45a5                	li	a1,9
   11b92:	4681                	li	a3,0
   11b94:	4625                	li	a2,9
   11b96:	8aba                	mv	s5,a4
   11b98:	4b01                	li	s6,0
   11b9a:	fef5ea63          	bltu	a1,a5,1138e <_vfprintf_r+0x122>
   11b9e:	00074303          	lbu	t1,0(a4)
   11ba2:	00269b1b          	sllw	s6,a3,0x2
   11ba6:	00db0b3b          	addw	s6,s6,a3
   11baa:	001b1b1b          	sllw	s6,s6,0x1
   11bae:	016786bb          	addw	a3,a5,s6
   11bb2:	fd03079b          	addw	a5,t1,-48
   11bb6:	8b36                	mv	s6,a3
   11bb8:	0705                	add	a4,a4,1
   11bba:	fef672e3          	bgeu	a2,a5,11b9e <_vfprintf_r+0x932>
   11bbe:	7806c663          	bltz	a3,1234a <_vfprintf_r+0x10de>
   11bc2:	8aba                	mv	s5,a4
   11bc4:	fcaff06f          	j	1138e <_vfprintf_r+0x122>
   11bc8:	010d6b93          	or	s7,s10,16
   11bcc:	2b81                	sext.w	s7,s7
   11bce:	7682                	ld	a3,32(sp)
   11bd0:	020bf793          	and	a5,s7,32
   11bd4:	00868713          	add	a4,a3,8
   11bd8:	66078563          	beqz	a5,12242 <_vfprintf_r+0xfd6>
   11bdc:	0006ba03          	ld	s4,0(a3)
   11be0:	4785                	li	a5,1
   11be2:	f03a                	sd	a4,32(sp)
   11be4:	b431                	j	115f0 <_vfprintf_r+0x384>
   11be6:	6ba2                	ld	s7,8(sp)
   11be8:	855e                	mv	a0,s7
   11bea:	3ed020ef          	jal	147d6 <_localeconv_r>
   11bee:	651c                	ld	a5,8(a0)
   11bf0:	853e                	mv	a0,a5
   11bf2:	f8be                	sd	a5,112(sp)
   11bf4:	66f020ef          	jal	14a62 <strlen>
   11bf8:	87aa                	mv	a5,a0
   11bfa:	855e                	mv	a0,s7
   11bfc:	e13e                	sd	a5,128(sp)
   11bfe:	8bbe                	mv	s7,a5
   11c00:	3d7020ef          	jal	147d6 <_localeconv_r>
   11c04:	691c                	ld	a5,16(a0)
   11c06:	000ac303          	lbu	t1,0(s5)
   11c0a:	fcbe                	sd	a5,120(sp)
   11c0c:	f60b8f63          	beqz	s7,1138a <_vfprintf_r+0x11e>
   11c10:	f6078d63          	beqz	a5,1138a <_vfprintf_r+0x11e>
   11c14:	0007c783          	lbu	a5,0(a5)
   11c18:	f6078963          	beqz	a5,1138a <_vfprintf_r+0x11e>
   11c1c:	400d6d13          	or	s10,s10,1024
   11c20:	2d01                	sext.w	s10,s10
   11c22:	f68ff06f          	j	1138a <_vfprintf_r+0x11e>
   11c26:	001d6d13          	or	s10,s10,1
   11c2a:	000ac303          	lbu	t1,0(s5)
   11c2e:	2d01                	sext.w	s10,s10
   11c30:	f5aff06f          	j	1138a <_vfprintf_r+0x11e>
   11c34:	0af14783          	lbu	a5,175(sp)
   11c38:	000ac303          	lbu	t1,0(s5)
   11c3c:	f4079763          	bnez	a5,1138a <_vfprintf_r+0x11e>
   11c40:	02000793          	li	a5,32
   11c44:	0af107a3          	sb	a5,175(sp)
   11c48:	f42ff06f          	j	1138a <_vfprintf_r+0x11e>
   11c4c:	008d6d13          	or	s10,s10,8
   11c50:	000ac303          	lbu	t1,0(s5)
   11c54:	2d01                	sext.w	s10,s10
   11c56:	f34ff06f          	j	1138a <_vfprintf_r+0x11e>
   11c5a:	020d6d13          	or	s10,s10,32
   11c5e:	000ac303          	lbu	t1,0(s5)
   11c62:	2d01                	sext.w	s10,s10
   11c64:	f26ff06f          	j	1138a <_vfprintf_r+0x11e>
   11c68:	7702                	ld	a4,32(sp)
   11c6a:	67a1                	lui	a5,0x8
   11c6c:	83078793          	add	a5,a5,-2000 # 7830 <exit-0x88b8>
   11c70:	0af11823          	sh	a5,176(sp)
   11c74:	00870793          	add	a5,a4,8
   11c78:	002d6b93          	or	s7,s10,2
   11c7c:	f03e                	sd	a5,32(sp)
   11c7e:	00007797          	auipc	a5,0x7
   11c82:	42a78793          	add	a5,a5,1066 # 190a8 <__clzdi2+0x84>
   11c86:	ecbe                	sd	a5,88(sp)
   11c88:	00073a03          	ld	s4,0(a4)
   11c8c:	2b81                	sext.w	s7,s7
   11c8e:	4789                	li	a5,2
   11c90:	07800313          	li	t1,120
   11c94:	bab1                	j	115f0 <_vfprintf_r+0x384>
   11c96:	7702                	ld	a4,32(sp)
   11c98:	020d7793          	and	a5,s10,32
   11c9c:	6318                	ld	a4,0(a4)
   11c9e:	5e078e63          	beqz	a5,1229a <_vfprintf_r+0x102e>
   11ca2:	67c2                	ld	a5,16(sp)
   11ca4:	e31c                	sd	a5,0(a4)
   11ca6:	7782                	ld	a5,32(sp)
   11ca8:	8dd6                	mv	s11,s5
   11caa:	07a1                	add	a5,a5,8
   11cac:	f03e                	sd	a5,32(sp)
   11cae:	82bff06f          	j	114d8 <_vfprintf_r+0x26c>
   11cb2:	000ac303          	lbu	t1,0(s5)
   11cb6:	06c00793          	li	a5,108
   11cba:	70f30063          	beq	t1,a5,123ba <_vfprintf_r+0x114e>
   11cbe:	010d6d13          	or	s10,s10,16
   11cc2:	2d01                	sext.w	s10,s10
   11cc4:	ec6ff06f          	j	1138a <_vfprintf_r+0x11e>
   11cc8:	000ac303          	lbu	t1,0(s5)
   11ccc:	06800793          	li	a5,104
   11cd0:	6cf30d63          	beq	t1,a5,123aa <_vfprintf_r+0x113e>
   11cd4:	040d6d13          	or	s10,s10,64
   11cd8:	2d01                	sext.w	s10,s10
   11cda:	eb0ff06f          	j	1138a <_vfprintf_r+0x11e>
   11cde:	06500713          	li	a4,101
   11ce2:	ca6750e3          	bge	a4,t1,11982 <_vfprintf_r+0x716>
   11ce6:	654e                	ld	a0,208(sp)
   11ce8:	65ee                	ld	a1,216(sp)
   11cea:	4601                	li	a2,0
   11cec:	4681                	li	a3,0
   11cee:	168060ef          	jal	17e56 <__eqtf2>
   11cf2:	3c051563          	bnez	a0,120bc <_vfprintf_r+0xe50>
   11cf6:	57ae                	lw	a5,232(sp)
   11cf8:	00007717          	auipc	a4,0x7
   11cfc:	3e870713          	add	a4,a4,1000 # 190e0 <__clzdi2+0xbc>
   11d00:	00e93023          	sd	a4,0(s2)
   11d04:	2785                	addw	a5,a5,1
   11d06:	4705                	li	a4,1
   11d08:	0a05                	add	s4,s4,1
   11d0a:	00e93423          	sd	a4,8(s2)
   11d0e:	d5be                	sw	a5,232(sp)
   11d10:	0007871b          	sext.w	a4,a5
   11d14:	f9d2                	sd	s4,240(sp)
   11d16:	479d                	li	a5,7
   11d18:	0941                	add	s2,s2,16
   11d1a:	06e7c1e3          	blt	a5,a4,1257c <_vfprintf_r+0x1310>
   11d1e:	57ea                	lw	a5,184(sp)
   11d20:	7742                	ld	a4,48(sp)
   11d22:	54e7d663          	bge	a5,a4,1226e <_vfprintf_r+0x1002>
   11d26:	6726                	ld	a4,72(sp)
   11d28:	57ae                	lw	a5,232(sp)
   11d2a:	66c6                	ld	a3,80(sp)
   11d2c:	9a3a                	add	s4,s4,a4
   11d2e:	2785                	addw	a5,a5,1
   11d30:	00e93423          	sd	a4,8(s2)
   11d34:	00d93023          	sd	a3,0(s2)
   11d38:	0007871b          	sext.w	a4,a5
   11d3c:	d5be                	sw	a5,232(sp)
   11d3e:	f9d2                	sd	s4,240(sp)
   11d40:	479d                	li	a5,7
   11d42:	0941                	add	s2,s2,16
   11d44:	68e7c363          	blt	a5,a4,123ca <_vfprintf_r+0x115e>
   11d48:	77c2                	ld	a5,48(sp)
   11d4a:	fff78b1b          	addw	s6,a5,-1
   11d4e:	f5605b63          	blez	s6,114a4 <_vfprintf_r+0x238>
   11d52:	4741                	li	a4,16
   11d54:	57ae                	lw	a5,232(sp)
   11d56:	00007897          	auipc	a7,0x7
   11d5a:	5ea88893          	add	a7,a7,1514 # 19340 <zeroes.0>
   11d5e:	03675de3          	bge	a4,s6,12598 <_vfprintf_r+0x132c>
   11d62:	f456                	sd	s5,40(sp)
   11d64:	4dc1                	li	s11,16
   11d66:	8ada                	mv	s5,s6
   11d68:	4c9d                	li	s9,7
   11d6a:	8b46                	mv	s6,a7
   11d6c:	a021                	j	11d74 <_vfprintf_r+0xb08>
   11d6e:	3ac1                	addw	s5,s5,-16
   11d70:	035dd1e3          	bge	s11,s5,12592 <_vfprintf_r+0x1326>
   11d74:	2785                	addw	a5,a5,1
   11d76:	0a41                	add	s4,s4,16
   11d78:	01693023          	sd	s6,0(s2)
   11d7c:	01b93423          	sd	s11,8(s2)
   11d80:	f9d2                	sd	s4,240(sp)
   11d82:	d5be                	sw	a5,232(sp)
   11d84:	0941                	add	s2,s2,16
   11d86:	fefcd4e3          	bge	s9,a5,11d6e <_vfprintf_r+0xb02>
   11d8a:	6522                	ld	a0,8(sp)
   11d8c:	1190                	add	a2,sp,224
   11d8e:	85a6                	mv	a1,s1
   11d90:	25e010ef          	jal	12fee <__sprint_r>
   11d94:	18051c63          	bnez	a0,11f2c <_vfprintf_r+0xcc0>
   11d98:	7a4e                	ld	s4,240(sp)
   11d9a:	57ae                	lw	a5,232(sp)
   11d9c:	894e                	mv	s2,s3
   11d9e:	bfc1                	j	11d6e <_vfprintf_r+0xb02>
   11da0:	4705                	li	a4,1
   11da2:	62e788e3          	beq	a5,a4,12bd2 <_vfprintf_r+0x1966>
   11da6:	4709                	li	a4,2
   11da8:	8bea                	mv	s7,s10
   11daa:	cee794e3          	bne	a5,a4,11a92 <_vfprintf_r+0x826>
   11dae:	6766                	ld	a4,88(sp)
   11db0:	0af4                	add	a3,sp,348
   11db2:	8db6                	mv	s11,a3
   11db4:	00fa7793          	and	a5,s4,15
   11db8:	97ba                	add	a5,a5,a4
   11dba:	0007c783          	lbu	a5,0(a5)
   11dbe:	004a5a13          	srl	s4,s4,0x4
   11dc2:	1dfd                	add	s11,s11,-1
   11dc4:	00fd8023          	sb	a5,0(s11)
   11dc8:	fe0a16e3          	bnez	s4,11db4 <_vfprintf_r+0xb48>
   11dcc:	41b686bb          	subw	a3,a3,s11
   11dd0:	8d5e                	mv	s10,s7
   11dd2:	fdaff06f          	j	115ac <_vfprintf_r+0x340>
   11dd6:	417c0cbb          	subw	s9,s8,s7
   11dda:	eb905063          	blez	s9,1147a <_vfprintf_r+0x20e>
   11dde:	45c1                	li	a1,16
   11de0:	562e                	lw	a2,232(sp)
   11de2:	00007897          	auipc	a7,0x7
   11de6:	55e88893          	add	a7,a7,1374 # 19340 <zeroes.0>
   11dea:	0795d063          	bge	a1,s9,11e4a <_vfprintf_r+0xbde>
   11dee:	87ca                	mv	a5,s2
   11df0:	8752                	mv	a4,s4
   11df2:	8966                	mv	s2,s9
   11df4:	4f41                	li	t5,16
   11df6:	8cde                	mv	s9,s7
   11df8:	4f9d                	li	t6,7
   11dfa:	f09a                	sd	t1,96(sp)
   11dfc:	8bb6                	mv	s7,a3
   11dfe:	8a46                	mv	s4,a7
   11e00:	a021                	j	11e08 <_vfprintf_r+0xb9c>
   11e02:	3941                	addw	s2,s2,-16
   11e04:	032f5c63          	bge	t5,s2,11e3c <_vfprintf_r+0xbd0>
   11e08:	2605                	addw	a2,a2,1
   11e0a:	0741                	add	a4,a4,16
   11e0c:	0147b023          	sd	s4,0(a5)
   11e10:	01e7b423          	sd	t5,8(a5)
   11e14:	f9ba                	sd	a4,240(sp)
   11e16:	d5b2                	sw	a2,232(sp)
   11e18:	07c1                	add	a5,a5,16
   11e1a:	fecfd4e3          	bge	t6,a2,11e02 <_vfprintf_r+0xb96>
   11e1e:	6522                	ld	a0,8(sp)
   11e20:	1190                	add	a2,sp,224
   11e22:	85a6                	mv	a1,s1
   11e24:	1ca010ef          	jal	12fee <__sprint_r>
   11e28:	10051263          	bnez	a0,11f2c <_vfprintf_r+0xcc0>
   11e2c:	4f41                	li	t5,16
   11e2e:	3941                	addw	s2,s2,-16
   11e30:	774e                	ld	a4,240(sp)
   11e32:	562e                	lw	a2,232(sp)
   11e34:	87ce                	mv	a5,s3
   11e36:	4f9d                	li	t6,7
   11e38:	fd2f48e3          	blt	t5,s2,11e08 <_vfprintf_r+0xb9c>
   11e3c:	7306                	ld	t1,96(sp)
   11e3e:	86de                	mv	a3,s7
   11e40:	88d2                	mv	a7,s4
   11e42:	8be6                	mv	s7,s9
   11e44:	8a3a                	mv	s4,a4
   11e46:	8cca                	mv	s9,s2
   11e48:	893e                	mv	s2,a5
   11e4a:	0016059b          	addw	a1,a2,1
   11e4e:	9a66                	add	s4,s4,s9
   11e50:	01193023          	sd	a7,0(s2)
   11e54:	01993423          	sd	s9,8(s2)
   11e58:	f9d2                	sd	s4,240(sp)
   11e5a:	d5ae                	sw	a1,232(sp)
   11e5c:	471d                	li	a4,7
   11e5e:	0941                	add	s2,s2,16
   11e60:	e0b75d63          	bge	a4,a1,1147a <_vfprintf_r+0x20e>
   11e64:	6522                	ld	a0,8(sp)
   11e66:	1190                	add	a2,sp,224
   11e68:	85a6                	mv	a1,s1
   11e6a:	e536                	sd	a3,136(sp)
   11e6c:	f09a                	sd	t1,96(sp)
   11e6e:	180010ef          	jal	12fee <__sprint_r>
   11e72:	ed4d                	bnez	a0,11f2c <_vfprintf_r+0xcc0>
   11e74:	7a4e                	ld	s4,240(sp)
   11e76:	66aa                	ld	a3,136(sp)
   11e78:	7306                	ld	t1,96(sp)
   11e7a:	894e                	mv	s2,s3
   11e7c:	dfeff06f          	j	1147a <_vfprintf_r+0x20e>
   11e80:	562e                	lw	a2,232(sp)
   11e82:	00007897          	auipc	a7,0x7
   11e86:	4be88893          	add	a7,a7,1214 # 19340 <zeroes.0>
   11e8a:	05645f63          	bge	s0,s6,11ee8 <_vfprintf_r+0xc7c>
   11e8e:	87ca                	mv	a5,s2
   11e90:	8752                	mv	a4,s4
   11e92:	895a                	mv	s2,s6
   11e94:	4c9d                	li	s9,7
   11e96:	f09a                	sd	t1,96(sp)
   11e98:	8a36                	mv	s4,a3
   11e9a:	8b46                	mv	s6,a7
   11e9c:	a021                	j	11ea4 <_vfprintf_r+0xc38>
   11e9e:	3941                	addw	s2,s2,-16
   11ea0:	03245e63          	bge	s0,s2,11edc <_vfprintf_r+0xc70>
   11ea4:	0016069b          	addw	a3,a2,1
   11ea8:	0741                	add	a4,a4,16
   11eaa:	00007617          	auipc	a2,0x7
   11eae:	49660613          	add	a2,a2,1174 # 19340 <zeroes.0>
   11eb2:	e390                	sd	a2,0(a5)
   11eb4:	e780                	sd	s0,8(a5)
   11eb6:	f9ba                	sd	a4,240(sp)
   11eb8:	0006861b          	sext.w	a2,a3
   11ebc:	d5b6                	sw	a3,232(sp)
   11ebe:	07c1                	add	a5,a5,16
   11ec0:	fcccdfe3          	bge	s9,a2,11e9e <_vfprintf_r+0xc32>
   11ec4:	6522                	ld	a0,8(sp)
   11ec6:	1190                	add	a2,sp,224
   11ec8:	85a6                	mv	a1,s1
   11eca:	124010ef          	jal	12fee <__sprint_r>
   11ece:	ed39                	bnez	a0,11f2c <_vfprintf_r+0xcc0>
   11ed0:	3941                	addw	s2,s2,-16
   11ed2:	774e                	ld	a4,240(sp)
   11ed4:	562e                	lw	a2,232(sp)
   11ed6:	87ce                	mv	a5,s3
   11ed8:	fd2446e3          	blt	s0,s2,11ea4 <_vfprintf_r+0xc38>
   11edc:	7306                	ld	t1,96(sp)
   11ede:	86d2                	mv	a3,s4
   11ee0:	88da                	mv	a7,s6
   11ee2:	8a3a                	mv	s4,a4
   11ee4:	8b4a                	mv	s6,s2
   11ee6:	893e                	mv	s2,a5
   11ee8:	0016059b          	addw	a1,a2,1
   11eec:	9a5a                	add	s4,s4,s6
   11eee:	01193023          	sd	a7,0(s2)
   11ef2:	01693423          	sd	s6,8(s2)
   11ef6:	f9d2                	sd	s4,240(sp)
   11ef8:	d5ae                	sw	a1,232(sp)
   11efa:	471d                	li	a4,7
   11efc:	0941                	add	s2,s2,16
   11efe:	d8b75263          	bge	a4,a1,11482 <_vfprintf_r+0x216>
   11f02:	6522                	ld	a0,8(sp)
   11f04:	1190                	add	a2,sp,224
   11f06:	85a6                	mv	a1,s1
   11f08:	e536                	sd	a3,136(sp)
   11f0a:	f09a                	sd	t1,96(sp)
   11f0c:	0e2010ef          	jal	12fee <__sprint_r>
   11f10:	ed11                	bnez	a0,11f2c <_vfprintf_r+0xcc0>
   11f12:	7a4e                	ld	s4,240(sp)
   11f14:	66aa                	ld	a3,136(sp)
   11f16:	7306                	ld	t1,96(sp)
   11f18:	894e                	mv	s2,s3
   11f1a:	d68ff06f          	j	11482 <_vfprintf_r+0x216>
   11f1e:	6522                	ld	a0,8(sp)
   11f20:	1190                	add	a2,sp,224
   11f22:	85a6                	mv	a1,s1
   11f24:	0ca010ef          	jal	12fee <__sprint_r>
   11f28:	d8050f63          	beqz	a0,114c6 <_vfprintf_r+0x25a>
   11f2c:	65e2                	ld	a1,24(sp)
   11f2e:	da058d63          	beqz	a1,114e8 <_vfprintf_r+0x27c>
   11f32:	6522                	ld	a0,8(sp)
   11f34:	addfe0ef          	jal	10a10 <_free_r>
   11f38:	db0ff06f          	j	114e8 <_vfprintf_r+0x27c>
   11f3c:	4705                	li	a4,1
   11f3e:	8bea                	mv	s7,s10
   11f40:	b4e796e3          	bne	a5,a4,11a8c <_vfprintf_r+0x820>
   11f44:	47a5                	li	a5,9
   11f46:	3b47e263          	bltu	a5,s4,122ea <_vfprintf_r+0x107e>
   11f4a:	030a0a1b          	addw	s4,s4,48
   11f4e:	15410da3          	sb	s4,347(sp)
   11f52:	8d5e                	mv	s10,s7
   11f54:	4685                	li	a3,1
   11f56:	15b10d93          	add	s11,sp,347
   11f5a:	e52ff06f          	j	115ac <_vfprintf_r+0x340>
   11f5e:	45c1                	li	a1,16
   11f60:	562e                	lw	a2,232(sp)
   11f62:	00007c97          	auipc	s9,0x7
   11f66:	3eec8c93          	add	s9,s9,1006 # 19350 <blanks.1>
   11f6a:	06e5d563          	bge	a1,a4,11fd4 <_vfprintf_r+0xd68>
   11f6e:	87ca                	mv	a5,s2
   11f70:	893a                	mv	s2,a4
   11f72:	8766                	mv	a4,s9
   11f74:	48c1                	li	a7,16
   11f76:	8cde                	mv	s9,s7
   11f78:	439d                	li	t2,7
   11f7a:	8bb6                	mv	s7,a3
   11f7c:	f096                	sd	t0,96(sp)
   11f7e:	86d2                	mv	a3,s4
   11f80:	e57e                	sd	t6,136(sp)
   11f82:	e91a                	sd	t1,144(sp)
   11f84:	8a3a                	mv	s4,a4
   11f86:	a021                	j	11f8e <_vfprintf_r+0xd22>
   11f88:	3941                	addw	s2,s2,-16
   11f8a:	0328db63          	bge	a7,s2,11fc0 <_vfprintf_r+0xd54>
   11f8e:	2605                	addw	a2,a2,1
   11f90:	06c1                	add	a3,a3,16
   11f92:	0147b023          	sd	s4,0(a5)
   11f96:	0117b423          	sd	a7,8(a5)
   11f9a:	f9b6                	sd	a3,240(sp)
   11f9c:	d5b2                	sw	a2,232(sp)
   11f9e:	07c1                	add	a5,a5,16
   11fa0:	fec3d4e3          	bge	t2,a2,11f88 <_vfprintf_r+0xd1c>
   11fa4:	6522                	ld	a0,8(sp)
   11fa6:	1190                	add	a2,sp,224
   11fa8:	85a6                	mv	a1,s1
   11faa:	044010ef          	jal	12fee <__sprint_r>
   11fae:	fd3d                	bnez	a0,11f2c <_vfprintf_r+0xcc0>
   11fb0:	48c1                	li	a7,16
   11fb2:	3941                	addw	s2,s2,-16
   11fb4:	76ce                	ld	a3,240(sp)
   11fb6:	562e                	lw	a2,232(sp)
   11fb8:	87ce                	mv	a5,s3
   11fba:	439d                	li	t2,7
   11fbc:	fd28c9e3          	blt	a7,s2,11f8e <_vfprintf_r+0xd22>
   11fc0:	7286                	ld	t0,96(sp)
   11fc2:	6faa                	ld	t6,136(sp)
   11fc4:	634a                	ld	t1,144(sp)
   11fc6:	874a                	mv	a4,s2
   11fc8:	893e                	mv	s2,a5
   11fca:	87d2                	mv	a5,s4
   11fcc:	8a36                	mv	s4,a3
   11fce:	86de                	mv	a3,s7
   11fd0:	8be6                	mv	s7,s9
   11fd2:	8cbe                	mv	s9,a5
   11fd4:	9a3a                	add	s4,s4,a4
   11fd6:	0016059b          	addw	a1,a2,1
   11fda:	00e93423          	sd	a4,8(s2)
   11fde:	01993023          	sd	s9,0(s2)
   11fe2:	f9d2                	sd	s4,240(sp)
   11fe4:	d5ae                	sw	a1,232(sp)
   11fe6:	471d                	li	a4,7
   11fe8:	0941                	add	s2,s2,16
   11fea:	c2b75c63          	bge	a4,a1,11422 <_vfprintf_r+0x1b6>
   11fee:	6522                	ld	a0,8(sp)
   11ff0:	1190                	add	a2,sp,224
   11ff2:	85a6                	mv	a1,s1
   11ff4:	ed36                	sd	a3,152(sp)
   11ff6:	e91a                	sd	t1,144(sp)
   11ff8:	e57e                	sd	t6,136(sp)
   11ffa:	f096                	sd	t0,96(sp)
   11ffc:	7f3000ef          	jal	12fee <__sprint_r>
   12000:	f515                	bnez	a0,11f2c <_vfprintf_r+0xcc0>
   12002:	7a4e                	ld	s4,240(sp)
   12004:	66ea                	ld	a3,152(sp)
   12006:	634a                	ld	t1,144(sp)
   12008:	6faa                	ld	t6,136(sp)
   1200a:	7286                	ld	t0,96(sp)
   1200c:	894e                	mv	s2,s3
   1200e:	c14ff06f          	j	11422 <_vfprintf_r+0x1b6>
   12012:	6522                	ld	a0,8(sp)
   12014:	1190                	add	a2,sp,224
   12016:	85a6                	mv	a1,s1
   12018:	e936                	sd	a3,144(sp)
   1201a:	e51a                	sd	t1,136(sp)
   1201c:	f0fe                	sd	t6,96(sp)
   1201e:	7d1000ef          	jal	12fee <__sprint_r>
   12022:	f00515e3          	bnez	a0,11f2c <_vfprintf_r+0xcc0>
   12026:	7a4e                	ld	s4,240(sp)
   12028:	66ca                	ld	a3,144(sp)
   1202a:	632a                	ld	t1,136(sp)
   1202c:	7f86                	ld	t6,96(sp)
   1202e:	894e                	mv	s2,s3
   12030:	c42ff06f          	j	11472 <_vfprintf_r+0x206>
   12034:	4741                	li	a4,16
   12036:	57ae                	lw	a5,232(sp)
   12038:	00007c97          	auipc	s9,0x7
   1203c:	318c8c93          	add	s9,s9,792 # 19350 <blanks.1>
   12040:	05675863          	bge	a4,s6,12090 <_vfprintf_r+0xe24>
   12044:	8766                	mv	a4,s9
   12046:	4dc1                	li	s11,16
   12048:	8cda                	mv	s9,s6
   1204a:	4d1d                	li	s10,7
   1204c:	8b56                	mv	s6,s5
   1204e:	8aba                	mv	s5,a4
   12050:	a021                	j	12058 <_vfprintf_r+0xdec>
   12052:	3cc1                	addw	s9,s9,-16
   12054:	039dda63          	bge	s11,s9,12088 <_vfprintf_r+0xe1c>
   12058:	2785                	addw	a5,a5,1
   1205a:	0a41                	add	s4,s4,16
   1205c:	01593023          	sd	s5,0(s2)
   12060:	01b93423          	sd	s11,8(s2)
   12064:	f9d2                	sd	s4,240(sp)
   12066:	d5be                	sw	a5,232(sp)
   12068:	0941                	add	s2,s2,16
   1206a:	fefd54e3          	bge	s10,a5,12052 <_vfprintf_r+0xde6>
   1206e:	6522                	ld	a0,8(sp)
   12070:	1190                	add	a2,sp,224
   12072:	85a6                	mv	a1,s1
   12074:	77b000ef          	jal	12fee <__sprint_r>
   12078:	ea051ae3          	bnez	a0,11f2c <_vfprintf_r+0xcc0>
   1207c:	3cc1                	addw	s9,s9,-16
   1207e:	7a4e                	ld	s4,240(sp)
   12080:	57ae                	lw	a5,232(sp)
   12082:	894e                	mv	s2,s3
   12084:	fd9dcae3          	blt	s11,s9,12058 <_vfprintf_r+0xdec>
   12088:	8756                	mv	a4,s5
   1208a:	8ada                	mv	s5,s6
   1208c:	8b66                	mv	s6,s9
   1208e:	8cba                	mv	s9,a4
   12090:	0017871b          	addw	a4,a5,1
   12094:	9a5a                	add	s4,s4,s6
   12096:	01993023          	sd	s9,0(s2)
   1209a:	01693423          	sd	s6,8(s2)
   1209e:	f9d2                	sd	s4,240(sp)
   120a0:	d5ba                	sw	a4,232(sp)
   120a2:	479d                	li	a5,7
   120a4:	c0e7d863          	bge	a5,a4,114b4 <_vfprintf_r+0x248>
   120a8:	6522                	ld	a0,8(sp)
   120aa:	1190                	add	a2,sp,224
   120ac:	85a6                	mv	a1,s1
   120ae:	741000ef          	jal	12fee <__sprint_r>
   120b2:	e6051de3          	bnez	a0,11f2c <_vfprintf_r+0xcc0>
   120b6:	7a4e                	ld	s4,240(sp)
   120b8:	bfcff06f          	j	114b4 <_vfprintf_r+0x248>
   120bc:	55ea                	lw	a1,184(sp)
   120be:	44b05063          	blez	a1,124fe <_vfprintf_r+0x1292>
   120c2:	77a2                	ld	a5,40(sp)
   120c4:	7742                	ld	a4,48(sp)
   120c6:	00078b1b          	sext.w	s6,a5
   120ca:	26f74b63          	blt	a4,a5,12340 <_vfprintf_r+0x10d4>
   120ce:	03605063          	blez	s6,120ee <_vfprintf_r+0xe82>
   120d2:	572e                	lw	a4,232(sp)
   120d4:	9a5a                	add	s4,s4,s6
   120d6:	01b93023          	sd	s11,0(s2)
   120da:	0017069b          	addw	a3,a4,1
   120de:	01693423          	sd	s6,8(s2)
   120e2:	f9d2                	sd	s4,240(sp)
   120e4:	d5b6                	sw	a3,232(sp)
   120e6:	471d                	li	a4,7
   120e8:	0941                	add	s2,s2,16
   120ea:	02d746e3          	blt	a4,a3,12916 <_vfprintf_r+0x16aa>
   120ee:	fffb4713          	not	a4,s6
   120f2:	77a2                	ld	a5,40(sp)
   120f4:	977d                	sra	a4,a4,0x3f
   120f6:	00eb7b33          	and	s6,s6,a4
   120fa:	41678b3b          	subw	s6,a5,s6
   120fe:	2f604d63          	bgtz	s6,123f8 <_vfprintf_r+0x118c>
   12102:	77a2                	ld	a5,40(sp)
   12104:	400d7713          	and	a4,s10,1024
   12108:	00fd8cb3          	add	s9,s11,a5
   1210c:	66071a63          	bnez	a4,12780 <_vfprintf_r+0x1514>
   12110:	576a                	lw	a4,184(sp)
   12112:	77c2                	ld	a5,48(sp)
   12114:	32f74a63          	blt	a4,a5,12448 <_vfprintf_r+0x11dc>
   12118:	001d7693          	and	a3,s10,1
   1211c:	32069663          	bnez	a3,12448 <_vfprintf_r+0x11dc>
   12120:	76c2                	ld	a3,48(sp)
   12122:	00dd87b3          	add	a5,s11,a3
   12126:	41978b33          	sub	s6,a5,s9
   1212a:	9e99                	subw	a3,a3,a4
   1212c:	000b079b          	sext.w	a5,s6
   12130:	00f6d363          	bge	a3,a5,12136 <_vfprintf_r+0xeca>
   12134:	8b36                	mv	s6,a3
   12136:	2b01                	sext.w	s6,s6
   12138:	03605063          	blez	s6,12158 <_vfprintf_r+0xeec>
   1213c:	57ae                	lw	a5,232(sp)
   1213e:	9a5a                	add	s4,s4,s6
   12140:	01993023          	sd	s9,0(s2)
   12144:	0017871b          	addw	a4,a5,1
   12148:	01693423          	sd	s6,8(s2)
   1214c:	f9d2                	sd	s4,240(sp)
   1214e:	d5ba                	sw	a4,232(sp)
   12150:	479d                	li	a5,7
   12152:	0941                	add	s2,s2,16
   12154:	24e7cce3          	blt	a5,a4,12bac <_vfprintf_r+0x1940>
   12158:	fffb4793          	not	a5,s6
   1215c:	97fd                	sra	a5,a5,0x3f
   1215e:	00fb7b33          	and	s6,s6,a5
   12162:	41668b3b          	subw	s6,a3,s6
   12166:	b3605f63          	blez	s6,114a4 <_vfprintf_r+0x238>
   1216a:	4741                	li	a4,16
   1216c:	57ae                	lw	a5,232(sp)
   1216e:	00007897          	auipc	a7,0x7
   12172:	1d288893          	add	a7,a7,466 # 19340 <zeroes.0>
   12176:	43675163          	bge	a4,s6,12598 <_vfprintf_r+0x132c>
   1217a:	f456                	sd	s5,40(sp)
   1217c:	4dc1                	li	s11,16
   1217e:	8aa6                	mv	s5,s1
   12180:	4c9d                	li	s9,7
   12182:	84da                	mv	s1,s6
   12184:	8b46                	mv	s6,a7
   12186:	a021                	j	1218e <_vfprintf_r+0xf22>
   12188:	34c1                	addw	s1,s1,-16
   1218a:	1c9dd4e3          	bge	s11,s1,12b52 <_vfprintf_r+0x18e6>
   1218e:	2785                	addw	a5,a5,1
   12190:	0a41                	add	s4,s4,16
   12192:	01693023          	sd	s6,0(s2)
   12196:	01b93423          	sd	s11,8(s2)
   1219a:	f9d2                	sd	s4,240(sp)
   1219c:	d5be                	sw	a5,232(sp)
   1219e:	0941                	add	s2,s2,16
   121a0:	fefcd4e3          	bge	s9,a5,12188 <_vfprintf_r+0xf1c>
   121a4:	6522                	ld	a0,8(sp)
   121a6:	1190                	add	a2,sp,224
   121a8:	85d6                	mv	a1,s5
   121aa:	645000ef          	jal	12fee <__sprint_r>
   121ae:	440512e3          	bnez	a0,12df2 <_vfprintf_r+0x1b86>
   121b2:	7a4e                	ld	s4,240(sp)
   121b4:	57ae                	lw	a5,232(sp)
   121b6:	894e                	mv	s2,s3
   121b8:	bfc1                	j	12188 <_vfprintf_r+0xf1c>
   121ba:	001d7593          	and	a1,s10,1
   121be:	fc059f63          	bnez	a1,1199c <_vfprintf_r+0x730>
   121c2:	00c93423          	sd	a2,8(s2)
   121c6:	f9d2                	sd	s4,240(sp)
   121c8:	d5da                	sw	s6,232(sp)
   121ca:	479d                	li	a5,7
   121cc:	8367d7e3          	bge	a5,s6,119fa <_vfprintf_r+0x78e>
   121d0:	6522                	ld	a0,8(sp)
   121d2:	1190                	add	a2,sp,224
   121d4:	85a6                	mv	a1,s1
   121d6:	619000ef          	jal	12fee <__sprint_r>
   121da:	d40519e3          	bnez	a0,11f2c <_vfprintf_r+0xcc0>
   121de:	7a4e                	ld	s4,240(sp)
   121e0:	5b2e                	lw	s6,232(sp)
   121e2:	8cce                	mv	s9,s3
   121e4:	817ff06f          	j	119fa <_vfprintf_r+0x78e>
   121e8:	7742                	ld	a4,48(sp)
   121ea:	4785                	li	a5,1
   121ec:	80e7d7e3          	bge	a5,a4,119fa <_vfprintf_r+0x78e>
   121f0:	47c5                	li	a5,17
   121f2:	00007897          	auipc	a7,0x7
   121f6:	14e88893          	add	a7,a7,334 # 19340 <zeroes.0>
   121fa:	48e7dc63          	bge	a5,a4,12692 <_vfprintf_r+0x1426>
   121fe:	87a6                	mv	a5,s1
   12200:	f456                	sd	s5,40(sp)
   12202:	84ca                	mv	s1,s2
   12204:	46c1                	li	a3,16
   12206:	4d9d                	li	s11,7
   12208:	8ac6                	mv	s5,a7
   1220a:	893e                	mv	s2,a5
   1220c:	a021                	j	12214 <_vfprintf_r+0xfa8>
   1220e:	34c1                	addw	s1,s1,-16
   12210:	4696dc63          	bge	a3,s1,12688 <_vfprintf_r+0x141c>
   12214:	2b05                	addw	s6,s6,1
   12216:	0a41                	add	s4,s4,16
   12218:	015cb023          	sd	s5,0(s9)
   1221c:	00dcb423          	sd	a3,8(s9)
   12220:	f9d2                	sd	s4,240(sp)
   12222:	d5da                	sw	s6,232(sp)
   12224:	0cc1                	add	s9,s9,16
   12226:	ff6dd4e3          	bge	s11,s6,1220e <_vfprintf_r+0xfa2>
   1222a:	6522                	ld	a0,8(sp)
   1222c:	1190                	add	a2,sp,224
   1222e:	85ca                	mv	a1,s2
   12230:	5bf000ef          	jal	12fee <__sprint_r>
   12234:	1e0519e3          	bnez	a0,12c26 <_vfprintf_r+0x19ba>
   12238:	7a4e                	ld	s4,240(sp)
   1223a:	5b2e                	lw	s6,232(sp)
   1223c:	8cce                	mv	s9,s3
   1223e:	46c1                	li	a3,16
   12240:	b7f9                	j	1220e <_vfprintf_r+0xfa2>
   12242:	010bf793          	and	a5,s7,16
   12246:	e3b9                	bnez	a5,1228c <_vfprintf_r+0x1020>
   12248:	7682                	ld	a3,32(sp)
   1224a:	040bf793          	and	a5,s7,64
   1224e:	0006aa03          	lw	s4,0(a3)
   12252:	46078f63          	beqz	a5,126d0 <_vfprintf_r+0x1464>
   12256:	1a42                	sll	s4,s4,0x30
   12258:	030a5a13          	srl	s4,s4,0x30
   1225c:	f03a                	sd	a4,32(sp)
   1225e:	4785                	li	a5,1
   12260:	b90ff06f          	j	115f0 <_vfprintf_r+0x384>
   12264:	4681                	li	a3,0
   12266:	15c10d93          	add	s11,sp,348
   1226a:	b42ff06f          	j	115ac <_vfprintf_r+0x340>
   1226e:	001d7793          	and	a5,s10,1
   12272:	a2078963          	beqz	a5,114a4 <_vfprintf_r+0x238>
   12276:	bc45                	j	11d26 <_vfprintf_r+0xaba>
   12278:	000ac303          	lbu	t1,0(s5)
   1227c:	f03e                	sd	a5,32(sp)
   1227e:	90cff06f          	j	1138a <_vfprintf_r+0x11e>
   12282:	7782                	ld	a5,32(sp)
   12284:	639c                	ld	a5,0(a5)
   12286:	8a3e                	mv	s4,a5
   12288:	afcff06f          	j	11584 <_vfprintf_r+0x318>
   1228c:	7782                	ld	a5,32(sp)
   1228e:	f03a                	sd	a4,32(sp)
   12290:	0007ba03          	ld	s4,0(a5)
   12294:	4785                	li	a5,1
   12296:	b5aff06f          	j	115f0 <_vfprintf_r+0x384>
   1229a:	010d7793          	and	a5,s10,16
   1229e:	a00792e3          	bnez	a5,11ca2 <_vfprintf_r+0xa36>
   122a2:	040d7793          	and	a5,s10,64
   122a6:	6a079863          	bnez	a5,12956 <_vfprintf_r+0x16ea>
   122aa:	200d7e13          	and	t3,s10,512
   122ae:	67c2                	ld	a5,16(sp)
   122b0:	240e04e3          	beqz	t3,12cf8 <_vfprintf_r+0x1a8c>
   122b4:	00f70023          	sb	a5,0(a4)
   122b8:	b2fd                	j	11ca6 <_vfprintf_r+0xa3a>
   122ba:	7782                	ld	a5,32(sp)
   122bc:	0007ba03          	ld	s4,0(a5)
   122c0:	b26ff06f          	j	115e6 <_vfprintf_r+0x37a>
   122c4:	7782                	ld	a5,32(sp)
   122c6:	00f78c93          	add	s9,a5,15
   122ca:	ff0cfc93          	and	s9,s9,-16
   122ce:	010c8793          	add	a5,s9,16
   122d2:	000cb703          	ld	a4,0(s9)
   122d6:	008cb583          	ld	a1,8(s9)
   122da:	f03e                	sd	a5,32(sp)
   122dc:	b86ff06f          	j	11662 <_vfprintf_r+0x3f6>
   122e0:	f03a                	sd	a4,32(sp)
   122e2:	47a5                	li	a5,9
   122e4:	8bea                	mv	s7,s10
   122e6:	c747f2e3          	bgeu	a5,s4,11f4a <_vfprintf_r+0xcde>
   122ea:	0af4                	add	a3,sp,348
   122ec:	78e6                	ld	a7,120(sp)
   122ee:	400bf813          	and	a6,s7,1024
   122f2:	4601                	li	a2,0
   122f4:	85b6                	mv	a1,a3
   122f6:	4729                	li	a4,10
   122f8:	4d25                	li	s10,9
   122fa:	0ff00c93          	li	s9,255
   122fe:	a039                	j	1230c <_vfprintf_r+0x10a0>
   12300:	02ea57b3          	divu	a5,s4,a4
   12304:	034d7763          	bgeu	s10,s4,12332 <_vfprintf_r+0x10c6>
   12308:	8a3e                	mv	s4,a5
   1230a:	85ee                	mv	a1,s11
   1230c:	fff58d93          	add	s11,a1,-1 # 1fff <exit-0xe0e9>
   12310:	2605                	addw	a2,a2,1
   12312:	02ea77b3          	remu	a5,s4,a4
   12316:	0307879b          	addw	a5,a5,48
   1231a:	fef58fa3          	sb	a5,-1(a1)
   1231e:	fe0801e3          	beqz	a6,12300 <_vfprintf_r+0x1094>
   12322:	0008c783          	lbu	a5,0(a7)
   12326:	fcf61de3          	bne	a2,a5,12300 <_vfprintf_r+0x1094>
   1232a:	fd978be3          	beq	a5,s9,12300 <_vfprintf_r+0x1094>
   1232e:	414d6e63          	bltu	s10,s4,1274a <_vfprintf_r+0x14de>
   12332:	f832                	sd	a2,48(sp)
   12334:	fcc6                	sd	a7,120(sp)
   12336:	41b686bb          	subw	a3,a3,s11
   1233a:	8d5e                	mv	s10,s7
   1233c:	a70ff06f          	j	115ac <_vfprintf_r+0x340>
   12340:	00070b1b          	sext.w	s6,a4
   12344:	d96047e3          	bgtz	s6,120d2 <_vfprintf_r+0xe66>
   12348:	b35d                	j	120ee <_vfprintf_r+0xe82>
   1234a:	5b7d                	li	s6,-1
   1234c:	8aba                	mv	s5,a4
   1234e:	840ff06f          	j	1138e <_vfprintf_r+0x122>
   12352:	8bea                	mv	s7,s10
   12354:	b8ad                	j	11bce <_vfprintf_r+0x962>
   12356:	00007797          	auipc	a5,0x7
   1235a:	d6a78793          	add	a5,a5,-662 # 190c0 <__clzdi2+0x9c>
   1235e:	ecbe                	sd	a5,88(sp)
   12360:	7682                	ld	a3,32(sp)
   12362:	020d7793          	and	a5,s10,32
   12366:	00868713          	add	a4,a3,8
   1236a:	14078b63          	beqz	a5,124c0 <_vfprintf_r+0x1254>
   1236e:	0006ba03          	ld	s4,0(a3)
   12372:	001d7793          	and	a5,s10,1
   12376:	cf89                	beqz	a5,12390 <_vfprintf_r+0x1124>
   12378:	000a0c63          	beqz	s4,12390 <_vfprintf_r+0x1124>
   1237c:	002d6e13          	or	t3,s10,2
   12380:	03000793          	li	a5,48
   12384:	0af10823          	sb	a5,176(sp)
   12388:	0a6108a3          	sb	t1,177(sp)
   1238c:	000e0d1b          	sext.w	s10,t3
   12390:	bffd7b93          	and	s7,s10,-1025
   12394:	2b81                	sext.w	s7,s7
   12396:	f03a                	sd	a4,32(sp)
   12398:	4789                	li	a5,2
   1239a:	a56ff06f          	j	115f0 <_vfprintf_r+0x384>
   1239e:	00007797          	auipc	a5,0x7
   123a2:	d0a78793          	add	a5,a5,-758 # 190a8 <__clzdi2+0x84>
   123a6:	ecbe                	sd	a5,88(sp)
   123a8:	bf65                	j	12360 <_vfprintf_r+0x10f4>
   123aa:	200d6d13          	or	s10,s10,512
   123ae:	001ac303          	lbu	t1,1(s5)
   123b2:	2d01                	sext.w	s10,s10
   123b4:	0a85                	add	s5,s5,1
   123b6:	fd5fe06f          	j	1138a <_vfprintf_r+0x11e>
   123ba:	020d6d13          	or	s10,s10,32
   123be:	001ac303          	lbu	t1,1(s5)
   123c2:	2d01                	sext.w	s10,s10
   123c4:	0a85                	add	s5,s5,1
   123c6:	fc5fe06f          	j	1138a <_vfprintf_r+0x11e>
   123ca:	6522                	ld	a0,8(sp)
   123cc:	1190                	add	a2,sp,224
   123ce:	85a6                	mv	a1,s1
   123d0:	41f000ef          	jal	12fee <__sprint_r>
   123d4:	b4051ce3          	bnez	a0,11f2c <_vfprintf_r+0xcc0>
   123d8:	7a4e                	ld	s4,240(sp)
   123da:	894e                	mv	s2,s3
   123dc:	b2b5                	j	11d48 <_vfprintf_r+0xadc>
   123de:	4799                	li	a5,6
   123e0:	000b069b          	sext.w	a3,s6
   123e4:	5567e463          	bltu	a5,s6,1292c <_vfprintf_r+0x16c0>
   123e8:	8bb6                	mv	s7,a3
   123ea:	f066                	sd	s9,32(sp)
   123ec:	00007d97          	auipc	s11,0x7
   123f0:	cecd8d93          	add	s11,s11,-788 # 190d8 <__clzdi2+0xb4>
   123f4:	808ff06f          	j	113fc <_vfprintf_r+0x190>
   123f8:	46c1                	li	a3,16
   123fa:	572e                	lw	a4,232(sp)
   123fc:	00007897          	auipc	a7,0x7
   12400:	f4488893          	add	a7,a7,-188 # 19340 <zeroes.0>
   12404:	3166dc63          	bge	a3,s6,1271c <_vfprintf_r+0x14b0>
   12408:	f0d6                	sd	s5,96(sp)
   1240a:	46c1                	li	a3,16
   1240c:	8ada                	mv	s5,s6
   1240e:	4c9d                	li	s9,7
   12410:	8b46                	mv	s6,a7
   12412:	a021                	j	1241a <_vfprintf_r+0x11ae>
   12414:	3ac1                	addw	s5,s5,-16
   12416:	3156d063          	bge	a3,s5,12716 <_vfprintf_r+0x14aa>
   1241a:	2705                	addw	a4,a4,1
   1241c:	0a41                	add	s4,s4,16
   1241e:	01693023          	sd	s6,0(s2)
   12422:	00d93423          	sd	a3,8(s2)
   12426:	f9d2                	sd	s4,240(sp)
   12428:	d5ba                	sw	a4,232(sp)
   1242a:	0941                	add	s2,s2,16
   1242c:	feecd4e3          	bge	s9,a4,12414 <_vfprintf_r+0x11a8>
   12430:	6522                	ld	a0,8(sp)
   12432:	1190                	add	a2,sp,224
   12434:	85a6                	mv	a1,s1
   12436:	3b9000ef          	jal	12fee <__sprint_r>
   1243a:	ae0519e3          	bnez	a0,11f2c <_vfprintf_r+0xcc0>
   1243e:	7a4e                	ld	s4,240(sp)
   12440:	572e                	lw	a4,232(sp)
   12442:	894e                	mv	s2,s3
   12444:	46c1                	li	a3,16
   12446:	b7f9                	j	12414 <_vfprintf_r+0x11a8>
   12448:	56ae                	lw	a3,232(sp)
   1244a:	67a6                	ld	a5,72(sp)
   1244c:	6646                	ld	a2,80(sp)
   1244e:	0941                	add	s2,s2,16
   12450:	9a3e                	add	s4,s4,a5
   12452:	fec93823          	sd	a2,-16(s2)
   12456:	0016861b          	addw	a2,a3,1
   1245a:	fef93c23          	sd	a5,-8(s2)
   1245e:	f9d2                	sd	s4,240(sp)
   12460:	d5b2                	sw	a2,232(sp)
   12462:	469d                	li	a3,7
   12464:	cac6dee3          	bge	a3,a2,12120 <_vfprintf_r+0xeb4>
   12468:	6522                	ld	a0,8(sp)
   1246a:	1190                	add	a2,sp,224
   1246c:	85a6                	mv	a1,s1
   1246e:	381000ef          	jal	12fee <__sprint_r>
   12472:	aa051de3          	bnez	a0,11f2c <_vfprintf_r+0xcc0>
   12476:	576a                	lw	a4,184(sp)
   12478:	7a4e                	ld	s4,240(sp)
   1247a:	894e                	mv	s2,s3
   1247c:	b155                	j	12120 <_vfprintf_r+0xeb4>
   1247e:	07800793          	li	a5,120
   12482:	03000693          	li	a3,48
   12486:	002d6713          	or	a4,s10,2
   1248a:	0af108a3          	sb	a5,177(sp)
   1248e:	0ad10823          	sb	a3,176(sp)
   12492:	06300793          	li	a5,99
   12496:	2701                	sext.w	a4,a4
   12498:	4f67ce63          	blt	a5,s6,12994 <_vfprintf_r+0x1728>
   1249c:	67ce                	ld	a5,208(sp)
   1249e:	6eee                	ld	t4,216(sp)
   124a0:	102d6e13          	or	t3,s10,258
   124a4:	f43e                	sd	a5,40(sp)
   124a6:	000e0a1b          	sext.w	s4,t3
   124aa:	660ec163          	bltz	t4,12b0c <_vfprintf_r+0x18a0>
   124ae:	fbf3069b          	addw	a3,t1,-65
   124b2:	8d3a                	mv	s10,a4
   124b4:	f082                	sd	zero,96(sp)
   124b6:	ec02                	sd	zero,24(sp)
   124b8:	0f810d93          	add	s11,sp,248
   124bc:	a1eff06f          	j	116da <_vfprintf_r+0x46e>
   124c0:	010d7793          	and	a5,s10,16
   124c4:	cfc1                	beqz	a5,1255c <_vfprintf_r+0x12f0>
   124c6:	7782                	ld	a5,32(sp)
   124c8:	0007ba03          	ld	s4,0(a5)
   124cc:	b55d                	j	12372 <_vfprintf_r+0x1106>
   124ce:	6522                	ld	a0,8(sp)
   124d0:	1190                	add	a2,sp,224
   124d2:	85a6                	mv	a1,s1
   124d4:	31b000ef          	jal	12fee <__sprint_r>
   124d8:	a4051ae3          	bnez	a0,11f2c <_vfprintf_r+0xcc0>
   124dc:	7a4e                	ld	s4,240(sp)
   124de:	5b2e                	lw	s6,232(sp)
   124e0:	8cce                	mv	s9,s3
   124e2:	ccaff06f          	j	119ac <_vfprintf_r+0x740>
   124e6:	6522                	ld	a0,8(sp)
   124e8:	1190                	add	a2,sp,224
   124ea:	85a6                	mv	a1,s1
   124ec:	303000ef          	jal	12fee <__sprint_r>
   124f0:	a2051ee3          	bnez	a0,11f2c <_vfprintf_r+0xcc0>
   124f4:	7a4e                	ld	s4,240(sp)
   124f6:	5b2e                	lw	s6,232(sp)
   124f8:	8cce                	mv	s9,s3
   124fa:	cceff06f          	j	119c8 <_vfprintf_r+0x75c>
   124fe:	572e                	lw	a4,232(sp)
   12500:	00007697          	auipc	a3,0x7
   12504:	be068693          	add	a3,a3,-1056 # 190e0 <__clzdi2+0xbc>
   12508:	00d93023          	sd	a3,0(s2)
   1250c:	2705                	addw	a4,a4,1
   1250e:	4685                	li	a3,1
   12510:	0a05                	add	s4,s4,1
   12512:	00d93423          	sd	a3,8(s2)
   12516:	d5ba                	sw	a4,232(sp)
   12518:	0007069b          	sext.w	a3,a4
   1251c:	f9d2                	sd	s4,240(sp)
   1251e:	471d                	li	a4,7
   12520:	0941                	add	s2,s2,16
   12522:	3cd74f63          	blt	a4,a3,12900 <_vfprintf_r+0x1694>
   12526:	10059c63          	bnez	a1,1263e <_vfprintf_r+0x13d2>
   1252a:	77c2                	ld	a5,48(sp)
   1252c:	001d7713          	and	a4,s10,1
   12530:	8f5d                	or	a4,a4,a5
   12532:	e319                	bnez	a4,12538 <_vfprintf_r+0x12cc>
   12534:	f71fe06f          	j	114a4 <_vfprintf_r+0x238>
   12538:	572e                	lw	a4,232(sp)
   1253a:	67a6                	ld	a5,72(sp)
   1253c:	66c6                	ld	a3,80(sp)
   1253e:	01478633          	add	a2,a5,s4
   12542:	00d93023          	sd	a3,0(s2)
   12546:	0017069b          	addw	a3,a4,1
   1254a:	00f93423          	sd	a5,8(s2)
   1254e:	f9b2                	sd	a2,240(sp)
   12550:	d5b6                	sw	a3,232(sp)
   12552:	471d                	li	a4,7
   12554:	42d74463          	blt	a4,a3,1297c <_vfprintf_r+0x1710>
   12558:	0941                	add	s2,s2,16
   1255a:	a229                	j	12664 <_vfprintf_r+0x13f8>
   1255c:	7682                	ld	a3,32(sp)
   1255e:	040d7793          	and	a5,s10,64
   12562:	0006aa03          	lw	s4,0(a3)
   12566:	16078f63          	beqz	a5,126e4 <_vfprintf_r+0x1478>
   1256a:	1a42                	sll	s4,s4,0x30
   1256c:	030a5a13          	srl	s4,s4,0x30
   12570:	b509                	j	12372 <_vfprintf_r+0x1106>
   12572:	6522                	ld	a0,8(sp)
   12574:	e97fd0ef          	jal	1040a <__sinit>
   12578:	d31fe06f          	j	112a8 <_vfprintf_r+0x3c>
   1257c:	6522                	ld	a0,8(sp)
   1257e:	1190                	add	a2,sp,224
   12580:	85a6                	mv	a1,s1
   12582:	26d000ef          	jal	12fee <__sprint_r>
   12586:	9a0513e3          	bnez	a0,11f2c <_vfprintf_r+0xcc0>
   1258a:	7a4e                	ld	s4,240(sp)
   1258c:	894e                	mv	s2,s3
   1258e:	f90ff06f          	j	11d1e <_vfprintf_r+0xab2>
   12592:	88da                	mv	a7,s6
   12594:	8b56                	mv	s6,s5
   12596:	7aa2                	ld	s5,40(sp)
   12598:	0017871b          	addw	a4,a5,1
   1259c:	01193023          	sd	a7,0(s2)
   125a0:	01693423          	sd	s6,8(s2)
   125a4:	9a5a                	add	s4,s4,s6
   125a6:	f9d2                	sd	s4,240(sp)
   125a8:	d5ba                	sw	a4,232(sp)
   125aa:	479d                	li	a5,7
   125ac:	00e7c463          	blt	a5,a4,125b4 <_vfprintf_r+0x1348>
   125b0:	ef3fe06f          	j	114a2 <_vfprintf_r+0x236>
   125b4:	c66ff06f          	j	11a1a <_vfprintf_r+0x7ae>
   125b8:	f03a                	sd	a4,32(sp)
   125ba:	b269                	j	11f44 <_vfprintf_r+0xcd8>
   125bc:	654e                	ld	a0,208(sp)
   125be:	65ee                	ld	a1,216(sp)
   125c0:	4601                	li	a2,0
   125c2:	4681                	li	a3,0
   125c4:	1d9050ef          	jal	17f9c <__letf2>
   125c8:	6362                	ld	t1,24(sp)
   125ca:	56054d63          	bltz	a0,12b44 <_vfprintf_r+0x18d8>
   125ce:	0af14703          	lbu	a4,175(sp)
   125d2:	04700693          	li	a3,71
   125d6:	00007d97          	auipc	s11,0x7
   125da:	abad8d93          	add	s11,s11,-1350 # 19090 <__clzdi2+0x6c>
   125de:	0066c663          	blt	a3,t1,125ea <_vfprintf_r+0x137e>
   125e2:	00007d97          	auipc	s11,0x7
   125e6:	aa6d8d93          	add	s11,s11,-1370 # 19088 <__clzdi2+0x64>
   125ea:	f7fd7e13          	and	t3,s10,-129
   125ee:	ec02                	sd	zero,24(sp)
   125f0:	e082                	sd	zero,64(sp)
   125f2:	fc02                	sd	zero,56(sp)
   125f4:	f402                	sd	zero,40(sp)
   125f6:	000e0d1b          	sext.w	s10,t3
   125fa:	4b8d                	li	s7,3
   125fc:	468d                	li	a3,3
   125fe:	4b01                	li	s6,0
   12600:	c319                	beqz	a4,12606 <_vfprintf_r+0x139a>
   12602:	fc7fe06f          	j	115c8 <_vfprintf_r+0x35c>
   12606:	e01fe06f          	j	11406 <_vfprintf_r+0x19a>
   1260a:	856e                	mv	a0,s11
   1260c:	f09a                	sd	t1,96(sp)
   1260e:	454020ef          	jal	14a62 <strlen>
   12612:	0005069b          	sext.w	a3,a0
   12616:	0af14703          	lbu	a4,175(sp)
   1261a:	fff6c813          	not	a6,a3
   1261e:	43f85813          	sra	a6,a6,0x3f
   12622:	f066                	sd	s9,32(sp)
   12624:	ec02                	sd	zero,24(sp)
   12626:	e082                	sd	zero,64(sp)
   12628:	fc02                	sd	zero,56(sp)
   1262a:	f402                	sd	zero,40(sp)
   1262c:	7306                	ld	t1,96(sp)
   1262e:	00d87bb3          	and	s7,a6,a3
   12632:	4b01                	li	s6,0
   12634:	c319                	beqz	a4,1263a <_vfprintf_r+0x13ce>
   12636:	f93fe06f          	j	115c8 <_vfprintf_r+0x35c>
   1263a:	dcdfe06f          	j	11406 <_vfprintf_r+0x19a>
   1263e:	572e                	lw	a4,232(sp)
   12640:	67a6                	ld	a5,72(sp)
   12642:	66c6                	ld	a3,80(sp)
   12644:	0941                	add	s2,s2,16
   12646:	01478633          	add	a2,a5,s4
   1264a:	fed93823          	sd	a3,-16(s2)
   1264e:	0017069b          	addw	a3,a4,1
   12652:	fef93c23          	sd	a5,-8(s2)
   12656:	f9b2                	sd	a2,240(sp)
   12658:	d5b6                	sw	a3,232(sp)
   1265a:	471d                	li	a4,7
   1265c:	32d74063          	blt	a4,a3,1297c <_vfprintf_r+0x1710>
   12660:	5605cc63          	bltz	a1,12bd8 <_vfprintf_r+0x196c>
   12664:	77c2                	ld	a5,48(sp)
   12666:	0016871b          	addw	a4,a3,1
   1266a:	01b93023          	sd	s11,0(s2)
   1266e:	00c78a33          	add	s4,a5,a2
   12672:	00f93423          	sd	a5,8(s2)
   12676:	f9d2                	sd	s4,240(sp)
   12678:	d5ba                	sw	a4,232(sp)
   1267a:	479d                	li	a5,7
   1267c:	00e7c463          	blt	a5,a4,12684 <_vfprintf_r+0x1418>
   12680:	e23fe06f          	j	114a2 <_vfprintf_r+0x236>
   12684:	b96ff06f          	j	11a1a <_vfprintf_r+0x7ae>
   12688:	88d6                	mv	a7,s5
   1268a:	7aa2                	ld	s5,40(sp)
   1268c:	87ca                	mv	a5,s2
   1268e:	8926                	mv	s2,s1
   12690:	84be                	mv	s1,a5
   12692:	2b05                	addw	s6,s6,1
   12694:	9a4a                	add	s4,s4,s2
   12696:	011cb023          	sd	a7,0(s9)
   1269a:	012cb423          	sd	s2,8(s9)
   1269e:	f9d2                	sd	s4,240(sp)
   126a0:	d5da                	sw	s6,232(sp)
   126a2:	479d                	li	a5,7
   126a4:	b567da63          	bge	a5,s6,119f8 <_vfprintf_r+0x78c>
   126a8:	b625                	j	121d0 <_vfprintf_r+0xf64>
   126aa:	200d7793          	and	a5,s10,512
   126ae:	28078f63          	beqz	a5,1294c <_vfprintf_r+0x16e0>
   126b2:	0ffa7a13          	zext.b	s4,s4
   126b6:	f31fe06f          	j	115e6 <_vfprintf_r+0x37a>
   126ba:	200d7793          	and	a5,s10,512
   126be:	28078463          	beqz	a5,12946 <_vfprintf_r+0x16da>
   126c2:	018a1a1b          	sllw	s4,s4,0x18
   126c6:	418a5a1b          	sraw	s4,s4,0x18
   126ca:	87d2                	mv	a5,s4
   126cc:	eb9fe06f          	j	11584 <_vfprintf_r+0x318>
   126d0:	200bf793          	and	a5,s7,512
   126d4:	26078263          	beqz	a5,12938 <_vfprintf_r+0x16cc>
   126d8:	0ffa7a13          	zext.b	s4,s4
   126dc:	f03a                	sd	a4,32(sp)
   126de:	4785                	li	a5,1
   126e0:	f11fe06f          	j	115f0 <_vfprintf_r+0x384>
   126e4:	200d7793          	and	a5,s10,512
   126e8:	24078463          	beqz	a5,12930 <_vfprintf_r+0x16c4>
   126ec:	0ffa7a13          	zext.b	s4,s4
   126f0:	b149                	j	12372 <_vfprintf_r+0x1106>
   126f2:	67ee                	ld	a5,216(sp)
   126f4:	2607cd63          	bltz	a5,1296e <_vfprintf_r+0x1702>
   126f8:	0af14703          	lbu	a4,175(sp)
   126fc:	04700693          	li	a3,71
   12700:	00007d97          	auipc	s11,0x7
   12704:	9a0d8d93          	add	s11,s11,-1632 # 190a0 <__clzdi2+0x7c>
   12708:	ee66c1e3          	blt	a3,t1,125ea <_vfprintf_r+0x137e>
   1270c:	00007d97          	auipc	s11,0x7
   12710:	98cd8d93          	add	s11,s11,-1652 # 19098 <__clzdi2+0x74>
   12714:	bdd9                	j	125ea <_vfprintf_r+0x137e>
   12716:	88da                	mv	a7,s6
   12718:	8b56                	mv	s6,s5
   1271a:	7a86                	ld	s5,96(sp)
   1271c:	0017069b          	addw	a3,a4,1
   12720:	9a5a                	add	s4,s4,s6
   12722:	01193023          	sd	a7,0(s2)
   12726:	01693423          	sd	s6,8(s2)
   1272a:	f9d2                	sd	s4,240(sp)
   1272c:	d5b6                	sw	a3,232(sp)
   1272e:	471d                	li	a4,7
   12730:	0941                	add	s2,s2,16
   12732:	9cd758e3          	bge	a4,a3,12102 <_vfprintf_r+0xe96>
   12736:	6522                	ld	a0,8(sp)
   12738:	1190                	add	a2,sp,224
   1273a:	85a6                	mv	a1,s1
   1273c:	0b3000ef          	jal	12fee <__sprint_r>
   12740:	fe051663          	bnez	a0,11f2c <_vfprintf_r+0xcc0>
   12744:	7a4e                	ld	s4,240(sp)
   12746:	894e                	mv	s2,s3
   12748:	ba6d                	j	12102 <_vfprintf_r+0xe96>
   1274a:	678a                	ld	a5,128(sp)
   1274c:	75c6                	ld	a1,112(sp)
   1274e:	fc36                	sd	a3,56(sp)
   12750:	40fd8db3          	sub	s11,s11,a5
   12754:	863e                	mv	a2,a5
   12756:	856e                	mv	a0,s11
   12758:	f842                	sd	a6,48(sp)
   1275a:	f41a                	sd	t1,40(sp)
   1275c:	ec46                	sd	a7,24(sp)
   1275e:	729010ef          	jal	14686 <strncpy>
   12762:	68e2                	ld	a7,24(sp)
   12764:	47a9                	li	a5,10
   12766:	02fa57b3          	divu	a5,s4,a5
   1276a:	0018c603          	lbu	a2,1(a7)
   1276e:	7322                	ld	t1,40(sp)
   12770:	7842                	ld	a6,48(sp)
   12772:	00c03633          	snez	a2,a2
   12776:	98b2                	add	a7,a7,a2
   12778:	76e2                	ld	a3,56(sp)
   1277a:	4601                	li	a2,0
   1277c:	4729                	li	a4,10
   1277e:	b669                	j	12308 <_vfprintf_r+0x109c>
   12780:	77c2                	ld	a5,48(sp)
   12782:	f0d6                	sd	s5,96(sp)
   12784:	e56a                	sd	s10,136(sp)
   12786:	00fd85b3          	add	a1,s11,a5
   1278a:	87ca                	mv	a5,s2
   1278c:	7962                	ld	s2,56(sp)
   1278e:	e962                	sd	s8,144(sp)
   12790:	fc5e                	sd	s7,56(sp)
   12792:	ed6e                	sd	s11,152(sp)
   12794:	8d66                	mv	s10,s9
   12796:	6c0a                	ld	s8,128(sp)
   12798:	7ce6                	ld	s9,120(sp)
   1279a:	6aa2                	ld	s5,8(sp)
   1279c:	6d86                	ld	s11,64(sp)
   1279e:	469d                	li	a3,7
   127a0:	4741                	li	a4,16
   127a2:	00007b17          	auipc	s6,0x7
   127a6:	b9eb0b13          	add	s6,s6,-1122 # 19340 <zeroes.0>
   127aa:	8652                	mv	a2,s4
   127ac:	8bae                	mv	s7,a1
   127ae:	07205e63          	blez	s2,1282a <_vfprintf_r+0x15be>
   127b2:	11b05863          	blez	s11,128c2 <_vfprintf_r+0x1656>
   127b6:	3dfd                	addw	s11,s11,-1
   127b8:	55ae                	lw	a1,232(sp)
   127ba:	7546                	ld	a0,112(sp)
   127bc:	9662                	add	a2,a2,s8
   127be:	0187b423          	sd	s8,8(a5)
   127c2:	e388                	sd	a0,0(a5)
   127c4:	0015851b          	addw	a0,a1,1
   127c8:	f9b2                	sd	a2,240(sp)
   127ca:	d5aa                	sw	a0,232(sp)
   127cc:	07c1                	add	a5,a5,16
   127ce:	0ea6cd63          	blt	a3,a0,128c8 <_vfprintf_r+0x165c>
   127d2:	000cc583          	lbu	a1,0(s9)
   127d6:	41ab8f33          	sub	t5,s7,s10
   127da:	000f051b          	sext.w	a0,t5
   127de:	0005881b          	sext.w	a6,a1
   127e2:	00a5d363          	bge	a1,a0,127e8 <_vfprintf_r+0x157c>
   127e6:	8f42                	mv	t5,a6
   127e8:	000f0a1b          	sext.w	s4,t5
   127ec:	03405363          	blez	s4,12812 <_vfprintf_r+0x15a6>
   127f0:	55ae                	lw	a1,232(sp)
   127f2:	9652                	add	a2,a2,s4
   127f4:	01a7b023          	sd	s10,0(a5)
   127f8:	0015851b          	addw	a0,a1,1
   127fc:	0147b423          	sd	s4,8(a5)
   12800:	f9b2                	sd	a2,240(sp)
   12802:	d5aa                	sw	a0,232(sp)
   12804:	0ca6ce63          	blt	a3,a0,128e0 <_vfprintf_r+0x1674>
   12808:	000cc583          	lbu	a1,0(s9)
   1280c:	07c1                	add	a5,a5,16
   1280e:	0005881b          	sext.w	a6,a1
   12812:	fffa4513          	not	a0,s4
   12816:	957d                	sra	a0,a0,0x3f
   12818:	00aa7f33          	and	t5,s4,a0
   1281c:	41e80a3b          	subw	s4,a6,t5
   12820:	03404763          	bgtz	s4,1284e <_vfprintf_r+0x15e2>
   12824:	9d2e                	add	s10,s10,a1
   12826:	f92046e3          	bgtz	s2,127b2 <_vfprintf_r+0x1546>
   1282a:	f9b046e3          	bgtz	s11,127b6 <_vfprintf_r+0x154a>
   1282e:	6dea                	ld	s11,152(sp)
   12830:	893e                	mv	s2,a5
   12832:	77c2                	ld	a5,48(sp)
   12834:	fce6                	sd	s9,120(sp)
   12836:	8cea                	mv	s9,s10
   12838:	00fd8733          	add	a4,s11,a5
   1283c:	7a86                	ld	s5,96(sp)
   1283e:	6d2a                	ld	s10,136(sp)
   12840:	6c4a                	ld	s8,144(sp)
   12842:	7be2                	ld	s7,56(sp)
   12844:	8a32                	mv	s4,a2
   12846:	8d9775e3          	bgeu	a4,s9,12110 <_vfprintf_r+0xea4>
   1284a:	8cba                	mv	s9,a4
   1284c:	b0d1                	j	12110 <_vfprintf_r+0xea4>
   1284e:	55ae                	lw	a1,232(sp)
   12850:	00007f17          	auipc	t5,0x7
   12854:	af0f0f13          	add	t5,t5,-1296 # 19340 <zeroes.0>
   12858:	05475563          	bge	a4,s4,128a2 <_vfprintf_r+0x1636>
   1285c:	f44a                	sd	s2,40(sp)
   1285e:	8952                	mv	s2,s4
   12860:	8a5a                	mv	s4,s6
   12862:	a021                	j	1286a <_vfprintf_r+0x15fe>
   12864:	3941                	addw	s2,s2,-16
   12866:	03275b63          	bge	a4,s2,1289c <_vfprintf_r+0x1630>
   1286a:	2585                	addw	a1,a1,1
   1286c:	0641                	add	a2,a2,16
   1286e:	0167b023          	sd	s6,0(a5)
   12872:	e798                	sd	a4,8(a5)
   12874:	f9b2                	sd	a2,240(sp)
   12876:	d5ae                	sw	a1,232(sp)
   12878:	07c1                	add	a5,a5,16
   1287a:	feb6d5e3          	bge	a3,a1,12864 <_vfprintf_r+0x15f8>
   1287e:	1190                	add	a2,sp,224
   12880:	85a6                	mv	a1,s1
   12882:	8556                	mv	a0,s5
   12884:	76a000ef          	jal	12fee <__sprint_r>
   12888:	ea051263          	bnez	a0,11f2c <_vfprintf_r+0xcc0>
   1288c:	4741                	li	a4,16
   1288e:	3941                	addw	s2,s2,-16
   12890:	764e                	ld	a2,240(sp)
   12892:	55ae                	lw	a1,232(sp)
   12894:	87ce                	mv	a5,s3
   12896:	469d                	li	a3,7
   12898:	fd2749e3          	blt	a4,s2,1286a <_vfprintf_r+0x15fe>
   1289c:	8f52                	mv	t5,s4
   1289e:	8a4a                	mv	s4,s2
   128a0:	7922                	ld	s2,40(sp)
   128a2:	0015851b          	addw	a0,a1,1
   128a6:	9652                	add	a2,a2,s4
   128a8:	01e7b023          	sd	t5,0(a5)
   128ac:	0147b423          	sd	s4,8(a5)
   128b0:	f9b2                	sd	a2,240(sp)
   128b2:	d5aa                	sw	a0,232(sp)
   128b4:	26a6c963          	blt	a3,a0,12b26 <_vfprintf_r+0x18ba>
   128b8:	000cc583          	lbu	a1,0(s9)
   128bc:	07c1                	add	a5,a5,16
   128be:	9d2e                	add	s10,s10,a1
   128c0:	b79d                	j	12826 <_vfprintf_r+0x15ba>
   128c2:	1cfd                	add	s9,s9,-1
   128c4:	397d                	addw	s2,s2,-1
   128c6:	bdcd                	j	127b8 <_vfprintf_r+0x154c>
   128c8:	1190                	add	a2,sp,224
   128ca:	85a6                	mv	a1,s1
   128cc:	8556                	mv	a0,s5
   128ce:	720000ef          	jal	12fee <__sprint_r>
   128d2:	e4051d63          	bnez	a0,11f2c <_vfprintf_r+0xcc0>
   128d6:	764e                	ld	a2,240(sp)
   128d8:	87ce                	mv	a5,s3
   128da:	4741                	li	a4,16
   128dc:	469d                	li	a3,7
   128de:	bdd5                	j	127d2 <_vfprintf_r+0x1566>
   128e0:	1190                	add	a2,sp,224
   128e2:	85a6                	mv	a1,s1
   128e4:	8556                	mv	a0,s5
   128e6:	708000ef          	jal	12fee <__sprint_r>
   128ea:	e4051163          	bnez	a0,11f2c <_vfprintf_r+0xcc0>
   128ee:	000cc583          	lbu	a1,0(s9)
   128f2:	764e                	ld	a2,240(sp)
   128f4:	87ce                	mv	a5,s3
   128f6:	0005881b          	sext.w	a6,a1
   128fa:	4741                	li	a4,16
   128fc:	469d                	li	a3,7
   128fe:	bf11                	j	12812 <_vfprintf_r+0x15a6>
   12900:	6522                	ld	a0,8(sp)
   12902:	1190                	add	a2,sp,224
   12904:	85a6                	mv	a1,s1
   12906:	6e8000ef          	jal	12fee <__sprint_r>
   1290a:	e2051163          	bnez	a0,11f2c <_vfprintf_r+0xcc0>
   1290e:	55ea                	lw	a1,184(sp)
   12910:	7a4e                	ld	s4,240(sp)
   12912:	894e                	mv	s2,s3
   12914:	b909                	j	12526 <_vfprintf_r+0x12ba>
   12916:	6522                	ld	a0,8(sp)
   12918:	1190                	add	a2,sp,224
   1291a:	85a6                	mv	a1,s1
   1291c:	6d2000ef          	jal	12fee <__sprint_r>
   12920:	e0051663          	bnez	a0,11f2c <_vfprintf_r+0xcc0>
   12924:	7a4e                	ld	s4,240(sp)
   12926:	894e                	mv	s2,s3
   12928:	fc6ff06f          	j	120ee <_vfprintf_r+0xe82>
   1292c:	4699                	li	a3,6
   1292e:	bc6d                	j	123e8 <_vfprintf_r+0x117c>
   12930:	1a02                	sll	s4,s4,0x20
   12932:	020a5a13          	srl	s4,s4,0x20
   12936:	bc35                	j	12372 <_vfprintf_r+0x1106>
   12938:	1a02                	sll	s4,s4,0x20
   1293a:	020a5a13          	srl	s4,s4,0x20
   1293e:	f03a                	sd	a4,32(sp)
   12940:	4785                	li	a5,1
   12942:	caffe06f          	j	115f0 <_vfprintf_r+0x384>
   12946:	87d2                	mv	a5,s4
   12948:	c3dfe06f          	j	11584 <_vfprintf_r+0x318>
   1294c:	1a02                	sll	s4,s4,0x20
   1294e:	020a5a13          	srl	s4,s4,0x20
   12952:	c95fe06f          	j	115e6 <_vfprintf_r+0x37a>
   12956:	67c2                	ld	a5,16(sp)
   12958:	00f71023          	sh	a5,0(a4)
   1295c:	b4aff06f          	j	11ca6 <_vfprintf_r+0xa3a>
   12960:	6522                	ld	a0,8(sp)
   12962:	1190                	add	a2,sp,224
   12964:	85a6                	mv	a1,s1
   12966:	688000ef          	jal	12fee <__sprint_r>
   1296a:	b7ffe06f          	j	114e8 <_vfprintf_r+0x27c>
   1296e:	02d00793          	li	a5,45
   12972:	0af107a3          	sb	a5,175(sp)
   12976:	02d00713          	li	a4,45
   1297a:	b349                	j	126fc <_vfprintf_r+0x1490>
   1297c:	6522                	ld	a0,8(sp)
   1297e:	1190                	add	a2,sp,224
   12980:	85a6                	mv	a1,s1
   12982:	66c000ef          	jal	12fee <__sprint_r>
   12986:	da051363          	bnez	a0,11f2c <_vfprintf_r+0xcc0>
   1298a:	55ea                	lw	a1,184(sp)
   1298c:	764e                	ld	a2,240(sp)
   1298e:	56ae                	lw	a3,232(sp)
   12990:	894e                	mv	s2,s3
   12992:	b1f9                	j	12660 <_vfprintf_r+0x13f4>
   12994:	6522                	ld	a0,8(sp)
   12996:	001b059b          	addw	a1,s6,1
   1299a:	f43a                	sd	a4,40(sp)
   1299c:	ec1a                	sd	t1,24(sp)
   1299e:	abefe0ef          	jal	10c5c <_malloc_r>
   129a2:	6362                	ld	t1,24(sp)
   129a4:	7722                	ld	a4,40(sp)
   129a6:	8daa                	mv	s11,a0
   129a8:	4c050563          	beqz	a0,12e72 <_vfprintf_r+0x1c06>
   129ac:	ec2a                	sd	a0,24(sp)
   129ae:	8d3a                	mv	s10,a4
   129b0:	d03fe06f          	j	116b2 <_vfprintf_r+0x446>
   129b4:	75a2                	ld	a1,40(sp)
   129b6:	6522                	ld	a0,8(sp)
   129b8:	875a                	mv	a4,s6
   129ba:	8676                	mv	a2,t4
   129bc:	0c810893          	add	a7,sp,200
   129c0:	0bc10813          	add	a6,sp,188
   129c4:	193c                	add	a5,sp,184
   129c6:	4689                	li	a3,2
   129c8:	fc1a                	sd	t1,56(sp)
   129ca:	f876                	sd	t4,48(sp)
   129cc:	34c020ef          	jal	14d18 <_ldtoa_r>
   129d0:	7362                	ld	t1,56(sp)
   129d2:	04700713          	li	a4,71
   129d6:	7ec2                	ld	t4,48(sp)
   129d8:	8daa                	mv	s11,a0
   129da:	4ae31463          	bne	t1,a4,12e82 <_vfprintf_r+0x1c16>
   129de:	001d7713          	and	a4,s10,1
   129e2:	1c071063          	bnez	a4,12ba2 <_vfprintf_r+0x1936>
   129e6:	57ea                	lw	a5,184(sp)
   129e8:	f43e                	sd	a5,40(sp)
   129ea:	67ae                	ld	a5,200(sp)
   129ec:	41b787bb          	subw	a5,a5,s11
   129f0:	f83e                	sd	a5,48(sp)
   129f2:	77a2                	ld	a5,40(sp)
   129f4:	5775                	li	a4,-3
   129f6:	00e7c463          	blt	a5,a4,129fe <_vfprintf_r+0x1792>
   129fa:	0cfb5763          	bge	s6,a5,12ac8 <_vfprintf_r+0x185c>
   129fe:	77a2                	ld	a5,40(sp)
   12a00:	3379                	addw	t1,t1,-2
   12a02:	fff7871b          	addw	a4,a5,-1
   12a06:	dd3a                	sw	a4,184(sp)
   12a08:	0ff37693          	zext.b	a3,t1
   12a0c:	4601                	li	a2,0
   12a0e:	e83fe06f          	j	11890 <_vfprintf_r+0x624>
   12a12:	77e2                	ld	a5,56(sp)
   12a14:	00a7c583          	lbu	a1,10(a5)
   12a18:	feb68fa3          	sb	a1,-1(a3)
   12a1c:	e45fe06f          	j	11860 <_vfprintf_r+0x5f4>
   12a20:	0af14703          	lbu	a4,175(sp)
   12a24:	4b01                	li	s6,0
   12a26:	c319                	beqz	a4,12a2c <_vfprintf_r+0x17c0>
   12a28:	ba1fe06f          	j	115c8 <_vfprintf_r+0x35c>
   12a2c:	9dbfe06f          	j	11406 <_vfprintf_r+0x19a>
   12a30:	875a                	mv	a4,s6
   12a32:	468d                	li	a3,3
   12a34:	75a2                	ld	a1,40(sp)
   12a36:	6522                	ld	a0,8(sp)
   12a38:	8676                	mv	a2,t4
   12a3a:	0c810893          	add	a7,sp,200
   12a3e:	0bc10813          	add	a6,sp,188
   12a42:	193c                	add	a5,sp,184
   12a44:	e09a                	sd	t1,64(sp)
   12a46:	fc3a                	sd	a4,56(sp)
   12a48:	f876                	sd	t4,48(sp)
   12a4a:	2ce020ef          	jal	14d18 <_ldtoa_r>
   12a4e:	7ec2                	ld	t4,48(sp)
   12a50:	7762                	ld	a4,56(sp)
   12a52:	6306                	ld	t1,64(sp)
   12a54:	8daa                	mv	s11,a0
   12a56:	fdf37b93          	and	s7,t1,-33
   12a5a:	04600693          	li	a3,70
   12a5e:	00ed8cb3          	add	s9,s11,a4
   12a62:	00db9a63          	bne	s7,a3,12a76 <_vfprintf_r+0x180a>
   12a66:	000dc603          	lbu	a2,0(s11)
   12a6a:	03000693          	li	a3,48
   12a6e:	2ad60d63          	beq	a2,a3,12d28 <_vfprintf_r+0x1abc>
   12a72:	56ea                	lw	a3,184(sp)
   12a74:	9cb6                	add	s9,s9,a3
   12a76:	7522                	ld	a0,40(sp)
   12a78:	4601                	li	a2,0
   12a7a:	4681                	li	a3,0
   12a7c:	85f6                	mv	a1,t4
   12a7e:	f81a                	sd	t1,48(sp)
   12a80:	3d6050ef          	jal	17e56 <__eqtf2>
   12a84:	7342                	ld	t1,48(sp)
   12a86:	14050263          	beqz	a0,12bca <_vfprintf_r+0x195e>
   12a8a:	67ae                	ld	a5,200(sp)
   12a8c:	0197fc63          	bgeu	a5,s9,12aa4 <_vfprintf_r+0x1838>
   12a90:	03000693          	li	a3,48
   12a94:	00178713          	add	a4,a5,1
   12a98:	e5ba                	sd	a4,200(sp)
   12a9a:	00d78023          	sb	a3,0(a5)
   12a9e:	67ae                	ld	a5,200(sp)
   12aa0:	ff97eae3          	bltu	a5,s9,12a94 <_vfprintf_r+0x1828>
   12aa4:	576a                	lw	a4,184(sp)
   12aa6:	f43a                	sd	a4,40(sp)
   12aa8:	41b787bb          	subw	a5,a5,s11
   12aac:	04700713          	li	a4,71
   12ab0:	f83e                	sd	a5,48(sp)
   12ab2:	f4eb80e3          	beq	s7,a4,129f2 <_vfprintf_r+0x1786>
   12ab6:	04600713          	li	a4,70
   12aba:	16eb8a63          	beq	s7,a4,12c2e <_vfprintf_r+0x19c2>
   12abe:	77a2                	ld	a5,40(sp)
   12ac0:	fff7871b          	addw	a4,a5,-1
   12ac4:	dd3a                	sw	a4,184(sp)
   12ac6:	b789                	j	12a08 <_vfprintf_r+0x179c>
   12ac8:	77c2                	ld	a5,48(sp)
   12aca:	7722                	ld	a4,40(sp)
   12acc:	18f74b63          	blt	a4,a5,12c62 <_vfprintf_r+0x19f6>
   12ad0:	77a2                	ld	a5,40(sp)
   12ad2:	001d7713          	and	a4,s10,1
   12ad6:	86be                	mv	a3,a5
   12ad8:	c701                	beqz	a4,12ae0 <_vfprintf_r+0x1874>
   12ada:	6726                	ld	a4,72(sp)
   12adc:	00f706bb          	addw	a3,a4,a5
   12ae0:	400d7e13          	and	t3,s10,1024
   12ae4:	000e0563          	beqz	t3,12aee <_vfprintf_r+0x1882>
   12ae8:	77a2                	ld	a5,40(sp)
   12aea:	26f04463          	bgtz	a5,12d52 <_vfprintf_r+0x1ae6>
   12aee:	fff6c813          	not	a6,a3
   12af2:	43f85813          	sra	a6,a6,0x3f
   12af6:	0106f833          	and	a6,a3,a6
   12afa:	00080b9b          	sext.w	s7,a6
   12afe:	8d52                	mv	s10,s4
   12b00:	06700313          	li	t1,103
   12b04:	e082                	sd	zero,64(sp)
   12b06:	fc02                	sd	zero,56(sp)
   12b08:	e41fe06f          	j	11948 <_vfprintf_r+0x6dc>
   12b0c:	8d3a                	mv	s10,a4
   12b0e:	ec02                	sd	zero,24(sp)
   12b10:	0f810d93          	add	s11,sp,248
   12b14:	577d                	li	a4,-1
   12b16:	177e                	sll	a4,a4,0x3f
   12b18:	02d00793          	li	a5,45
   12b1c:	00eeceb3          	xor	t4,t4,a4
   12b20:	f0be                	sd	a5,96(sp)
   12b22:	ba9fe06f          	j	116ca <_vfprintf_r+0x45e>
   12b26:	1190                	add	a2,sp,224
   12b28:	85a6                	mv	a1,s1
   12b2a:	8556                	mv	a0,s5
   12b2c:	4c2000ef          	jal	12fee <__sprint_r>
   12b30:	be051e63          	bnez	a0,11f2c <_vfprintf_r+0xcc0>
   12b34:	000cc583          	lbu	a1,0(s9)
   12b38:	764e                	ld	a2,240(sp)
   12b3a:	87ce                	mv	a5,s3
   12b3c:	4741                	li	a4,16
   12b3e:	469d                	li	a3,7
   12b40:	9d2e                	add	s10,s10,a1
   12b42:	b1d5                	j	12826 <_vfprintf_r+0x15ba>
   12b44:	02d00793          	li	a5,45
   12b48:	0af107a3          	sb	a5,175(sp)
   12b4c:	02d00713          	li	a4,45
   12b50:	b449                	j	125d2 <_vfprintf_r+0x1366>
   12b52:	88da                	mv	a7,s6
   12b54:	8b26                	mv	s6,s1
   12b56:	84d6                	mv	s1,s5
   12b58:	7aa2                	ld	s5,40(sp)
   12b5a:	bc3d                	j	12598 <_vfprintf_r+0x132c>
   12b5c:	0af14703          	lbu	a4,175(sp)
   12b60:	f066                	sd	s9,32(sp)
   12b62:	e082                	sd	zero,64(sp)
   12b64:	fc02                	sd	zero,56(sp)
   12b66:	f402                	sd	zero,40(sp)
   12b68:	8bda                	mv	s7,s6
   12b6a:	86da                	mv	a3,s6
   12b6c:	4b01                	li	s6,0
   12b6e:	c319                	beqz	a4,12b74 <_vfprintf_r+0x1908>
   12b70:	a59fe06f          	j	115c8 <_vfprintf_r+0x35c>
   12b74:	893fe06f          	j	11406 <_vfprintf_r+0x19a>
   12b78:	75a2                	ld	a1,40(sp)
   12b7a:	6522                	ld	a0,8(sp)
   12b7c:	875a                	mv	a4,s6
   12b7e:	8676                	mv	a2,t4
   12b80:	0c810893          	add	a7,sp,200
   12b84:	0bc10813          	add	a6,sp,188
   12b88:	193c                	add	a5,sp,184
   12b8a:	4689                	li	a3,2
   12b8c:	fc1a                	sd	t1,56(sp)
   12b8e:	f876                	sd	t4,48(sp)
   12b90:	188020ef          	jal	14d18 <_ldtoa_r>
   12b94:	001d7713          	and	a4,s10,1
   12b98:	7ec2                	ld	t4,48(sp)
   12b9a:	7362                	ld	t1,56(sp)
   12b9c:	8daa                	mv	s11,a0
   12b9e:	e40704e3          	beqz	a4,129e6 <_vfprintf_r+0x177a>
   12ba2:	016d8cb3          	add	s9,s11,s6
   12ba6:	04700b93          	li	s7,71
   12baa:	b5f1                	j	12a76 <_vfprintf_r+0x180a>
   12bac:	6522                	ld	a0,8(sp)
   12bae:	1190                	add	a2,sp,224
   12bb0:	85a6                	mv	a1,s1
   12bb2:	43c000ef          	jal	12fee <__sprint_r>
   12bb6:	b6051b63          	bnez	a0,11f2c <_vfprintf_r+0xcc0>
   12bba:	56ea                	lw	a3,184(sp)
   12bbc:	77c2                	ld	a5,48(sp)
   12bbe:	7a4e                	ld	s4,240(sp)
   12bc0:	894e                	mv	s2,s3
   12bc2:	40d786bb          	subw	a3,a5,a3
   12bc6:	d92ff06f          	j	12158 <_vfprintf_r+0xeec>
   12bca:	57ea                	lw	a5,184(sp)
   12bcc:	f43e                	sd	a5,40(sp)
   12bce:	87e6                	mv	a5,s9
   12bd0:	bde1                	j	12aa8 <_vfprintf_r+0x183c>
   12bd2:	8bea                	mv	s7,s10
   12bd4:	b76ff06f          	j	11f4a <_vfprintf_r+0xcde>
   12bd8:	5741                	li	a4,-16
   12bda:	40b00b3b          	negw	s6,a1
   12bde:	00006897          	auipc	a7,0x6
   12be2:	76288893          	add	a7,a7,1890 # 19340 <zeroes.0>
   12be6:	0ae5da63          	bge	a1,a4,12c9a <_vfprintf_r+0x1a2e>
   12bea:	f456                	sd	s5,40(sp)
   12bec:	4a41                	li	s4,16
   12bee:	4c9d                	li	s9,7
   12bf0:	8ac6                	mv	s5,a7
   12bf2:	a021                	j	12bfa <_vfprintf_r+0x198e>
   12bf4:	3b41                	addw	s6,s6,-16
   12bf6:	0b6a5063          	bge	s4,s6,12c96 <_vfprintf_r+0x1a2a>
   12bfa:	2685                	addw	a3,a3,1
   12bfc:	0641                	add	a2,a2,16
   12bfe:	01593023          	sd	s5,0(s2)
   12c02:	01493423          	sd	s4,8(s2)
   12c06:	f9b2                	sd	a2,240(sp)
   12c08:	d5b6                	sw	a3,232(sp)
   12c0a:	0941                	add	s2,s2,16
   12c0c:	fedcd4e3          	bge	s9,a3,12bf4 <_vfprintf_r+0x1988>
   12c10:	6522                	ld	a0,8(sp)
   12c12:	1190                	add	a2,sp,224
   12c14:	85a6                	mv	a1,s1
   12c16:	3d8000ef          	jal	12fee <__sprint_r>
   12c1a:	b0051963          	bnez	a0,11f2c <_vfprintf_r+0xcc0>
   12c1e:	764e                	ld	a2,240(sp)
   12c20:	56ae                	lw	a3,232(sp)
   12c22:	894e                	mv	s2,s3
   12c24:	bfc1                	j	12bf4 <_vfprintf_r+0x1988>
   12c26:	65e2                	ld	a1,24(sp)
   12c28:	84ca                	mv	s1,s2
   12c2a:	b04ff06f          	j	11f2e <_vfprintf_r+0xcc2>
   12c2e:	77a2                	ld	a5,40(sp)
   12c30:	001d7713          	and	a4,s10,1
   12c34:	00eb6733          	or	a4,s6,a4
   12c38:	1ef05463          	blez	a5,12e20 <_vfprintf_r+0x1bb4>
   12c3c:	1a071f63          	bnez	a4,12dfa <_vfprintf_r+0x1b8e>
   12c40:	76a2                	ld	a3,40(sp)
   12c42:	06600313          	li	t1,102
   12c46:	400d7e13          	and	t3,s10,1024
   12c4a:	100e1663          	bnez	t3,12d56 <_vfprintf_r+0x1aea>
   12c4e:	fff6c813          	not	a6,a3
   12c52:	43f85813          	sra	a6,a6,0x3f
   12c56:	0106f833          	and	a6,a3,a6
   12c5a:	00080b9b          	sext.w	s7,a6
   12c5e:	8d52                	mv	s10,s4
   12c60:	b555                	j	12b04 <_vfprintf_r+0x1898>
   12c62:	67a6                	ld	a5,72(sp)
   12c64:	7742                	ld	a4,48(sp)
   12c66:	06700313          	li	t1,103
   12c6a:	00e786bb          	addw	a3,a5,a4
   12c6e:	77a2                	ld	a5,40(sp)
   12c70:	fcf04be3          	bgtz	a5,12c46 <_vfprintf_r+0x19da>
   12c74:	40f6873b          	subw	a4,a3,a5
   12c78:	2705                	addw	a4,a4,1
   12c7a:	0007069b          	sext.w	a3,a4
   12c7e:	fff6c613          	not	a2,a3
   12c82:	967d                	sra	a2,a2,0x3f
   12c84:	8f71                	and	a4,a4,a2
   12c86:	00070b9b          	sext.w	s7,a4
   12c8a:	8d52                	mv	s10,s4
   12c8c:	bda5                	j	12b04 <_vfprintf_r+0x1898>
   12c8e:	57fd                	li	a5,-1
   12c90:	e83e                	sd	a5,16(sp)
   12c92:	883fe06f          	j	11514 <_vfprintf_r+0x2a8>
   12c96:	88d6                	mv	a7,s5
   12c98:	7aa2                	ld	s5,40(sp)
   12c9a:	2685                	addw	a3,a3,1
   12c9c:	965a                	add	a2,a2,s6
   12c9e:	01193023          	sd	a7,0(s2)
   12ca2:	01693423          	sd	s6,8(s2)
   12ca6:	f9b2                	sd	a2,240(sp)
   12ca8:	d5b6                	sw	a3,232(sp)
   12caa:	471d                	li	a4,7
   12cac:	8ad756e3          	bge	a4,a3,12558 <_vfprintf_r+0x12ec>
   12cb0:	6522                	ld	a0,8(sp)
   12cb2:	1190                	add	a2,sp,224
   12cb4:	85a6                	mv	a1,s1
   12cb6:	338000ef          	jal	12fee <__sprint_r>
   12cba:	a6051963          	bnez	a0,11f2c <_vfprintf_r+0xcc0>
   12cbe:	764e                	ld	a2,240(sp)
   12cc0:	56ae                	lw	a3,232(sp)
   12cc2:	894e                	mv	s2,s3
   12cc4:	b245                	j	12664 <_vfprintf_r+0x13f8>
   12cc6:	0c210693          	add	a3,sp,194
   12cca:	e619                	bnez	a2,12cd8 <_vfprintf_r+0x1a6c>
   12ccc:	03000693          	li	a3,48
   12cd0:	0cd10123          	sb	a3,194(sp)
   12cd4:	0c310693          	add	a3,sp,195
   12cd8:	139c                	add	a5,sp,480
   12cda:	40f68633          	sub	a2,a3,a5
   12cde:	0307071b          	addw	a4,a4,48
   12ce2:	1216079b          	addw	a5,a2,289
   12ce6:	00e68023          	sb	a4,0(a3)
   12cea:	f4be                	sd	a5,104(sp)
   12cec:	c23fe06f          	j	1190e <_vfprintf_r+0x6a2>
   12cf0:	001b071b          	addw	a4,s6,1
   12cf4:	4689                	li	a3,2
   12cf6:	bb3d                	j	12a34 <_vfprintf_r+0x17c8>
   12cf8:	c31c                	sw	a5,0(a4)
   12cfa:	fadfe06f          	j	11ca6 <_vfprintf_r+0xa3a>
   12cfe:	ec02                	sd	zero,24(sp)
   12d00:	4b19                	li	s6,6
   12d02:	9b1fe06f          	j	116b2 <_vfprintf_r+0x446>
   12d06:	f03a                	sd	a4,32(sp)
   12d08:	a42ff06f          	j	11f4a <_vfprintf_r+0xcde>
   12d0c:	000b0463          	beqz	s6,12d14 <_vfprintf_r+0x1aa8>
   12d10:	9a3fe06f          	j	116b2 <_vfprintf_r+0x446>
   12d14:	4b05                	li	s6,1
   12d16:	99dfe06f          	j	116b2 <_vfprintf_r+0x446>
   12d1a:	001d7613          	and	a2,s10,1
   12d1e:	e219                	bnez	a2,12d24 <_vfprintf_r+0x1ab8>
   12d20:	c09fe06f          	j	11928 <_vfprintf_r+0x6bc>
   12d24:	bfffe06f          	j	11922 <_vfprintf_r+0x6b6>
   12d28:	7522                	ld	a0,40(sp)
   12d2a:	85f6                	mv	a1,t4
   12d2c:	4601                	li	a2,0
   12d2e:	4681                	li	a3,0
   12d30:	e09a                	sd	t1,64(sp)
   12d32:	fc3a                	sd	a4,56(sp)
   12d34:	f876                	sd	t4,48(sp)
   12d36:	120050ef          	jal	17e56 <__eqtf2>
   12d3a:	7ec2                	ld	t4,48(sp)
   12d3c:	7762                	ld	a4,56(sp)
   12d3e:	6306                	ld	t1,64(sp)
   12d40:	e561                	bnez	a0,12e08 <_vfprintf_r+0x1b9c>
   12d42:	57ea                	lw	a5,184(sp)
   12d44:	00fc8833          	add	a6,s9,a5
   12d48:	f43e                	sd	a5,40(sp)
   12d4a:	41b807bb          	subw	a5,a6,s11
   12d4e:	f83e                	sd	a5,48(sp)
   12d50:	b39d                	j	12ab6 <_vfprintf_r+0x184a>
   12d52:	06700313          	li	t1,103
   12d56:	77e6                	ld	a5,120(sp)
   12d58:	0ff00613          	li	a2,255
   12d5c:	0007c703          	lbu	a4,0(a5)
   12d60:	10c70663          	beq	a4,a2,12e6c <_vfprintf_r+0x1c00>
   12d64:	863e                	mv	a2,a5
   12d66:	77a2                	ld	a5,40(sp)
   12d68:	4881                	li	a7,0
   12d6a:	4801                	li	a6,0
   12d6c:	0ff00593          	li	a1,255
   12d70:	0007051b          	sext.w	a0,a4
   12d74:	00f75a63          	bge	a4,a5,12d88 <_vfprintf_r+0x1b1c>
   12d78:	00164703          	lbu	a4,1(a2)
   12d7c:	9f89                	subw	a5,a5,a0
   12d7e:	cb1d                	beqz	a4,12db4 <_vfprintf_r+0x1b48>
   12d80:	2805                	addw	a6,a6,1
   12d82:	0605                	add	a2,a2,1
   12d84:	feb716e3          	bne	a4,a1,12d70 <_vfprintf_r+0x1b04>
   12d88:	fcb2                	sd	a2,120(sp)
   12d8a:	fc42                	sd	a6,56(sp)
   12d8c:	e0c6                	sd	a7,64(sp)
   12d8e:	f43e                	sd	a5,40(sp)
   12d90:	6786                	ld	a5,64(sp)
   12d92:	7762                	ld	a4,56(sp)
   12d94:	8d52                	mv	s10,s4
   12d96:	9f3d                	addw	a4,a4,a5
   12d98:	678a                	ld	a5,128(sp)
   12d9a:	02f7073b          	mulw	a4,a4,a5
   12d9e:	9f35                	addw	a4,a4,a3
   12da0:	0007069b          	sext.w	a3,a4
   12da4:	fff6c613          	not	a2,a3
   12da8:	967d                	sra	a2,a2,0x3f
   12daa:	8f71                	and	a4,a4,a2
   12dac:	00070b9b          	sext.w	s7,a4
   12db0:	b99fe06f          	j	11948 <_vfprintf_r+0x6dc>
   12db4:	00064703          	lbu	a4,0(a2)
   12db8:	2885                	addw	a7,a7,1
   12dba:	b7e9                	j	12d84 <_vfprintf_r+0x1b18>
   12dbc:	66ca                	ld	a3,144(sp)
   12dbe:	84de                	mv	s1,s7
   12dc0:	8bca                	mv	s7,s2
   12dc2:	00dd86bb          	addw	a3,s11,a3
   12dc6:	417686bb          	subw	a3,a3,s7
   12dca:	02069613          	sll	a2,a3,0x20
   12dce:	6a86                	ld	s5,64(sp)
   12dd0:	7326                	ld	t1,104(sp)
   12dd2:	692a                	ld	s2,136(sp)
   12dd4:	00065463          	bgez	a2,12ddc <_vfprintf_r+0x1b70>
   12dd8:	a89fe06f          	j	11860 <_vfprintf_r+0x5f4>
   12ddc:	2685                	addw	a3,a3,1
   12dde:	96de                	add	a3,a3,s7
   12de0:	03000613          	li	a2,48
   12de4:	0b85                	add	s7,s7,1
   12de6:	fecb8fa3          	sb	a2,-1(s7)
   12dea:	fedb9de3          	bne	s7,a3,12de4 <_vfprintf_r+0x1b78>
   12dee:	a75fe06f          	j	11862 <_vfprintf_r+0x5f6>
   12df2:	65e2                	ld	a1,24(sp)
   12df4:	84d6                	mv	s1,s5
   12df6:	938ff06f          	j	11f2e <_vfprintf_r+0xcc2>
   12dfa:	6726                	ld	a4,72(sp)
   12dfc:	06600313          	li	t1,102
   12e00:	016706bb          	addw	a3,a4,s6
   12e04:	9ebd                	addw	a3,a3,a5
   12e06:	b581                	j	12c46 <_vfprintf_r+0x19da>
   12e08:	4685                	li	a3,1
   12e0a:	9e99                	subw	a3,a3,a4
   12e0c:	dd36                	sw	a3,184(sp)
   12e0e:	b19d                	j	12a74 <_vfprintf_r+0x1808>
   12e10:	07000693          	li	a3,112
   12e14:	a7bfe06f          	j	1188e <_vfprintf_r+0x622>
   12e18:	4789                	li	a5,2
   12e1a:	f4be                	sd	a5,104(sp)
   12e1c:	af3fe06f          	j	1190e <_vfprintf_r+0x6a2>
   12e20:	e719                	bnez	a4,12e2e <_vfprintf_r+0x1bc2>
   12e22:	8d52                	mv	s10,s4
   12e24:	4b85                	li	s7,1
   12e26:	06600313          	li	t1,102
   12e2a:	4685                	li	a3,1
   12e2c:	b9e1                	j	12b04 <_vfprintf_r+0x1898>
   12e2e:	67a6                	ld	a5,72(sp)
   12e30:	8d52                	mv	s10,s4
   12e32:	06600313          	li	t1,102
   12e36:	0017871b          	addw	a4,a5,1
   12e3a:	0167073b          	addw	a4,a4,s6
   12e3e:	0007069b          	sext.w	a3,a4
   12e42:	fff6c613          	not	a2,a3
   12e46:	967d                	sra	a2,a2,0x3f
   12e48:	8f71                	and	a4,a4,a2
   12e4a:	00070b9b          	sext.w	s7,a4
   12e4e:	b95d                	j	12b04 <_vfprintf_r+0x1898>
   12e50:	7682                	ld	a3,32(sp)
   12e52:	429c                	lw	a5,0(a3)
   12e54:	06a1                	add	a3,a3,8
   12e56:	00078b1b          	sext.w	s6,a5
   12e5a:	0007d363          	bgez	a5,12e60 <_vfprintf_r+0x1bf4>
   12e5e:	5b7d                	li	s6,-1
   12e60:	001ac303          	lbu	t1,1(s5)
   12e64:	f036                	sd	a3,32(sp)
   12e66:	8aba                	mv	s5,a4
   12e68:	d22fe06f          	j	1138a <_vfprintf_r+0x11e>
   12e6c:	e082                	sd	zero,64(sp)
   12e6e:	fc02                	sd	zero,56(sp)
   12e70:	b705                	j	12d90 <_vfprintf_r+0x1b24>
   12e72:	0104d783          	lhu	a5,16(s1)
   12e76:	0407e793          	or	a5,a5,64
   12e7a:	00f49823          	sh	a5,16(s1)
   12e7e:	e6afe06f          	j	114e8 <_vfprintf_r+0x27c>
   12e82:	875a                	mv	a4,s6
   12e84:	bec9                	j	12a56 <_vfprintf_r+0x17ea>

0000000000012e86 <vfprintf>:
   12e86:	86b2                	mv	a3,a2
   12e88:	862e                	mv	a2,a1
   12e8a:	85aa                	mv	a1,a0
   12e8c:	2201b503          	ld	a0,544(gp) # 1b458 <_impure_ptr>
   12e90:	bdcfe06f          	j	1126c <_vfprintf_r>

0000000000012e94 <__sbprintf>:
   12e94:	b3010113          	add	sp,sp,-1232
   12e98:	0125d703          	lhu	a4,18(a1)
   12e9c:	0105d783          	lhu	a5,16(a1)
   12ea0:	4c813023          	sd	s0,1216(sp)
   12ea4:	842e                	mv	s0,a1
   12ea6:	65c1                	lui	a1,0x10
   12ea8:	35f5                	addw	a1,a1,-3 # fffd <exit-0xeb>
   12eaa:	0ac42e03          	lw	t3,172(s0)
   12eae:	03043303          	ld	t1,48(s0)
   12eb2:	04043883          	ld	a7,64(s0)
   12eb6:	0107171b          	sllw	a4,a4,0x10
   12eba:	8fed                	and	a5,a5,a1
   12ebc:	8fd9                	or	a5,a5,a4
   12ebe:	40000813          	li	a6,1024
   12ec2:	c83e                	sw	a5,16(sp)
   12ec4:	858a                	mv	a1,sp
   12ec6:	191c                	add	a5,sp,176
   12ec8:	4a913c23          	sd	s1,1208(sp)
   12ecc:	4b213823          	sd	s2,1200(sp)
   12ed0:	4c113423          	sd	ra,1224(sp)
   12ed4:	892a                	mv	s2,a0
   12ed6:	d772                	sw	t3,172(sp)
   12ed8:	f81a                	sd	t1,48(sp)
   12eda:	e0c6                	sd	a7,64(sp)
   12edc:	e03e                	sd	a5,0(sp)
   12ede:	ec3e                	sd	a5,24(sp)
   12ee0:	c642                	sw	a6,12(sp)
   12ee2:	d042                	sw	a6,32(sp)
   12ee4:	d402                	sw	zero,40(sp)
   12ee6:	b86fe0ef          	jal	1126c <_vfprintf_r>
   12eea:	84aa                	mv	s1,a0
   12eec:	02055963          	bgez	a0,12f1e <__sbprintf+0x8a>
   12ef0:	01015783          	lhu	a5,16(sp)
   12ef4:	0407f793          	and	a5,a5,64
   12ef8:	c799                	beqz	a5,12f06 <__sbprintf+0x72>
   12efa:	01045783          	lhu	a5,16(s0)
   12efe:	0407e793          	or	a5,a5,64
   12f02:	00f41823          	sh	a5,16(s0)
   12f06:	4c813083          	ld	ra,1224(sp)
   12f0a:	4c013403          	ld	s0,1216(sp)
   12f0e:	4b013903          	ld	s2,1200(sp)
   12f12:	8526                	mv	a0,s1
   12f14:	4b813483          	ld	s1,1208(sp)
   12f18:	4d010113          	add	sp,sp,1232
   12f1c:	8082                	ret
   12f1e:	858a                	mv	a1,sp
   12f20:	854a                	mv	a0,s2
   12f22:	0d8010ef          	jal	13ffa <_fflush_r>
   12f26:	d569                	beqz	a0,12ef0 <__sbprintf+0x5c>
   12f28:	54fd                	li	s1,-1
   12f2a:	b7d9                	j	12ef0 <__sbprintf+0x5c>

0000000000012f2c <__sprint_r.part.0>:
   12f2c:	0ac5a783          	lw	a5,172(a1)
   12f30:	715d                	add	sp,sp,-80
   12f32:	ec56                	sd	s5,24(sp)
   12f34:	e486                	sd	ra,72(sp)
   12f36:	03279713          	sll	a4,a5,0x32
   12f3a:	8ab2                	mv	s5,a2
   12f3c:	08075f63          	bgez	a4,12fda <__sprint_r.part.0+0xae>
   12f40:	6a1c                	ld	a5,16(a2)
   12f42:	f84a                	sd	s2,48(sp)
   12f44:	f44e                	sd	s3,40(sp)
   12f46:	f052                	sd	s4,32(sp)
   12f48:	e85a                	sd	s6,16(sp)
   12f4a:	892e                	mv	s2,a1
   12f4c:	00063b03          	ld	s6,0(a2)
   12f50:	89aa                	mv	s3,a0
   12f52:	5a7d                	li	s4,-1
   12f54:	cfad                	beqz	a5,12fce <__sprint_r.part.0+0xa2>
   12f56:	e0a2                	sd	s0,64(sp)
   12f58:	fc26                	sd	s1,56(sp)
   12f5a:	e45e                	sd	s7,8(sp)
   12f5c:	008b3483          	ld	s1,8(s6)
   12f60:	000b3403          	ld	s0,0(s6)
   12f64:	8089                	srl	s1,s1,0x2
   12f66:	00048b9b          	sext.w	s7,s1
   12f6a:	05705863          	blez	s7,12fba <__sprint_r.part.0+0x8e>
   12f6e:	34fd                	addw	s1,s1,-1
   12f70:	02049793          	sll	a5,s1,0x20
   12f74:	01e7d493          	srl	s1,a5,0x1e
   12f78:	00440793          	add	a5,s0,4
   12f7c:	94be                	add	s1,s1,a5
   12f7e:	a019                	j	12f84 <__sprint_r.part.0+0x58>
   12f80:	02848b63          	beq	s1,s0,12fb6 <__sprint_r.part.0+0x8a>
   12f84:	400c                	lw	a1,0(s0)
   12f86:	864a                	mv	a2,s2
   12f88:	854e                	mv	a0,s3
   12f8a:	5de010ef          	jal	14568 <_fputwc_r>
   12f8e:	2501                	sext.w	a0,a0
   12f90:	0411                	add	s0,s0,4
   12f92:	ff4517e3          	bne	a0,s4,12f80 <__sprint_r.part.0+0x54>
   12f96:	6406                	ld	s0,64(sp)
   12f98:	74e2                	ld	s1,56(sp)
   12f9a:	7942                	ld	s2,48(sp)
   12f9c:	79a2                	ld	s3,40(sp)
   12f9e:	7a02                	ld	s4,32(sp)
   12fa0:	6b42                	ld	s6,16(sp)
   12fa2:	6ba2                	ld	s7,8(sp)
   12fa4:	557d                	li	a0,-1
   12fa6:	60a6                	ld	ra,72(sp)
   12fa8:	000ab823          	sd	zero,16(s5)
   12fac:	000aa423          	sw	zero,8(s5)
   12fb0:	6ae2                	ld	s5,24(sp)
   12fb2:	6161                	add	sp,sp,80
   12fb4:	8082                	ret
   12fb6:	010ab783          	ld	a5,16(s5)
   12fba:	0b8a                	sll	s7,s7,0x2
   12fbc:	417787b3          	sub	a5,a5,s7
   12fc0:	00fab823          	sd	a5,16(s5)
   12fc4:	0b41                	add	s6,s6,16
   12fc6:	fbd9                	bnez	a5,12f5c <__sprint_r.part.0+0x30>
   12fc8:	6406                	ld	s0,64(sp)
   12fca:	74e2                	ld	s1,56(sp)
   12fcc:	6ba2                	ld	s7,8(sp)
   12fce:	7942                	ld	s2,48(sp)
   12fd0:	79a2                	ld	s3,40(sp)
   12fd2:	7a02                	ld	s4,32(sp)
   12fd4:	6b42                	ld	s6,16(sp)
   12fd6:	4501                	li	a0,0
   12fd8:	b7f9                	j	12fa6 <__sprint_r.part.0+0x7a>
   12fda:	0ac010ef          	jal	14086 <__sfvwrite_r>
   12fde:	60a6                	ld	ra,72(sp)
   12fe0:	000ab823          	sd	zero,16(s5)
   12fe4:	000aa423          	sw	zero,8(s5)
   12fe8:	6ae2                	ld	s5,24(sp)
   12fea:	6161                	add	sp,sp,80
   12fec:	8082                	ret

0000000000012fee <__sprint_r>:
   12fee:	6a18                	ld	a4,16(a2)
   12ff0:	c311                	beqz	a4,12ff4 <__sprint_r+0x6>
   12ff2:	bf2d                	j	12f2c <__sprint_r.part.0>
   12ff4:	00062423          	sw	zero,8(a2)
   12ff8:	4501                	li	a0,0
   12ffa:	8082                	ret

0000000000012ffc <_vfiprintf_r>:
   12ffc:	7105                	add	sp,sp,-480
   12ffe:	fb52                	sd	s4,432(sp)
   13000:	f756                	sd	s5,424(sp)
   13002:	ef5e                	sd	s7,408(sp)
   13004:	e36a                	sd	s10,384(sp)
   13006:	ef86                	sd	ra,472(sp)
   13008:	e766                	sd	s9,392(sp)
   1300a:	8aaa                	mv	s5,a0
   1300c:	8a2e                	mv	s4,a1
   1300e:	8d32                	mv	s10,a2
   13010:	8bb6                	mv	s7,a3
   13012:	c501                	beqz	a0,1301a <_vfiprintf_r+0x1e>
   13014:	653c                	ld	a5,72(a0)
   13016:	3e0783e3          	beqz	a5,13bfc <_vfiprintf_r+0xc00>
   1301a:	010a1783          	lh	a5,16(s4)
   1301e:	03279693          	sll	a3,a5,0x32
   13022:	0206c163          	bltz	a3,13044 <_vfiprintf_r+0x48>
   13026:	0aca2683          	lw	a3,172(s4)
   1302a:	6589                	lui	a1,0x2
   1302c:	7679                	lui	a2,0xffffe
   1302e:	8fcd                	or	a5,a5,a1
   13030:	167d                	add	a2,a2,-1 # ffffffffffffdfff <__BSS_END__+0xfffffffffffe25c7>
   13032:	0107979b          	sllw	a5,a5,0x10
   13036:	4107d79b          	sraw	a5,a5,0x10
   1303a:	8ef1                	and	a3,a3,a2
   1303c:	00fa1823          	sh	a5,16(s4)
   13040:	0ada2623          	sw	a3,172(s4)
   13044:	0087f693          	and	a3,a5,8
   13048:	cef9                	beqz	a3,13126 <_vfiprintf_r+0x12a>
   1304a:	018a3683          	ld	a3,24(s4)
   1304e:	cee1                	beqz	a3,13126 <_vfiprintf_r+0x12a>
   13050:	8be9                	and	a5,a5,26
   13052:	46a9                	li	a3,10
   13054:	0ed78563          	beq	a5,a3,1313e <_vfiprintf_r+0x142>
   13058:	4c81                	li	s9,0
   1305a:	ff4e                	sd	s3,440(sp)
   1305c:	0f010993          	add	s3,sp,240
   13060:	eba2                	sd	s0,464(sp)
   13062:	e3ca                	sd	s2,448(sp)
   13064:	f35a                	sd	s6,416(sp)
   13066:	eb62                	sd	s8,400(sp)
   13068:	feee                	sd	s11,376(sp)
   1306a:	e7a6                	sd	s1,456(sp)
   1306c:	8de6                	mv	s11,s9
   1306e:	f8ce                	sd	s3,112(sp)
   13070:	e102                	sd	zero,128(sp)
   13072:	dc82                	sw	zero,120(sp)
   13074:	844e                	mv	s0,s3
   13076:	e402                	sd	zero,8(sp)
   13078:	fc02                	sd	zero,56(sp)
   1307a:	f802                	sd	zero,48(sp)
   1307c:	e082                	sd	zero,64(sp)
   1307e:	00006c17          	auipc	s8,0x6
   13082:	342c0c13          	add	s8,s8,834 # 193c0 <blanks.1+0x70>
   13086:	4941                	li	s2,16
   13088:	00006b17          	auipc	s6,0x6
   1308c:	4a8b0b13          	add	s6,s6,1192 # 19530 <zeroes.0>
   13090:	8cde                	mv	s9,s7
   13092:	000d4783          	lbu	a5,0(s10)
   13096:	24078463          	beqz	a5,132de <_vfiprintf_r+0x2e2>
   1309a:	84ea                	mv	s1,s10
   1309c:	02500713          	li	a4,37
   130a0:	2ae78563          	beq	a5,a4,1334a <_vfiprintf_r+0x34e>
   130a4:	0014c783          	lbu	a5,1(s1)
   130a8:	0485                	add	s1,s1,1
   130aa:	fbfd                	bnez	a5,130a0 <_vfiprintf_r+0xa4>
   130ac:	41a48bbb          	subw	s7,s1,s10
   130b0:	220b8763          	beqz	s7,132de <_vfiprintf_r+0x2e2>
   130b4:	57e6                	lw	a5,120(sp)
   130b6:	670a                	ld	a4,128(sp)
   130b8:	01a43023          	sd	s10,0(s0)
   130bc:	0017861b          	addw	a2,a5,1
   130c0:	975e                	add	a4,a4,s7
   130c2:	01743423          	sd	s7,8(s0)
   130c6:	e13a                	sd	a4,128(sp)
   130c8:	dcb2                	sw	a2,120(sp)
   130ca:	479d                	li	a5,7
   130cc:	0441                	add	s0,s0,16
   130ce:	00c7db63          	bge	a5,a2,130e4 <_vfiprintf_r+0xe8>
   130d2:	120702e3          	beqz	a4,139f6 <_vfiprintf_r+0x9fa>
   130d6:	1890                	add	a2,sp,112
   130d8:	85d2                	mv	a1,s4
   130da:	8556                	mv	a0,s5
   130dc:	e51ff0ef          	jal	12f2c <__sprint_r.part.0>
   130e0:	e559                	bnez	a0,1316e <_vfiprintf_r+0x172>
   130e2:	844e                	mv	s0,s3
   130e4:	0004c783          	lbu	a5,0(s1)
   130e8:	01bb8dbb          	addw	s11,s7,s11
   130ec:	1e078963          	beqz	a5,132de <_vfiprintf_r+0x2e2>
   130f0:	0014c783          	lbu	a5,1(s1)
   130f4:	00148d13          	add	s10,s1,1
   130f8:	060103a3          	sb	zero,103(sp)
   130fc:	54fd                	li	s1,-1
   130fe:	4881                	li	a7,0
   13100:	4801                	li	a6,0
   13102:	05a00b93          	li	s7,90
   13106:	0d05                	add	s10,s10,1
   13108:	2781                	sext.w	a5,a5
   1310a:	fe07871b          	addw	a4,a5,-32
   1310e:	0007069b          	sext.w	a3,a4
   13112:	0cdbe063          	bltu	s7,a3,131d2 <_vfiprintf_r+0x1d6>
   13116:	02071693          	sll	a3,a4,0x20
   1311a:	01e6d713          	srl	a4,a3,0x1e
   1311e:	9762                	add	a4,a4,s8
   13120:	4318                	lw	a4,0(a4)
   13122:	9762                	add	a4,a4,s8
   13124:	8702                	jr	a4
   13126:	85d2                	mv	a1,s4
   13128:	8556                	mv	a0,s5
   1312a:	2be010ef          	jal	143e8 <__swsetup_r>
   1312e:	3a051ae3          	bnez	a0,13ce2 <_vfiprintf_r+0xce6>
   13132:	010a1783          	lh	a5,16(s4)
   13136:	46a9                	li	a3,10
   13138:	8be9                	and	a5,a5,26
   1313a:	f0d79fe3          	bne	a5,a3,13058 <_vfiprintf_r+0x5c>
   1313e:	012a1783          	lh	a5,18(s4)
   13142:	f007cbe3          	bltz	a5,13058 <_vfiprintf_r+0x5c>
   13146:	60fe                	ld	ra,472(sp)
   13148:	6cba                	ld	s9,392(sp)
   1314a:	86de                	mv	a3,s7
   1314c:	866a                	mv	a2,s10
   1314e:	6bfa                	ld	s7,408(sp)
   13150:	6d1a                	ld	s10,384(sp)
   13152:	85d2                	mv	a1,s4
   13154:	8556                	mv	a0,s5
   13156:	7a5a                	ld	s4,432(sp)
   13158:	7aba                	ld	s5,424(sp)
   1315a:	613d                	add	sp,sp,480
   1315c:	3bf0006f          	j	13d1a <__sbprintf>
   13160:	1890                	add	a2,sp,112
   13162:	85d2                	mv	a1,s4
   13164:	8556                	mv	a0,s5
   13166:	dc7ff0ef          	jal	12f2c <__sprint_r.part.0>
   1316a:	16050463          	beqz	a0,132d2 <_vfiprintf_r+0x2d6>
   1316e:	8cee                	mv	s9,s11
   13170:	010a5783          	lhu	a5,16(s4)
   13174:	645e                	ld	s0,464(sp)
   13176:	64be                	ld	s1,456(sp)
   13178:	0407f793          	and	a5,a5,64
   1317c:	691e                	ld	s2,448(sp)
   1317e:	79fa                	ld	s3,440(sp)
   13180:	7b1a                	ld	s6,416(sp)
   13182:	6c5a                	ld	s8,400(sp)
   13184:	7df6                	ld	s11,376(sp)
   13186:	34079ee3          	bnez	a5,13ce2 <_vfiprintf_r+0xce6>
   1318a:	60fe                	ld	ra,472(sp)
   1318c:	7a5a                	ld	s4,432(sp)
   1318e:	7aba                	ld	s5,424(sp)
   13190:	6bfa                	ld	s7,408(sp)
   13192:	6d1a                	ld	s10,384(sp)
   13194:	8566                	mv	a0,s9
   13196:	6cba                	ld	s9,392(sp)
   13198:	613d                	add	sp,sp,480
   1319a:	8082                	ret
   1319c:	4881                	li	a7,0
   1319e:	4625                	li	a2,9
   131a0:	000d4683          	lbu	a3,0(s10)
   131a4:	0028971b          	sllw	a4,a7,0x2
   131a8:	011708bb          	addw	a7,a4,a7
   131ac:	fd07879b          	addw	a5,a5,-48
   131b0:	0018989b          	sllw	a7,a7,0x1
   131b4:	fd06871b          	addw	a4,a3,-48
   131b8:	011788bb          	addw	a7,a5,a7
   131bc:	0d05                	add	s10,s10,1
   131be:	0006879b          	sext.w	a5,a3
   131c2:	fce67fe3          	bgeu	a2,a4,131a0 <_vfiprintf_r+0x1a4>
   131c6:	fe07871b          	addw	a4,a5,-32
   131ca:	0007069b          	sext.w	a3,a4
   131ce:	f4dbf4e3          	bgeu	s7,a3,13116 <_vfiprintf_r+0x11a>
   131d2:	10078663          	beqz	a5,132de <_vfiprintf_r+0x2e2>
   131d6:	08f10423          	sb	a5,136(sp)
   131da:	060103a3          	sb	zero,103(sp)
   131de:	4305                	li	t1,1
   131e0:	4e05                	li	t3,1
   131e2:	08810b93          	add	s7,sp,136
   131e6:	4481                	li	s1,0
   131e8:	4f81                	li	t6,0
   131ea:	5666                	lw	a2,120(sp)
   131ec:	08487293          	and	t0,a6,132
   131f0:	678a                	ld	a5,128(sp)
   131f2:	0016051b          	addw	a0,a2,1
   131f6:	85aa                	mv	a1,a0
   131f8:	00029663          	bnez	t0,13204 <_vfiprintf_r+0x208>
   131fc:	4068873b          	subw	a4,a7,t1
   13200:	64e04d63          	bgtz	a4,1385a <_vfiprintf_r+0x85e>
   13204:	06714703          	lbu	a4,103(sp)
   13208:	cf19                	beqz	a4,13226 <_vfiprintf_r+0x22a>
   1320a:	06710713          	add	a4,sp,103
   1320e:	0785                	add	a5,a5,1
   13210:	e018                	sd	a4,0(s0)
   13212:	4705                	li	a4,1
   13214:	e418                	sd	a4,8(s0)
   13216:	e13e                	sd	a5,128(sp)
   13218:	dcaa                	sw	a0,120(sp)
   1321a:	471d                	li	a4,7
   1321c:	5aa74e63          	blt	a4,a0,137d8 <_vfiprintf_r+0x7dc>
   13220:	862a                	mv	a2,a0
   13222:	0441                	add	s0,s0,16
   13224:	2505                	addw	a0,a0,1
   13226:	040f8363          	beqz	t6,1326c <_vfiprintf_r+0x270>
   1322a:	10b8                	add	a4,sp,104
   1322c:	0789                	add	a5,a5,2
   1322e:	e018                	sd	a4,0(s0)
   13230:	4709                	li	a4,2
   13232:	e418                	sd	a4,8(s0)
   13234:	e13e                	sd	a5,128(sp)
   13236:	dcaa                	sw	a0,120(sp)
   13238:	471d                	li	a4,7
   1323a:	5ea75163          	bge	a4,a0,1381c <_vfiprintf_r+0x820>
   1323e:	7c078063          	beqz	a5,139fe <_vfiprintf_r+0xa02>
   13242:	1890                	add	a2,sp,112
   13244:	85d2                	mv	a1,s4
   13246:	8556                	mv	a0,s5
   13248:	e49a                	sd	t1,72(sp)
   1324a:	f442                	sd	a6,40(sp)
   1324c:	f046                	sd	a7,32(sp)
   1324e:	ec72                	sd	t3,24(sp)
   13250:	e816                	sd	t0,16(sp)
   13252:	cdbff0ef          	jal	12f2c <__sprint_r.part.0>
   13256:	fd01                	bnez	a0,1316e <_vfiprintf_r+0x172>
   13258:	5666                	lw	a2,120(sp)
   1325a:	678a                	ld	a5,128(sp)
   1325c:	6326                	ld	t1,72(sp)
   1325e:	7822                	ld	a6,40(sp)
   13260:	7882                	ld	a7,32(sp)
   13262:	6e62                	ld	t3,24(sp)
   13264:	62c2                	ld	t0,16(sp)
   13266:	844e                	mv	s0,s3
   13268:	0016051b          	addw	a0,a2,1
   1326c:	08000713          	li	a4,128
   13270:	40e28263          	beq	t0,a4,13674 <_vfiprintf_r+0x678>
   13274:	41c484bb          	subw	s1,s1,t3
   13278:	4c904363          	bgtz	s1,1373e <_vfiprintf_r+0x742>
   1327c:	97f2                	add	a5,a5,t3
   1327e:	01743023          	sd	s7,0(s0)
   13282:	01c43423          	sd	t3,8(s0)
   13286:	e13e                	sd	a5,128(sp)
   13288:	dcaa                	sw	a0,120(sp)
   1328a:	471d                	li	a4,7
   1328c:	3ea75263          	bge	a4,a0,13670 <_vfiprintf_r+0x674>
   13290:	66078a63          	beqz	a5,13904 <_vfiprintf_r+0x908>
   13294:	1890                	add	a2,sp,112
   13296:	85d2                	mv	a1,s4
   13298:	8556                	mv	a0,s5
   1329a:	f01a                	sd	t1,32(sp)
   1329c:	ec42                	sd	a6,24(sp)
   1329e:	e846                	sd	a7,16(sp)
   132a0:	c8dff0ef          	jal	12f2c <__sprint_r.part.0>
   132a4:	ec0515e3          	bnez	a0,1316e <_vfiprintf_r+0x172>
   132a8:	678a                	ld	a5,128(sp)
   132aa:	7302                	ld	t1,32(sp)
   132ac:	6862                	ld	a6,24(sp)
   132ae:	68c2                	ld	a7,16(sp)
   132b0:	844e                	mv	s0,s3
   132b2:	00487813          	and	a6,a6,4
   132b6:	00080663          	beqz	a6,132c2 <_vfiprintf_r+0x2c6>
   132ba:	406884bb          	subw	s1,a7,t1
   132be:	64904d63          	bgtz	s1,13918 <_vfiprintf_r+0x91c>
   132c2:	8746                	mv	a4,a7
   132c4:	0068d363          	bge	a7,t1,132ca <_vfiprintf_r+0x2ce>
   132c8:	871a                	mv	a4,t1
   132ca:	01b70dbb          	addw	s11,a4,s11
   132ce:	e80799e3          	bnez	a5,13160 <_vfiprintf_r+0x164>
   132d2:	000d4783          	lbu	a5,0(s10)
   132d6:	dc82                	sw	zero,120(sp)
   132d8:	844e                	mv	s0,s3
   132da:	dc0790e3          	bnez	a5,1309a <_vfiprintf_r+0x9e>
   132de:	678a                	ld	a5,128(sp)
   132e0:	8cee                	mv	s9,s11
   132e2:	e80787e3          	beqz	a5,13170 <_vfiprintf_r+0x174>
   132e6:	1890                	add	a2,sp,112
   132e8:	85d2                	mv	a1,s4
   132ea:	8556                	mv	a0,s5
   132ec:	c41ff0ef          	jal	12f2c <__sprint_r.part.0>
   132f0:	b541                	j	13170 <_vfiprintf_r+0x174>
   132f2:	01086813          	or	a6,a6,16
   132f6:	000d4783          	lbu	a5,0(s10)
   132fa:	2801                	sext.w	a6,a6
   132fc:	b529                	j	13106 <_vfiprintf_r+0x10a>
   132fe:	01086813          	or	a6,a6,16
   13302:	2801                	sext.w	a6,a6
   13304:	02087793          	and	a5,a6,32
   13308:	008c8e93          	add	t4,s9,8
   1330c:	c7b1                	beqz	a5,13358 <_vfiprintf_r+0x35c>
   1330e:	000cb783          	ld	a5,0(s9)
   13312:	8cbe                	mv	s9,a5
   13314:	0607c263          	bltz	a5,13378 <_vfiprintf_r+0x37c>
   13318:	0604cb63          	bltz	s1,1338e <_vfiprintf_r+0x392>
   1331c:	f7f87813          	and	a6,a6,-129
   13320:	2801                	sext.w	a6,a6
   13322:	060c9663          	bnez	s9,1338e <_vfiprintf_r+0x392>
   13326:	18049ce3          	bnez	s1,13cbe <_vfiprintf_r+0xcc2>
   1332a:	06714783          	lbu	a5,103(sp)
   1332e:	4301                	li	t1,0
   13330:	4e01                	li	t3,0
   13332:	8cf6                	mv	s9,t4
   13334:	0ec10b93          	add	s7,sp,236
   13338:	c391                	beqz	a5,1333c <_vfiprintf_r+0x340>
   1333a:	2305                	addw	t1,t1,1
   1333c:	00287f93          	and	t6,a6,2
   13340:	ea0f85e3          	beqz	t6,131ea <_vfiprintf_r+0x1ee>
   13344:	2309                	addw	t1,t1,2
   13346:	4f89                	li	t6,2
   13348:	b54d                	j	131ea <_vfiprintf_r+0x1ee>
   1334a:	41a48bbb          	subw	s7,s1,s10
   1334e:	d60b93e3          	bnez	s7,130b4 <_vfiprintf_r+0xb8>
   13352:	0004c783          	lbu	a5,0(s1)
   13356:	bb59                	j	130ec <_vfiprintf_r+0xf0>
   13358:	01087793          	and	a5,a6,16
   1335c:	fbcd                	bnez	a5,1330e <_vfiprintf_r+0x312>
   1335e:	04087793          	and	a5,a6,64
   13362:	000cac83          	lw	s9,0(s9)
   13366:	0e078de3          	beqz	a5,13c60 <_vfiprintf_r+0xc64>
   1336a:	010c9c9b          	sllw	s9,s9,0x10
   1336e:	410cdc9b          	sraw	s9,s9,0x10
   13372:	87e6                	mv	a5,s9
   13374:	fa07d2e3          	bgez	a5,13318 <_vfiprintf_r+0x31c>
   13378:	02d00793          	li	a5,45
   1337c:	06f103a3          	sb	a5,103(sp)
   13380:	41900cb3          	neg	s9,s9
   13384:	0004c563          	bltz	s1,1338e <_vfiprintf_r+0x392>
   13388:	f7f87813          	and	a6,a6,-129
   1338c:	2801                	sext.w	a6,a6
   1338e:	47a5                	li	a5,9
   13390:	6b97ec63          	bltu	a5,s9,13a48 <_vfiprintf_r+0xa4c>
   13394:	030c879b          	addw	a5,s9,48
   13398:	0ff7f793          	zext.b	a5,a5
   1339c:	8cf6                	mv	s9,t4
   1339e:	0ef105a3          	sb	a5,235(sp)
   133a2:	0004831b          	sext.w	t1,s1
   133a6:	00904363          	bgtz	s1,133ac <_vfiprintf_r+0x3b0>
   133aa:	4305                	li	t1,1
   133ac:	4e05                	li	t3,1
   133ae:	0eb10b93          	add	s7,sp,235
   133b2:	06714783          	lbu	a5,103(sp)
   133b6:	f3d1                	bnez	a5,1333a <_vfiprintf_r+0x33e>
   133b8:	b751                	j	1333c <_vfiprintf_r+0x340>
   133ba:	000cbb83          	ld	s7,0(s9)
   133be:	060103a3          	sb	zero,103(sp)
   133c2:	0ca1                	add	s9,s9,8
   133c4:	060b80e3          	beqz	s7,13c24 <_vfiprintf_r+0xc28>
   133c8:	ec42                	sd	a6,24(sp)
   133ca:	e846                	sd	a7,16(sp)
   133cc:	7a04cd63          	bltz	s1,13b86 <_vfiprintf_r+0xb8a>
   133d0:	8626                	mv	a2,s1
   133d2:	4581                	li	a1,0
   133d4:	855e                	mv	a0,s7
   133d6:	202010ef          	jal	145d8 <memchr>
   133da:	68c2                	ld	a7,16(sp)
   133dc:	6862                	ld	a6,24(sp)
   133de:	8e26                	mv	t3,s1
   133e0:	c119                	beqz	a0,133e6 <_vfiprintf_r+0x3ea>
   133e2:	41750e3b          	subw	t3,a0,s7
   133e6:	fffe4313          	not	t1,t3
   133ea:	06714783          	lbu	a5,103(sp)
   133ee:	43f35313          	sra	t1,t1,0x3f
   133f2:	006e7333          	and	t1,t3,t1
   133f6:	2301                	sext.w	t1,t1
   133f8:	4481                	li	s1,0
   133fa:	4f81                	li	t6,0
   133fc:	ff9d                	bnez	a5,1333a <_vfiprintf_r+0x33e>
   133fe:	b3f5                	j	131ea <_vfiprintf_r+0x1ee>
   13400:	000ca783          	lw	a5,0(s9)
   13404:	060103a3          	sb	zero,103(sp)
   13408:	0ca1                	add	s9,s9,8
   1340a:	08f10423          	sb	a5,136(sp)
   1340e:	4305                	li	t1,1
   13410:	4e05                	li	t3,1
   13412:	08810b93          	add	s7,sp,136
   13416:	bbc1                	j	131e6 <_vfiprintf_r+0x1ea>
   13418:	000ca883          	lw	a7,0(s9)
   1341c:	0ca1                	add	s9,s9,8
   1341e:	0a08d163          	bgez	a7,134c0 <_vfiprintf_r+0x4c4>
   13422:	411008bb          	negw	a7,a7
   13426:	00486813          	or	a6,a6,4
   1342a:	000d4783          	lbu	a5,0(s10)
   1342e:	2801                	sext.w	a6,a6
   13430:	b9d9                	j	13106 <_vfiprintf_r+0x10a>
   13432:	02b00713          	li	a4,43
   13436:	000d4783          	lbu	a5,0(s10)
   1343a:	06e103a3          	sb	a4,103(sp)
   1343e:	b1e1                	j	13106 <_vfiprintf_r+0x10a>
   13440:	08086813          	or	a6,a6,128
   13444:	000d4783          	lbu	a5,0(s10)
   13448:	2801                	sext.w	a6,a6
   1344a:	b975                	j	13106 <_vfiprintf_r+0x10a>
   1344c:	000d4783          	lbu	a5,0(s10)
   13450:	02a00613          	li	a2,42
   13454:	001d0693          	add	a3,s10,1
   13458:	08c78de3          	beq	a5,a2,13cf2 <_vfiprintf_r+0xcf6>
   1345c:	fd07871b          	addw	a4,a5,-48
   13460:	4525                	li	a0,9
   13462:	4601                	li	a2,0
   13464:	45a5                	li	a1,9
   13466:	8d36                	mv	s10,a3
   13468:	4481                	li	s1,0
   1346a:	cae560e3          	bltu	a0,a4,1310a <_vfiprintf_r+0x10e>
   1346e:	0006c783          	lbu	a5,0(a3)
   13472:	0026149b          	sllw	s1,a2,0x2
   13476:	9cb1                	addw	s1,s1,a2
   13478:	0014949b          	sllw	s1,s1,0x1
   1347c:	00e4863b          	addw	a2,s1,a4
   13480:	fd07871b          	addw	a4,a5,-48
   13484:	84b2                	mv	s1,a2
   13486:	0685                	add	a3,a3,1
   13488:	fee5f3e3          	bgeu	a1,a4,1346e <_vfiprintf_r+0x472>
   1348c:	68064163          	bltz	a2,13b0e <_vfiprintf_r+0xb12>
   13490:	8d36                	mv	s10,a3
   13492:	b9a5                	j	1310a <_vfiprintf_r+0x10e>
   13494:	8556                	mv	a0,s5
   13496:	ec42                	sd	a6,24(sp)
   13498:	e846                	sd	a7,16(sp)
   1349a:	33c010ef          	jal	147d6 <_localeconv_r>
   1349e:	651c                	ld	a5,8(a0)
   134a0:	853e                	mv	a0,a5
   134a2:	e0be                	sd	a5,64(sp)
   134a4:	5be010ef          	jal	14a62 <strlen>
   134a8:	87aa                	mv	a5,a0
   134aa:	8556                	mv	a0,s5
   134ac:	f83e                	sd	a5,48(sp)
   134ae:	328010ef          	jal	147d6 <_localeconv_r>
   134b2:	6918                	ld	a4,16(a0)
   134b4:	77c2                	ld	a5,48(sp)
   134b6:	68c2                	ld	a7,16(sp)
   134b8:	fc3a                	sd	a4,56(sp)
   134ba:	6862                	ld	a6,24(sp)
   134bc:	62079363          	bnez	a5,13ae2 <_vfiprintf_r+0xae6>
   134c0:	000d4783          	lbu	a5,0(s10)
   134c4:	b189                	j	13106 <_vfiprintf_r+0x10a>
   134c6:	00186813          	or	a6,a6,1
   134ca:	000d4783          	lbu	a5,0(s10)
   134ce:	2801                	sext.w	a6,a6
   134d0:	b91d                	j	13106 <_vfiprintf_r+0x10a>
   134d2:	06714703          	lbu	a4,103(sp)
   134d6:	000d4783          	lbu	a5,0(s10)
   134da:	c20716e3          	bnez	a4,13106 <_vfiprintf_r+0x10a>
   134de:	02000713          	li	a4,32
   134e2:	06e103a3          	sb	a4,103(sp)
   134e6:	b105                	j	13106 <_vfiprintf_r+0x10a>
   134e8:	01086793          	or	a5,a6,16
   134ec:	2781                	sext.w	a5,a5
   134ee:	0207f713          	and	a4,a5,32
   134f2:	008c8613          	add	a2,s9,8
   134f6:	e709                	bnez	a4,13500 <_vfiprintf_r+0x504>
   134f8:	0107f713          	and	a4,a5,16
   134fc:	5c070a63          	beqz	a4,13ad0 <_vfiprintf_r+0xad4>
   13500:	000cb703          	ld	a4,0(s9)
   13504:	bff7f813          	and	a6,a5,-1025
   13508:	060103a3          	sb	zero,103(sp)
   1350c:	2801                	sext.w	a6,a6
   1350e:	8cb2                	mv	s9,a2
   13510:	0804c463          	bltz	s1,13598 <_vfiprintf_r+0x59c>
   13514:	b7f7f793          	and	a5,a5,-1153
   13518:	2781                	sext.w	a5,a5
   1351a:	6c071c63          	bnez	a4,13bf2 <_vfiprintf_r+0xbf6>
   1351e:	8e42                	mv	t3,a6
   13520:	883e                	mv	a6,a5
   13522:	e4a5                	bnez	s1,1358a <_vfiprintf_r+0x58e>
   13524:	50071d63          	bnez	a4,13a3e <_vfiprintf_r+0xa42>
   13528:	001e7e13          	and	t3,t3,1
   1352c:	560e0e63          	beqz	t3,13aa8 <_vfiprintf_r+0xaac>
   13530:	03000793          	li	a5,48
   13534:	0ef105a3          	sb	a5,235(sp)
   13538:	8372                	mv	t1,t3
   1353a:	0eb10b93          	add	s7,sp,235
   1353e:	bd95                	j	133b2 <_vfiprintf_r+0x3b6>
   13540:	000d4783          	lbu	a5,0(s10)
   13544:	06c00713          	li	a4,108
   13548:	6ce78663          	beq	a5,a4,13c14 <_vfiprintf_r+0xc18>
   1354c:	01086813          	or	a6,a6,16
   13550:	2801                	sext.w	a6,a6
   13552:	be55                	j	13106 <_vfiprintf_r+0x10a>
   13554:	01086e13          	or	t3,a6,16
   13558:	2e01                	sext.w	t3,t3
   1355a:	020e7793          	and	a5,t3,32
   1355e:	008c8e93          	add	t4,s9,8
   13562:	e789                	bnez	a5,1356c <_vfiprintf_r+0x570>
   13564:	010e7793          	and	a5,t3,16
   13568:	54078a63          	beqz	a5,13abc <_vfiprintf_r+0xac0>
   1356c:	000cbc83          	ld	s9,0(s9)
   13570:	060103a3          	sb	zero,103(sp)
   13574:	8872                	mv	a6,t3
   13576:	e004cce3          	bltz	s1,1338e <_vfiprintf_r+0x392>
   1357a:	f7fe7813          	and	a6,t3,-129
   1357e:	2801                	sext.w	a6,a6
   13580:	e00c97e3          	bnez	s9,1338e <_vfiprintf_r+0x392>
   13584:	8cf6                	mv	s9,t4
   13586:	4705                	li	a4,1
   13588:	dcd1                	beqz	s1,13524 <_vfiprintf_r+0x528>
   1358a:	4785                	li	a5,1
   1358c:	72f70a63          	beq	a4,a5,13cc0 <_vfiprintf_r+0xcc4>
   13590:	4789                	li	a5,2
   13592:	6ef70163          	beq	a4,a5,13c74 <_vfiprintf_r+0xc78>
   13596:	4701                	li	a4,0
   13598:	0ec10e13          	add	t3,sp,236
   1359c:	8bf2                	mv	s7,t3
   1359e:	00777793          	and	a5,a4,7
   135a2:	03078793          	add	a5,a5,48
   135a6:	fefb8fa3          	sb	a5,-1(s7)
   135aa:	830d                	srl	a4,a4,0x3
   135ac:	865e                	mv	a2,s7
   135ae:	1bfd                	add	s7,s7,-1
   135b0:	f77d                	bnez	a4,1359e <_vfiprintf_r+0x5a2>
   135b2:	00187713          	and	a4,a6,1
   135b6:	28070963          	beqz	a4,13848 <_vfiprintf_r+0x84c>
   135ba:	03000713          	li	a4,48
   135be:	28e78563          	beq	a5,a4,13848 <_vfiprintf_r+0x84c>
   135c2:	1679                	add	a2,a2,-2
   135c4:	feeb8fa3          	sb	a4,-1(s7)
   135c8:	40ce0e3b          	subw	t3,t3,a2
   135cc:	0004831b          	sext.w	t1,s1
   135d0:	53c4cb63          	blt	s1,t3,13b06 <_vfiprintf_r+0xb0a>
   135d4:	8bb2                	mv	s7,a2
   135d6:	bbf1                	j	133b2 <_vfiprintf_r+0x3b6>
   135d8:	000d4783          	lbu	a5,0(s10)
   135dc:	06800713          	li	a4,104
   135e0:	62e78263          	beq	a5,a4,13c04 <_vfiprintf_r+0xc08>
   135e4:	04086813          	or	a6,a6,64
   135e8:	2801                	sext.w	a6,a6
   135ea:	be31                	j	13106 <_vfiprintf_r+0x10a>
   135ec:	02086813          	or	a6,a6,32
   135f0:	000d4783          	lbu	a5,0(s10)
   135f4:	2801                	sext.w	a6,a6
   135f6:	be01                	j	13106 <_vfiprintf_r+0x10a>
   135f8:	67a1                	lui	a5,0x8
   135fa:	83078793          	add	a5,a5,-2000 # 7830 <exit-0x88b8>
   135fe:	00286813          	or	a6,a6,2
   13602:	06f11423          	sh	a5,104(sp)
   13606:	00006797          	auipc	a5,0x6
   1360a:	aa278793          	add	a5,a5,-1374 # 190a8 <__clzdi2+0x84>
   1360e:	000cb703          	ld	a4,0(s9)
   13612:	2801                	sext.w	a6,a6
   13614:	0ca1                	add	s9,s9,8
   13616:	e43e                	sd	a5,8(sp)
   13618:	060103a3          	sb	zero,103(sp)
   1361c:	2004c863          	bltz	s1,1382c <_vfiprintf_r+0x830>
   13620:	f7f87793          	and	a5,a6,-129
   13624:	2781                	sext.w	a5,a5
   13626:	1e071f63          	bnez	a4,13824 <_vfiprintf_r+0x828>
   1362a:	8e42                	mv	t3,a6
   1362c:	4709                	li	a4,2
   1362e:	883e                	mv	a6,a5
   13630:	bdcd                	j	13522 <_vfiprintf_r+0x526>
   13632:	02087793          	and	a5,a6,32
   13636:	000cb703          	ld	a4,0(s9)
   1363a:	e385                	bnez	a5,1365a <_vfiprintf_r+0x65e>
   1363c:	01087793          	and	a5,a6,16
   13640:	ef89                	bnez	a5,1365a <_vfiprintf_r+0x65e>
   13642:	04087793          	and	a5,a6,64
   13646:	64079563          	bnez	a5,13c90 <_vfiprintf_r+0xc94>
   1364a:	20087813          	and	a6,a6,512
   1364e:	68080d63          	beqz	a6,13ce8 <_vfiprintf_r+0xcec>
   13652:	01b70023          	sb	s11,0(a4)
   13656:	0ca1                	add	s9,s9,8
   13658:	bc2d                	j	13092 <_vfiprintf_r+0x96>
   1365a:	01b73023          	sd	s11,0(a4)
   1365e:	0ca1                	add	s9,s9,8
   13660:	bc0d                	j	13092 <_vfiprintf_r+0x96>
   13662:	4705                	li	a4,1
   13664:	87f2                	mv	a5,t3
   13666:	f9de                	sd	s7,240(sp)
   13668:	fdf2                	sd	t3,248(sp)
   1366a:	e172                	sd	t3,128(sp)
   1366c:	dcba                	sw	a4,120(sp)
   1366e:	844e                	mv	s0,s3
   13670:	0441                	add	s0,s0,16
   13672:	b181                	j	132b2 <_vfiprintf_r+0x2b6>
   13674:	4068873b          	subw	a4,a7,t1
   13678:	bee05ee3          	blez	a4,13274 <_vfiprintf_r+0x278>
   1367c:	45c1                	li	a1,16
   1367e:	64e5dc63          	bge	a1,a4,13cd6 <_vfiprintf_r+0xcda>
   13682:	00006e97          	auipc	t4,0x6
   13686:	eaee8e93          	add	t4,t4,-338 # 19530 <zeroes.0>
   1368a:	f026                	sd	s1,32(sp)
   1368c:	86a2                	mv	a3,s0
   1368e:	4f41                	li	t5,16
   13690:	4f9d                	li	t6,7
   13692:	e872                	sd	t3,16(sp)
   13694:	ec46                	sd	a7,24(sp)
   13696:	f442                	sd	a6,40(sp)
   13698:	e49a                	sd	t1,72(sp)
   1369a:	843a                	mv	s0,a4
   1369c:	84f6                	mv	s1,t4
   1369e:	a801                	j	136ae <_vfiprintf_r+0x6b2>
   136a0:	0026059b          	addw	a1,a2,2
   136a4:	06c1                	add	a3,a3,16
   136a6:	862a                	mv	a2,a0
   136a8:	3441                	addw	s0,s0,-16
   136aa:	028f5f63          	bge	t5,s0,136e8 <_vfiprintf_r+0x6ec>
   136ae:	0016051b          	addw	a0,a2,1
   136b2:	07c1                	add	a5,a5,16
   136b4:	e284                	sd	s1,0(a3)
   136b6:	01e6b423          	sd	t5,8(a3)
   136ba:	e13e                	sd	a5,128(sp)
   136bc:	dcaa                	sw	a0,120(sp)
   136be:	feafd1e3          	bge	t6,a0,136a0 <_vfiprintf_r+0x6a4>
   136c2:	10078763          	beqz	a5,137d0 <_vfiprintf_r+0x7d4>
   136c6:	1890                	add	a2,sp,112
   136c8:	85d2                	mv	a1,s4
   136ca:	8556                	mv	a0,s5
   136cc:	861ff0ef          	jal	12f2c <__sprint_r.part.0>
   136d0:	a8051fe3          	bnez	a0,1316e <_vfiprintf_r+0x172>
   136d4:	5666                	lw	a2,120(sp)
   136d6:	4f41                	li	t5,16
   136d8:	3441                	addw	s0,s0,-16
   136da:	678a                	ld	a5,128(sp)
   136dc:	86ce                	mv	a3,s3
   136de:	0016059b          	addw	a1,a2,1
   136e2:	4f9d                	li	t6,7
   136e4:	fc8f45e3          	blt	t5,s0,136ae <_vfiprintf_r+0x6b2>
   136e8:	8ea6                	mv	t4,s1
   136ea:	6e42                	ld	t3,16(sp)
   136ec:	68e2                	ld	a7,24(sp)
   136ee:	7822                	ld	a6,40(sp)
   136f0:	6326                	ld	t1,72(sp)
   136f2:	7482                	ld	s1,32(sp)
   136f4:	8722                	mv	a4,s0
   136f6:	8436                	mv	s0,a3
   136f8:	97ba                	add	a5,a5,a4
   136fa:	e418                	sd	a4,8(s0)
   136fc:	01d43023          	sd	t4,0(s0)
   13700:	e13e                	sd	a5,128(sp)
   13702:	dcae                	sw	a1,120(sp)
   13704:	471d                	li	a4,7
   13706:	3ab75563          	bge	a4,a1,13ab0 <_vfiprintf_r+0xab4>
   1370a:	56078763          	beqz	a5,13c78 <_vfiprintf_r+0xc7c>
   1370e:	1890                	add	a2,sp,112
   13710:	85d2                	mv	a1,s4
   13712:	8556                	mv	a0,s5
   13714:	f41a                	sd	t1,40(sp)
   13716:	f042                	sd	a6,32(sp)
   13718:	ec46                	sd	a7,24(sp)
   1371a:	e872                	sd	t3,16(sp)
   1371c:	811ff0ef          	jal	12f2c <__sprint_r.part.0>
   13720:	a40517e3          	bnez	a0,1316e <_vfiprintf_r+0x172>
   13724:	6e42                	ld	t3,16(sp)
   13726:	5666                	lw	a2,120(sp)
   13728:	678a                	ld	a5,128(sp)
   1372a:	41c484bb          	subw	s1,s1,t3
   1372e:	7322                	ld	t1,40(sp)
   13730:	7802                	ld	a6,32(sp)
   13732:	68e2                	ld	a7,24(sp)
   13734:	844e                	mv	s0,s3
   13736:	0016051b          	addw	a0,a2,1
   1373a:	b49051e3          	blez	s1,1327c <_vfiprintf_r+0x280>
   1373e:	00006e97          	auipc	t4,0x6
   13742:	df2e8e93          	add	t4,t4,-526 # 19530 <zeroes.0>
   13746:	06995563          	bge	s2,s1,137b0 <_vfiprintf_r+0x7b4>
   1374a:	8722                	mv	a4,s0
   1374c:	4f1d                	li	t5,7
   1374e:	8426                	mv	s0,s1
   13750:	e872                	sd	t3,16(sp)
   13752:	ec46                	sd	a7,24(sp)
   13754:	f042                	sd	a6,32(sp)
   13756:	f41a                	sd	t1,40(sp)
   13758:	84da                	mv	s1,s6
   1375a:	a801                	j	1376a <_vfiprintf_r+0x76e>
   1375c:	0026051b          	addw	a0,a2,2
   13760:	0741                	add	a4,a4,16
   13762:	862e                	mv	a2,a1
   13764:	3441                	addw	s0,s0,-16
   13766:	02895e63          	bge	s2,s0,137a2 <_vfiprintf_r+0x7a6>
   1376a:	0016059b          	addw	a1,a2,1
   1376e:	07c1                	add	a5,a5,16
   13770:	01673023          	sd	s6,0(a4)
   13774:	01273423          	sd	s2,8(a4)
   13778:	e13e                	sd	a5,128(sp)
   1377a:	dcae                	sw	a1,120(sp)
   1377c:	febf50e3          	bge	t5,a1,1375c <_vfiprintf_r+0x760>
   13780:	c7a1                	beqz	a5,137c8 <_vfiprintf_r+0x7cc>
   13782:	1890                	add	a2,sp,112
   13784:	85d2                	mv	a1,s4
   13786:	8556                	mv	a0,s5
   13788:	fa4ff0ef          	jal	12f2c <__sprint_r.part.0>
   1378c:	9e0511e3          	bnez	a0,1316e <_vfiprintf_r+0x172>
   13790:	5666                	lw	a2,120(sp)
   13792:	3441                	addw	s0,s0,-16
   13794:	678a                	ld	a5,128(sp)
   13796:	874e                	mv	a4,s3
   13798:	0016051b          	addw	a0,a2,1
   1379c:	4f1d                	li	t5,7
   1379e:	fc8946e3          	blt	s2,s0,1376a <_vfiprintf_r+0x76e>
   137a2:	6e42                	ld	t3,16(sp)
   137a4:	68e2                	ld	a7,24(sp)
   137a6:	7802                	ld	a6,32(sp)
   137a8:	7322                	ld	t1,40(sp)
   137aa:	8ea6                	mv	t4,s1
   137ac:	84a2                	mv	s1,s0
   137ae:	843a                	mv	s0,a4
   137b0:	97a6                	add	a5,a5,s1
   137b2:	01d43023          	sd	t4,0(s0)
   137b6:	e404                	sd	s1,8(s0)
   137b8:	e13e                	sd	a5,128(sp)
   137ba:	dcaa                	sw	a0,120(sp)
   137bc:	471d                	li	a4,7
   137be:	20a74663          	blt	a4,a0,139ca <_vfiprintf_r+0x9ce>
   137c2:	0441                	add	s0,s0,16
   137c4:	2505                	addw	a0,a0,1
   137c6:	bc5d                	j	1327c <_vfiprintf_r+0x280>
   137c8:	4505                	li	a0,1
   137ca:	4601                	li	a2,0
   137cc:	874e                	mv	a4,s3
   137ce:	bf59                	j	13764 <_vfiprintf_r+0x768>
   137d0:	4585                	li	a1,1
   137d2:	4601                	li	a2,0
   137d4:	86ce                	mv	a3,s3
   137d6:	bdc9                	j	136a8 <_vfiprintf_r+0x6ac>
   137d8:	cb95                	beqz	a5,1380c <_vfiprintf_r+0x810>
   137da:	1890                	add	a2,sp,112
   137dc:	85d2                	mv	a1,s4
   137de:	8556                	mv	a0,s5
   137e0:	e89a                	sd	t1,80(sp)
   137e2:	e4c2                	sd	a6,72(sp)
   137e4:	f446                	sd	a7,40(sp)
   137e6:	f072                	sd	t3,32(sp)
   137e8:	ec16                	sd	t0,24(sp)
   137ea:	e87e                	sd	t6,16(sp)
   137ec:	f40ff0ef          	jal	12f2c <__sprint_r.part.0>
   137f0:	96051fe3          	bnez	a0,1316e <_vfiprintf_r+0x172>
   137f4:	5666                	lw	a2,120(sp)
   137f6:	678a                	ld	a5,128(sp)
   137f8:	6346                	ld	t1,80(sp)
   137fa:	6826                	ld	a6,72(sp)
   137fc:	78a2                	ld	a7,40(sp)
   137fe:	7e02                	ld	t3,32(sp)
   13800:	62e2                	ld	t0,24(sp)
   13802:	6fc2                	ld	t6,16(sp)
   13804:	844e                	mv	s0,s3
   13806:	0016051b          	addw	a0,a2,1
   1380a:	bc31                	j	13226 <_vfiprintf_r+0x22a>
   1380c:	2e0f8863          	beqz	t6,13afc <_vfiprintf_r+0xb00>
   13810:	10bc                	add	a5,sp,104
   13812:	f9be                	sd	a5,240(sp)
   13814:	4789                	li	a5,2
   13816:	fdbe                	sd	a5,248(sp)
   13818:	4505                	li	a0,1
   1381a:	844e                	mv	s0,s3
   1381c:	862a                	mv	a2,a0
   1381e:	0441                	add	s0,s0,16
   13820:	2505                	addw	a0,a0,1
   13822:	b4a9                	j	1326c <_vfiprintf_r+0x270>
   13824:	883e                	mv	a6,a5
   13826:	4789                	li	a5,2
   13828:	d60788e3          	beqz	a5,13598 <_vfiprintf_r+0x59c>
   1382c:	66a2                	ld	a3,8(sp)
   1382e:	0ec10e13          	add	t3,sp,236
   13832:	8bf2                	mv	s7,t3
   13834:	00f77793          	and	a5,a4,15
   13838:	97b6                	add	a5,a5,a3
   1383a:	0007c783          	lbu	a5,0(a5)
   1383e:	8311                	srl	a4,a4,0x4
   13840:	1bfd                	add	s7,s7,-1
   13842:	00fb8023          	sb	a5,0(s7)
   13846:	f77d                	bnez	a4,13834 <_vfiprintf_r+0x838>
   13848:	417e0e3b          	subw	t3,t3,s7
   1384c:	0004831b          	sext.w	t1,s1
   13850:	b7c4d1e3          	bge	s1,t3,133b2 <_vfiprintf_r+0x3b6>
   13854:	000e031b          	sext.w	t1,t3
   13858:	bea9                	j	133b2 <_vfiprintf_r+0x3b6>
   1385a:	4ec1                	li	t4,16
   1385c:	44eedc63          	bge	t4,a4,13cb4 <_vfiprintf_r+0xcb8>
   13860:	00006e97          	auipc	t4,0x6
   13864:	ce0e8e93          	add	t4,t4,-800 # 19540 <blanks.1>
   13868:	e4a6                	sd	s1,72(sp)
   1386a:	86a2                	mv	a3,s0
   1386c:	4f41                	li	t5,16
   1386e:	439d                	li	t2,7
   13870:	e87e                	sd	t6,16(sp)
   13872:	ec16                	sd	t0,24(sp)
   13874:	f072                	sd	t3,32(sp)
   13876:	f446                	sd	a7,40(sp)
   13878:	e8c2                	sd	a6,80(sp)
   1387a:	ec9a                	sd	t1,88(sp)
   1387c:	843a                	mv	s0,a4
   1387e:	84f6                	mv	s1,t4
   13880:	a811                	j	13894 <_vfiprintf_r+0x898>
   13882:	0026059b          	addw	a1,a2,2
   13886:	06c1                	add	a3,a3,16
   13888:	862a                	mv	a2,a0
   1388a:	3441                	addw	s0,s0,-16
   1388c:	048f5063          	bge	t5,s0,138cc <_vfiprintf_r+0x8d0>
   13890:	0016059b          	addw	a1,a2,1
   13894:	07c1                	add	a5,a5,16
   13896:	e284                	sd	s1,0(a3)
   13898:	01e6b423          	sd	t5,8(a3)
   1389c:	e13e                	sd	a5,128(sp)
   1389e:	0005851b          	sext.w	a0,a1
   138a2:	dcae                	sw	a1,120(sp)
   138a4:	fca3dfe3          	bge	t2,a0,13882 <_vfiprintf_r+0x886>
   138a8:	cbb1                	beqz	a5,138fc <_vfiprintf_r+0x900>
   138aa:	1890                	add	a2,sp,112
   138ac:	85d2                	mv	a1,s4
   138ae:	8556                	mv	a0,s5
   138b0:	e7cff0ef          	jal	12f2c <__sprint_r.part.0>
   138b4:	8a051de3          	bnez	a0,1316e <_vfiprintf_r+0x172>
   138b8:	5666                	lw	a2,120(sp)
   138ba:	4f41                	li	t5,16
   138bc:	3441                	addw	s0,s0,-16
   138be:	678a                	ld	a5,128(sp)
   138c0:	86ce                	mv	a3,s3
   138c2:	0016059b          	addw	a1,a2,1
   138c6:	439d                	li	t2,7
   138c8:	fc8f44e3          	blt	t5,s0,13890 <_vfiprintf_r+0x894>
   138cc:	8ea6                	mv	t4,s1
   138ce:	6fc2                	ld	t6,16(sp)
   138d0:	62e2                	ld	t0,24(sp)
   138d2:	7e02                	ld	t3,32(sp)
   138d4:	78a2                	ld	a7,40(sp)
   138d6:	6846                	ld	a6,80(sp)
   138d8:	6366                	ld	t1,88(sp)
   138da:	64a6                	ld	s1,72(sp)
   138dc:	8722                	mv	a4,s0
   138de:	8436                	mv	s0,a3
   138e0:	97ba                	add	a5,a5,a4
   138e2:	e418                	sd	a4,8(s0)
   138e4:	01d43023          	sd	t4,0(s0)
   138e8:	e13e                	sd	a5,128(sp)
   138ea:	dcae                	sw	a1,120(sp)
   138ec:	471d                	li	a4,7
   138ee:	10b74c63          	blt	a4,a1,13a06 <_vfiprintf_r+0xa0a>
   138f2:	0441                	add	s0,s0,16
   138f4:	0015851b          	addw	a0,a1,1 # 2001 <exit-0xe0e7>
   138f8:	862e                	mv	a2,a1
   138fa:	b229                	j	13204 <_vfiprintf_r+0x208>
   138fc:	4601                	li	a2,0
   138fe:	4585                	li	a1,1
   13900:	86ce                	mv	a3,s3
   13902:	b761                	j	1388a <_vfiprintf_r+0x88e>
   13904:	dc82                	sw	zero,120(sp)
   13906:	00487813          	and	a6,a6,4
   1390a:	0a080963          	beqz	a6,139bc <_vfiprintf_r+0x9c0>
   1390e:	406884bb          	subw	s1,a7,t1
   13912:	0a905563          	blez	s1,139bc <_vfiprintf_r+0x9c0>
   13916:	844e                	mv	s0,s3
   13918:	4741                	li	a4,16
   1391a:	5666                	lw	a2,120(sp)
   1391c:	3a975663          	bge	a4,s1,13cc8 <_vfiprintf_r+0xccc>
   13920:	00006e97          	auipc	t4,0x6
   13924:	c20e8e93          	add	t4,t4,-992 # 19540 <blanks.1>
   13928:	86a2                	mv	a3,s0
   1392a:	4bc1                	li	s7,16
   1392c:	8426                	mv	s0,s1
   1392e:	481d                	li	a6,7
   13930:	e846                	sd	a7,16(sp)
   13932:	ec1a                	sd	t1,24(sp)
   13934:	84f6                	mv	s1,t4
   13936:	a801                	j	13946 <_vfiprintf_r+0x94a>
   13938:	0026071b          	addw	a4,a2,2
   1393c:	06c1                	add	a3,a3,16
   1393e:	862e                	mv	a2,a1
   13940:	3441                	addw	s0,s0,-16
   13942:	028bdd63          	bge	s7,s0,1397c <_vfiprintf_r+0x980>
   13946:	0016059b          	addw	a1,a2,1
   1394a:	07c1                	add	a5,a5,16
   1394c:	e284                	sd	s1,0(a3)
   1394e:	0176b423          	sd	s7,8(a3)
   13952:	e13e                	sd	a5,128(sp)
   13954:	dcae                	sw	a1,120(sp)
   13956:	feb851e3          	bge	a6,a1,13938 <_vfiprintf_r+0x93c>
   1395a:	cfa9                	beqz	a5,139b4 <_vfiprintf_r+0x9b8>
   1395c:	1890                	add	a2,sp,112
   1395e:	85d2                	mv	a1,s4
   13960:	8556                	mv	a0,s5
   13962:	dcaff0ef          	jal	12f2c <__sprint_r.part.0>
   13966:	800514e3          	bnez	a0,1316e <_vfiprintf_r+0x172>
   1396a:	5666                	lw	a2,120(sp)
   1396c:	3441                	addw	s0,s0,-16
   1396e:	678a                	ld	a5,128(sp)
   13970:	86ce                	mv	a3,s3
   13972:	0016071b          	addw	a4,a2,1
   13976:	481d                	li	a6,7
   13978:	fc8bc7e3          	blt	s7,s0,13946 <_vfiprintf_r+0x94a>
   1397c:	68c2                	ld	a7,16(sp)
   1397e:	6362                	ld	t1,24(sp)
   13980:	8ea6                	mv	t4,s1
   13982:	84a2                	mv	s1,s0
   13984:	8436                	mv	s0,a3
   13986:	97a6                	add	a5,a5,s1
   13988:	01d43023          	sd	t4,0(s0)
   1398c:	e404                	sd	s1,8(s0)
   1398e:	e13e                	sd	a5,128(sp)
   13990:	dcba                	sw	a4,120(sp)
   13992:	461d                	li	a2,7
   13994:	92e657e3          	bge	a2,a4,132c2 <_vfiprintf_r+0x2c6>
   13998:	c395                	beqz	a5,139bc <_vfiprintf_r+0x9c0>
   1399a:	1890                	add	a2,sp,112
   1399c:	85d2                	mv	a1,s4
   1399e:	8556                	mv	a0,s5
   139a0:	ec1a                	sd	t1,24(sp)
   139a2:	e846                	sd	a7,16(sp)
   139a4:	d88ff0ef          	jal	12f2c <__sprint_r.part.0>
   139a8:	fc051363          	bnez	a0,1316e <_vfiprintf_r+0x172>
   139ac:	678a                	ld	a5,128(sp)
   139ae:	6362                	ld	t1,24(sp)
   139b0:	68c2                	ld	a7,16(sp)
   139b2:	ba01                	j	132c2 <_vfiprintf_r+0x2c6>
   139b4:	4705                	li	a4,1
   139b6:	4601                	li	a2,0
   139b8:	86ce                	mv	a3,s3
   139ba:	b759                	j	13940 <_vfiprintf_r+0x944>
   139bc:	87c6                	mv	a5,a7
   139be:	0068d363          	bge	a7,t1,139c4 <_vfiprintf_r+0x9c8>
   139c2:	879a                	mv	a5,t1
   139c4:	01b78dbb          	addw	s11,a5,s11
   139c8:	b229                	j	132d2 <_vfiprintf_r+0x2d6>
   139ca:	c8078ce3          	beqz	a5,13662 <_vfiprintf_r+0x666>
   139ce:	1890                	add	a2,sp,112
   139d0:	85d2                	mv	a1,s4
   139d2:	8556                	mv	a0,s5
   139d4:	f41a                	sd	t1,40(sp)
   139d6:	f042                	sd	a6,32(sp)
   139d8:	ec46                	sd	a7,24(sp)
   139da:	e872                	sd	t3,16(sp)
   139dc:	d50ff0ef          	jal	12f2c <__sprint_r.part.0>
   139e0:	f8051763          	bnez	a0,1316e <_vfiprintf_r+0x172>
   139e4:	5566                	lw	a0,120(sp)
   139e6:	678a                	ld	a5,128(sp)
   139e8:	7322                	ld	t1,40(sp)
   139ea:	7802                	ld	a6,32(sp)
   139ec:	68e2                	ld	a7,24(sp)
   139ee:	6e42                	ld	t3,16(sp)
   139f0:	844e                	mv	s0,s3
   139f2:	2505                	addw	a0,a0,1
   139f4:	b061                	j	1327c <_vfiprintf_r+0x280>
   139f6:	dc82                	sw	zero,120(sp)
   139f8:	844e                	mv	s0,s3
   139fa:	eeaff06f          	j	130e4 <_vfiprintf_r+0xe8>
   139fe:	4505                	li	a0,1
   13a00:	4601                	li	a2,0
   13a02:	844e                	mv	s0,s3
   13a04:	b0a5                	j	1326c <_vfiprintf_r+0x270>
   13a06:	18078863          	beqz	a5,13b96 <_vfiprintf_r+0xb9a>
   13a0a:	1890                	add	a2,sp,112
   13a0c:	85d2                	mv	a1,s4
   13a0e:	8556                	mv	a0,s5
   13a10:	e89a                	sd	t1,80(sp)
   13a12:	e4c2                	sd	a6,72(sp)
   13a14:	f446                	sd	a7,40(sp)
   13a16:	f072                	sd	t3,32(sp)
   13a18:	ec16                	sd	t0,24(sp)
   13a1a:	e87e                	sd	t6,16(sp)
   13a1c:	d10ff0ef          	jal	12f2c <__sprint_r.part.0>
   13a20:	f4051763          	bnez	a0,1316e <_vfiprintf_r+0x172>
   13a24:	5666                	lw	a2,120(sp)
   13a26:	678a                	ld	a5,128(sp)
   13a28:	6346                	ld	t1,80(sp)
   13a2a:	6826                	ld	a6,72(sp)
   13a2c:	78a2                	ld	a7,40(sp)
   13a2e:	7e02                	ld	t3,32(sp)
   13a30:	62e2                	ld	t0,24(sp)
   13a32:	6fc2                	ld	t6,16(sp)
   13a34:	844e                	mv	s0,s3
   13a36:	0016051b          	addw	a0,a2,1
   13a3a:	fcaff06f          	j	13204 <_vfiprintf_r+0x208>
   13a3e:	4301                	li	t1,0
   13a40:	4e01                	li	t3,0
   13a42:	0ec10b93          	add	s7,sp,236
   13a46:	b2b5                	j	133b2 <_vfiprintf_r+0x3b6>
   13a48:	0ec10e13          	add	t3,sp,236
   13a4c:	76e2                	ld	a3,56(sp)
   13a4e:	40087f13          	and	t5,a6,1024
   13a52:	4581                	li	a1,0
   13a54:	8672                	mv	a2,t3
   13a56:	4729                	li	a4,10
   13a58:	4325                	li	t1,9
   13a5a:	0ff00f93          	li	t6,255
   13a5e:	a039                	j	13a6c <_vfiprintf_r+0xa70>
   13a60:	02ecd7b3          	divu	a5,s9,a4
   13a64:	03937763          	bgeu	t1,s9,13a92 <_vfiprintf_r+0xa96>
   13a68:	8cbe                	mv	s9,a5
   13a6a:	865e                	mv	a2,s7
   13a6c:	fff60b93          	add	s7,a2,-1
   13a70:	2585                	addw	a1,a1,1
   13a72:	02ecf7b3          	remu	a5,s9,a4
   13a76:	0307879b          	addw	a5,a5,48
   13a7a:	fef60fa3          	sb	a5,-1(a2)
   13a7e:	fe0f01e3          	beqz	t5,13a60 <_vfiprintf_r+0xa64>
   13a82:	0006c783          	lbu	a5,0(a3)
   13a86:	fcb79de3          	bne	a5,a1,13a60 <_vfiprintf_r+0xa64>
   13a8a:	fdf78be3          	beq	a5,t6,13a60 <_vfiprintf_r+0xa64>
   13a8e:	13936063          	bltu	t1,s9,13bae <_vfiprintf_r+0xbb2>
   13a92:	fc36                	sd	a3,56(sp)
   13a94:	417e0e3b          	subw	t3,t3,s7
   13a98:	0004831b          	sext.w	t1,s1
   13a9c:	01c4d463          	bge	s1,t3,13aa4 <_vfiprintf_r+0xaa8>
   13aa0:	000e031b          	sext.w	t1,t3
   13aa4:	8cf6                	mv	s9,t4
   13aa6:	b231                	j	133b2 <_vfiprintf_r+0x3b6>
   13aa8:	4301                	li	t1,0
   13aaa:	0ec10b93          	add	s7,sp,236
   13aae:	b211                	j	133b2 <_vfiprintf_r+0x3b6>
   13ab0:	0441                	add	s0,s0,16
   13ab2:	0015851b          	addw	a0,a1,1
   13ab6:	862e                	mv	a2,a1
   13ab8:	fbcff06f          	j	13274 <_vfiprintf_r+0x278>
   13abc:	040e7793          	and	a5,t3,64
   13ac0:	000cac83          	lw	s9,0(s9)
   13ac4:	16078c63          	beqz	a5,13c3c <_vfiprintf_r+0xc40>
   13ac8:	1cc2                	sll	s9,s9,0x30
   13aca:	030cdc93          	srl	s9,s9,0x30
   13ace:	b44d                	j	13570 <_vfiprintf_r+0x574>
   13ad0:	0407f593          	and	a1,a5,64
   13ad4:	000ca703          	lw	a4,0(s9)
   13ad8:	16058863          	beqz	a1,13c48 <_vfiprintf_r+0xc4c>
   13adc:	1742                	sll	a4,a4,0x30
   13ade:	9341                	srl	a4,a4,0x30
   13ae0:	b415                	j	13504 <_vfiprintf_r+0x508>
   13ae2:	000d4783          	lbu	a5,0(s10)
   13ae6:	e2070063          	beqz	a4,13106 <_vfiprintf_r+0x10a>
   13aea:	00074703          	lbu	a4,0(a4)
   13aee:	e0070c63          	beqz	a4,13106 <_vfiprintf_r+0x10a>
   13af2:	40086813          	or	a6,a6,1024
   13af6:	2801                	sext.w	a6,a6
   13af8:	e0eff06f          	j	13106 <_vfiprintf_r+0x10a>
   13afc:	4601                	li	a2,0
   13afe:	4505                	li	a0,1
   13b00:	844e                	mv	s0,s3
   13b02:	f6aff06f          	j	1326c <_vfiprintf_r+0x270>
   13b06:	000e031b          	sext.w	t1,t3
   13b0a:	8bb2                	mv	s7,a2
   13b0c:	b05d                	j	133b2 <_vfiprintf_r+0x3b6>
   13b0e:	54fd                	li	s1,-1
   13b10:	8d36                	mv	s10,a3
   13b12:	df8ff06f          	j	1310a <_vfiprintf_r+0x10e>
   13b16:	00005717          	auipc	a4,0x5
   13b1a:	5aa70713          	add	a4,a4,1450 # 190c0 <__clzdi2+0x9c>
   13b1e:	e43a                	sd	a4,8(sp)
   13b20:	02087713          	and	a4,a6,32
   13b24:	008c8613          	add	a2,s9,8
   13b28:	ef21                	bnez	a4,13b80 <_vfiprintf_r+0xb84>
   13b2a:	01087713          	and	a4,a6,16
   13b2e:	eb29                	bnez	a4,13b80 <_vfiprintf_r+0xb84>
   13b30:	04087593          	and	a1,a6,64
   13b34:	000ca703          	lw	a4,0(s9)
   13b38:	10058e63          	beqz	a1,13c54 <_vfiprintf_r+0xc58>
   13b3c:	1742                	sll	a4,a4,0x30
   13b3e:	9341                	srl	a4,a4,0x30
   13b40:	00187593          	and	a1,a6,1
   13b44:	c999                	beqz	a1,13b5a <_vfiprintf_r+0xb5e>
   13b46:	cb11                	beqz	a4,13b5a <_vfiprintf_r+0xb5e>
   13b48:	00286813          	or	a6,a6,2
   13b4c:	03000593          	li	a1,48
   13b50:	06b10423          	sb	a1,104(sp)
   13b54:	06f104a3          	sb	a5,105(sp)
   13b58:	2801                	sext.w	a6,a6
   13b5a:	bff87813          	and	a6,a6,-1025
   13b5e:	2801                	sext.w	a6,a6
   13b60:	8cb2                	mv	s9,a2
   13b62:	bc5d                	j	13618 <_vfiprintf_r+0x61c>
   13b64:	8e42                	mv	t3,a6
   13b66:	bad5                	j	1355a <_vfiprintf_r+0x55e>
   13b68:	87c2                	mv	a5,a6
   13b6a:	b251                	j	134ee <_vfiprintf_r+0x4f2>
   13b6c:	00005717          	auipc	a4,0x5
   13b70:	53c70713          	add	a4,a4,1340 # 190a8 <__clzdi2+0x84>
   13b74:	e43a                	sd	a4,8(sp)
   13b76:	02087713          	and	a4,a6,32
   13b7a:	008c8613          	add	a2,s9,8
   13b7e:	d755                	beqz	a4,13b2a <_vfiprintf_r+0xb2e>
   13b80:	000cb703          	ld	a4,0(s9)
   13b84:	bf75                	j	13b40 <_vfiprintf_r+0xb44>
   13b86:	855e                	mv	a0,s7
   13b88:	6db000ef          	jal	14a62 <strlen>
   13b8c:	68c2                	ld	a7,16(sp)
   13b8e:	6862                	ld	a6,24(sp)
   13b90:	00050e1b          	sext.w	t3,a0
   13b94:	b889                	j	133e6 <_vfiprintf_r+0x3ea>
